Archive member included because of file (symbol)

/usr/local/xenon/usr/lib/libxenon.a(argv.o)
                              /usr/local/xenon/lib/gcc/xenon/4.7.1/../../../../xenon/lib/../lib/crt1.o (__check_argv)
/usr/local/xenon/usr/lib/libxenon.a(startup_from_xell.o)
                              (_start)
/usr/local/xenon/usr/lib/libxenon.a(console.o)
                              kbootconf.o (console_color)
/usr/local/xenon/usr/lib/libxenon.a(ata.o)
                              main.o (xenon_ata_init)
/usr/local/xenon/usr/lib/libxenon.a(iso9660.o)
                              mount.o (ISO9660_Mount)
/usr/local/xenon/usr/lib/libxenon.a(input.o)
                              kbootconf.o (get_controller_data)
/usr/local/xenon/usr/lib/libxenon.a(newlib.o)
                              /usr/local/xenon/usr/lib/libxenon.a(console.o) (stdout_hook)
/usr/local/xenon/usr/lib/libxenon.a(xenon_syscalls.o)
                              /usr/local/xenon/usr/lib/libxenon.a(newlib.o) (__syscalls)
/usr/local/xenon/usr/lib/libxenon.a(atomic.o)
                              /usr/local/xenon/usr/lib/libxenon.a(startup_from_xell.o) (atomic_clearset)
/usr/local/xenon/usr/lib/libxenon.a(cache.o)
                              /usr/local/xenon/usr/lib/libxenon.a(ata.o) (memdcbt)
/usr/local/xenon/usr/lib/libxenon.a(except.o)
                              /usr/local/xenon/usr/lib/libxenon.a(startup_from_xell.o) (secondary_lock)
/usr/local/xenon/usr/lib/libxenon.a(c_except.o)
                              /usr/local/xenon/usr/lib/libxenon.a(except.o) (crashdump)
/usr/local/xenon/usr/lib/libxenon.a(vm.o)
                              /usr/local/xenon/usr/lib/libxenon.a(except.o) (vm_segfault_handler)
/usr/local/xenon/usr/lib/libxenon.a(time.o)
                              /usr/local/xenon/usr/lib/libxenon.a(ata.o) (mdelay)
/usr/local/xenon/usr/lib/libxenon.a(usbctrl.o)
                              /usr/local/xenon/usr/lib/libxenon.a(input.o) (usbctrl_set_rumble)
/usr/local/xenon/usr/lib/libxenon.a(usbd.o)
                              /usr/local/xenon/usr/lib/libxenon.a(usbctrl.o) (usb_open_pipe)
/usr/local/xenon/usr/lib/libxenon.a(usbdevs.o)
                              /usr/local/xenon/usr/lib/libxenon.a(usbd.o) (usb_find_driver)
/usr/local/xenon/usr/lib/libxenon.a(usbhid.o)
                              /usr/local/xenon/usr/lib/libxenon.a(usbdevs.o) (usbhid_driver)
/usr/local/xenon/usr/lib/libxenon.a(usbhub.o)
                              /usr/local/xenon/usr/lib/libxenon.a(usbd.o) (usb_scan)
/usr/local/xenon/usr/lib/libxenon.a(usbmain.o)
                              /usr/local/xenon/usr/lib/libxenon.a(xenon_syscalls.o) (usb_shutdown)
/usr/local/xenon/usr/lib/libxenon.a(tinyehci.o)
                              /usr/local/xenon/usr/lib/libxenon.a(usbmain.o) (USBStorage_Init)
/usr/local/xenon/usr/lib/libxenon.a(debug.o)
                              /usr/local/xenon/usr/lib/libxenon.a(xenon_syscalls.o) (data_breakpoint)
/usr/local/xenon/usr/lib/libxenon.a(xenon_smc.o)
                              /usr/local/xenon/usr/lib/libxenon.a(xenon_syscalls.o) (xenon_smc_send_message)
/usr/local/xenon/usr/lib/libxenon.a(xenon_power.o)
                              main.o (xenon_run_thread_task)
/usr/local/xenon/usr/lib/libxenon.a(xenon_secotp.o)
                              main.o (xenon_secotp_read_line)
/usr/local/xenon/usr/lib/libxenon.a(sound.o)
                              main.o (xenon_sound_init)
/usr/local/xenon/usr/lib/libxenon.a(xenon_uart.o)
                              /usr/local/xenon/usr/lib/libxenon.a(newlib.o) (putch)
/usr/local/xenon/usr/lib/libxenon.a(xenon_sfcx.o)
                              httpd_flash.o (sfcx_read_page)
/usr/local/xenon/usr/lib/libxenon.a(xenon_config.o)
                              main.o (xenon_config_init)
/usr/local/xenon/usr/lib/libxenon.a(xenos.o)
                              main.o (xenos_init)
/usr/local/xenon/usr/lib/libxenon.a(xenos_edid.o)
                              /usr/local/xenon/usr/lib/libxenon.a(xenos.o) (xenos_get_edid)
/usr/local/xenon/usr/lib/libxenon.a(mem.o)
                              httpd.o (mem_free)
/usr/local/xenon/usr/lib/libxenon.a(netif.o)
                              kbootconf.o (netif_set_ipaddr)
/usr/local/xenon/usr/lib/libxenon.a(pbuf.o)
                              tftp.o (pbuf_free)
/usr/local/xenon/usr/lib/libxenon.a(stats.o)
                              /usr/local/xenon/usr/lib/libxenon.a(mem.o) (lwip_stats)
/usr/local/xenon/usr/lib/libxenon.a(tcp.o)
                              httpd.o (tcp_bind)
/usr/local/xenon/usr/lib/libxenon.a(ip_addr.o)
                              tftp.o (ipaddr_aton)
/usr/local/xenon/usr/lib/libxenon.a(ip.o)
                              /usr/local/xenon/usr/lib/libxenon.a(tcp.o) (ip_route)
/usr/local/xenon/usr/lib/libxenon.a(ip_frag.o)
                              /usr/local/xenon/usr/lib/libxenon.a(ip.o) (ip_reass)
/usr/local/xenon/usr/lib/libxenon.a(tcp_out.o)
                              httpd.o (tcp_write)
/usr/local/xenon/usr/lib/libxenon.a(udp.o)
                              /usr/local/xenon/usr/lib/libxenon.a(ip.o) (udp_input)
/usr/local/xenon/usr/lib/libxenon.a(etharp.o)
                              /usr/local/xenon/usr/lib/libxenon.a(netif.o) (etharp_request)
/usr/local/xenon/usr/lib/libxenon.a(dhcp.o)
                              /usr/local/xenon/usr/lib/libxenon.a(netif.o) (dhcp_network_changed)
/usr/local/xenon/usr/lib/libxenon.a(raw.o)
                              /usr/local/xenon/usr/lib/libxenon.a(ip.o) (raw_input)
/usr/local/xenon/usr/lib/libxenon.a(timers.o)
                              /usr/local/xenon/usr/lib/libxenon.a(tcp.o) (tcp_timer_needed)
/usr/local/xenon/usr/lib/libxenon.a(enet.o)
                              /usr/local/xenon/usr/lib/libxenon.a(xenon_syscalls.o) (enet_quiesce)
/usr/local/xenon/usr/lib/libxenon.a(network.o)
                              file.o (network_poll)
/usr/local/xenon/usr/lib/libxenon.a(elf.o)
                              file.o (elf_setArgcArgv)
/usr/local/xenon/usr/lib/libxenon.a(elf_run.o)
                              /usr/local/xenon/usr/lib/libxenon.a(elf.o) (elf_hold_thread)
/usr/local/xenon/usr/lib/libxenon.a(fdt_ro.o)
                              /usr/local/xenon/usr/lib/libxenon.a(elf.o) (fdt_path_offset)
/usr/local/xenon/usr/lib/libxenon.a(fdt_rw.o)
                              /usr/local/xenon/usr/lib/libxenon.a(elf.o) (fdt_add_mem_rsv)
/usr/local/xenon/usr/lib/libxenon.a(fdt_wip.o)
                              /usr/local/xenon/usr/lib/libxenon.a(fdt_rw.o) (_fdt_node_end_offset)
/usr/local/xenon/usr/lib/libxenon.a(xb360.o)
                              httpd_fuse.o (cpu_get_key)
/usr/local/xenon/usr/lib/libxenon.a(lib_malloc.o)
                              /usr/local/xenon/usr/lib/libxenon.a(usbctrl.o) (kfree)
/usr/local/xenon/usr/lib/libxenon.a(io.o)
                              /usr/local/xenon/usr/lib/libxenon.a(usbmain.o) (read32)
/usr/local/xenon/usr/lib/libxenon.a(dummy.o)
                              /usr/local/xenon/usr/lib/libxenon.a(usbdevs.o) (dummy_driver)
/usr/local/xenon/usr/lib/libxenon.a(ohci.o)
                              /usr/local/xenon/usr/lib/libxenon.a(usbmain.o) (ohci_driver)
/usr/local/xenon/usr/lib/libxenon.a(usbdebug.o)
                              /usr/local/xenon/usr/lib/libxenon.a(usbhub.o) (usb_dbg_dumpportstatus)
/usr/local/xenon/usr/lib/libxenon.a(usb_os.o)
                              /usr/local/xenon/usr/lib/libxenon.a(tinyehci.o) (ehci_maligned)
/usr/local/xenon/usr/lib/libxenon.a(xenon_gpio.o)
                              /usr/local/xenon/usr/lib/libxenon.a(sound.o) (xenon_gpio_control)
/usr/local/xenon/usr/lib/libxenon.a(cpusleep.o)
                              /usr/local/xenon/usr/lib/libxenon.a(xenon_power.o) (cpusleep)
/usr/local/xenon/usr/lib/libxenon.a(init.o)
                              /usr/local/xenon/usr/lib/libxenon.a(network.o) (lwip_init)
/usr/local/xenon/usr/lib/libxenon.a(tcp_in.o)
                              /usr/local/xenon/usr/lib/libxenon.a(ip.o) (tcp_input)
/usr/local/xenon/usr/lib/libxenon.a(inet_chksum.o)
                              /usr/local/xenon/usr/lib/libxenon.a(tcp_out.o) (inet_chksum_pseudo)
/usr/local/xenon/usr/lib/libxenon.a(dns.o)
                              /usr/local/xenon/usr/lib/libxenon.a(dhcp.o) (dns_setserver)
/usr/local/xenon/usr/lib/libxenon.a(memp.o)
                              /usr/local/xenon/usr/lib/libxenon.a(init.o) (memp_init)
/usr/local/xenon/usr/lib/libxenon.a(icmp.o)
                              /usr/local/xenon/usr/lib/libxenon.a(ip.o) (icmp_input)
/usr/local/xenon/usr/lib/libxenon.a(fdt.o)
                              /usr/local/xenon/usr/lib/libxenon.a(fdt_ro.o) (fdt_check_header)
/usr/local/xenon/usr/lib/libxenon.a(hmac_sha1.o)
                              /usr/local/xenon/usr/lib/libxenon.a(xb360.o) (HMAC_SHA1_Init)
/usr/local/xenon/usr/lib/libxenon.a(rc4.o)
                              /usr/local/xenon/usr/lib/libxenon.a(xb360.o) (rc4_init)
/usr/local/xenon/usr/lib/libxenon.a(sha1.o)
                              /usr/local/xenon/usr/lib/libxenon.a(hmac_sha1.o) (SHA1_Init)
/usr/local/xenon/usr/lib/libxenon.a(lib_queue.o)
                              /usr/local/xenon/usr/lib/libxenon.a(ohci.o) (q_enqueue)
/usr/local/xenon/usr/lib/libfat.a(libfat.o)
                              mount.o (fatMount)
/usr/local/xenon/usr/lib/libfat.a(partition.o)
                              /usr/local/xenon/usr/lib/libfat.a(libfat.o) (_FAT_partition_constructor)
/usr/local/xenon/usr/lib/libfat.a(cache.o)
                              /usr/local/xenon/usr/lib/libfat.a(partition.o) (_FAT_cache_constructor)
/usr/local/xenon/usr/lib/libfat.a(directory.o)
                              /usr/local/xenon/usr/lib/libfat.a(libfat.o) (_FAT_directory_getVolumeLabel)
/usr/local/xenon/usr/lib/libfat.a(disc.o)
                              /usr/local/xenon/usr/lib/libfat.a(libfat.o) (_FAT_disc_interfaces)
/usr/local/xenon/usr/lib/libfat.a(fatdir.o)
                              /usr/local/xenon/usr/lib/libfat.a(libfat.o) (_FAT_stat_r)
/usr/local/xenon/usr/lib/libfat.a(fatfile.o)
                              /usr/local/xenon/usr/lib/libfat.a(libfat.o) (_FAT_open_r)
/usr/local/xenon/usr/lib/libfat.a(file_allocation_table.o)
                              /usr/local/xenon/usr/lib/libfat.a(directory.o) (_FAT_fat_nextCluster)
/usr/local/xenon/usr/lib/libfat.a(filetime.o)
                              /usr/local/xenon/usr/lib/libfat.a(fatdir.o) (_FAT_filetime_getTimeFromRTC)
/usr/local/xenon/usr/lib/libfat.a(lock.o)
                              /usr/local/xenon/usr/lib/libfat.a(partition.o) (_FAT_lock_init)
/usr/local/xenon/usr/lib/libext2fs.a(ext2.o)
                              mount.o (ext2Mount)
/usr/local/xenon/usr/lib/libext2fs.a(ext2_internal.o)
                              /usr/local/xenon/usr/lib/libext2fs.a(ext2.o) (ext2AddDevice)
/usr/local/xenon/usr/lib/libext2fs.a(freefs.o)
                              /usr/local/xenon/usr/lib/libext2fs.a(ext2.o) (ext2fs_free)
/usr/local/xenon/usr/lib/libext2fs.a(gekko_io.o)
                              /usr/local/xenon/usr/lib/libext2fs.a(ext2.o) (gekko_io_manager)
/usr/local/xenon/usr/lib/libext2fs.a(inode.o)
                              /usr/local/xenon/usr/lib/libext2fs.a(ext2_internal.o) (ext2fs_read_inode)
/usr/local/xenon/usr/lib/libext2fs.a(io_manager.o)
                              /usr/local/xenon/usr/lib/libext2fs.a(inode.o) (io_channel_read_blk64)
/usr/local/xenon/usr/lib/libext2fs.a(link.o)
                              /usr/local/xenon/usr/lib/libext2fs.a(ext2_internal.o) (ext2fs_link)
/usr/local/xenon/usr/lib/libext2fs.a(mkdir.o)
                              /usr/local/xenon/usr/lib/libext2fs.a(ext2_internal.o) (ext2fs_mkdir)
/usr/local/xenon/usr/lib/libext2fs.a(namei.o)
                              /usr/local/xenon/usr/lib/libext2fs.a(ext2_internal.o) (ext2fs_namei)
/usr/local/xenon/usr/lib/libext2fs.a(newdir.o)
                              /usr/local/xenon/usr/lib/libext2fs.a(mkdir.o) (ext2fs_new_dir_block)
/usr/local/xenon/usr/lib/libext2fs.a(openfs.o)
                              /usr/local/xenon/usr/lib/libext2fs.a(ext2.o) (ext2fs_open2)
/usr/local/xenon/usr/lib/libext2fs.a(punch.o)
                              /usr/local/xenon/usr/lib/libext2fs.a(ext2_internal.o) (ext2fs_punch)
/usr/local/xenon/usr/lib/libext2fs.a(read_bb.o)
                              /usr/local/xenon/usr/lib/libext2fs.a(inode.o) (ext2fs_read_bb_inode)
/usr/local/xenon/usr/lib/libext2fs.a(rw_bitmaps.o)
                              /usr/local/xenon/usr/lib/libext2fs.a(ext2_internal.o) (ext2fs_read_bitmaps)
/usr/local/xenon/usr/lib/libext2fs.a(swapfs.o)
                              /usr/local/xenon/usr/lib/libext2fs.a(openfs.o) (ext2fs_swap_super)
/usr/local/xenon/usr/lib/libext2fs.a(unlink.o)
                              /usr/local/xenon/usr/lib/libext2fs.a(ext2_internal.o) (ext2fs_unlink)
/usr/local/xenon/usr/lib/libext2fs.a(valid_blk.o)
                              /usr/local/xenon/usr/lib/libext2fs.a(ext2_internal.o) (ext2fs_inode_has_valid_blocks)
/usr/local/xenon/usr/lib/libext2fs.a(alloc.o)
                              /usr/local/xenon/usr/lib/libext2fs.a(ext2_internal.o) (ext2fs_new_inode)
/usr/local/xenon/usr/lib/libext2fs.a(alloc_stats.o)
                              /usr/local/xenon/usr/lib/libext2fs.a(ext2_internal.o) (ext2fs_inode_alloc_stats2)
/usr/local/xenon/usr/lib/libext2fs.a(badblocks.o)
                              /usr/local/xenon/usr/lib/libext2fs.a(read_bb.o) (ext2fs_badblocks_list_create)
/usr/local/xenon/usr/lib/libext2fs.a(bitmaps.o)
                              /usr/local/xenon/usr/lib/libext2fs.a(freefs.o) (ext2fs_free_inode_bitmap)
/usr/local/xenon/usr/lib/libext2fs.a(bitops.o)
                              /usr/local/xenon/usr/lib/libext2fs.a(rw_bitmaps.o) (ext2fs_set_bit)
/usr/local/xenon/usr/lib/libext2fs.a(blknum.o)
                              /usr/local/xenon/usr/lib/libext2fs.a(alloc_stats.o) (ext2fs_group_of_blk2)
/usr/local/xenon/usr/lib/libext2fs.a(block.o)
                              /usr/local/xenon/usr/lib/libext2fs.a(read_bb.o) (ext2fs_block_iterate2)
/usr/local/xenon/usr/lib/libext2fs.a(closefs.o)
                              /usr/local/xenon/usr/lib/libext2fs.a(openfs.o) (ext2fs_bg_has_super)
/usr/local/xenon/usr/lib/libext2fs.a(csum.o)
                              /usr/local/xenon/usr/lib/libext2fs.a(rw_bitmaps.o) (ext2fs_group_desc_csum_verify)
/usr/local/xenon/usr/lib/libext2fs.a(dirblock.o)
                              /usr/local/xenon/usr/lib/libext2fs.a(mkdir.o) (ext2fs_write_dir_block)
/usr/local/xenon/usr/lib/libext2fs.a(dir_iterate.o)
                              /usr/local/xenon/usr/lib/libext2fs.a(link.o) (ext2fs_get_rec_len)
/usr/local/xenon/usr/lib/libext2fs.a(disc_cache.o)
                              /usr/local/xenon/usr/lib/libext2fs.a(gekko_io.o) (cache_constructor)
/usr/local/xenon/usr/lib/libext2fs.a(expanddir.o)
                              /usr/local/xenon/usr/lib/libext2fs.a(ext2_internal.o) (ext2fs_expand_dir)
/usr/local/xenon/usr/lib/libext2fs.a(ext2dir.o)
                              /usr/local/xenon/usr/lib/libext2fs.a(ext2_internal.o) (ext2CloseDir)
/usr/local/xenon/usr/lib/libext2fs.a(ext2file.o)
                              /usr/local/xenon/usr/lib/libext2fs.a(ext2_internal.o) (ext2CloseFile)
/usr/local/xenon/usr/lib/libext2fs.a(extent.o)
                              /usr/local/xenon/usr/lib/libext2fs.a(swapfs.o) (ext2fs_extent_header_verify)
/usr/local/xenon/usr/lib/libext2fs.a(fileio.o)
                              /usr/local/xenon/usr/lib/libext2fs.a(ext2file.o) (ext2fs_file_open2)
/usr/local/xenon/usr/lib/libext2fs.a(gen_bitmap64.o)
                              /usr/local/xenon/usr/lib/libext2fs.a(bitmaps.o) (ext2fs_alloc_generic_bmap)
/usr/local/xenon/usr/lib/libext2fs.a(gen_bitmap.o)
                              /usr/local/xenon/usr/lib/libext2fs.a(gen_bitmap64.o) (ext2fs_warn_bitmap2)
/usr/local/xenon/usr/lib/libext2fs.a(i_block.o)
                              /usr/local/xenon/usr/lib/libext2fs.a(expanddir.o) (ext2fs_iblk_add_blocks)
/usr/local/xenon/usr/lib/libext2fs.a(ind_block.o)
                              /usr/local/xenon/usr/lib/libext2fs.a(punch.o) (ext2fs_read_ind_block)
/usr/local/xenon/usr/lib/libext2fs.a(inline.o)
                              /usr/local/xenon/usr/lib/libext2fs.a(inode.o) (ext2fs_get_memalign)
/usr/local/xenon/usr/lib/libext2fs.a(lookup.o)
                              /usr/local/xenon/usr/lib/libext2fs.a(mkdir.o) (ext2fs_lookup)
/usr/local/xenon/usr/lib/libext2fs.a(mmp.o)
                              /usr/local/xenon/usr/lib/libext2fs.a(openfs.o) (ext2fs_mmp_start)
/usr/local/xenon/usr/lib/libext2fs.a(progress.o)
                              /usr/local/xenon/usr/lib/libext2fs.a(closefs.o) (ext2fs_numeric_progress_init)
/usr/local/xenon/usr/lib/libext2fs.a(blkmap64_ba.o)
                              /usr/local/xenon/usr/lib/libext2fs.a(gen_bitmap64.o) (ext2fs_blkmap64_bitarray)
/usr/local/xenon/usr/lib/libext2fs.a(bmap.o)
                              /usr/local/xenon/usr/lib/libext2fs.a(fileio.o) (ext2fs_bmap2)
/usr/local/xenon/usr/lib/libext2fs.a(crc16.o)
                              /usr/local/xenon/usr/lib/libext2fs.a(csum.o) (ext2fs_crc16)
/usr/local/xenon/usr/lib/libext2fs.a(llseek.o)
                              /usr/local/xenon/usr/lib/libext2fs.a(mmp.o) (ext2fs_llseek)
/usr/local/xenon/usr/lib/libxtaf.a(xtaf.o)
                              mount.o (XTAFMount)
/usr/local/xenon/usr/lib/libxtaf.a(xtaf_partition.o)
                              /usr/local/xenon/usr/lib/libxtaf.a(xtaf.o) (xtaf_init)
/usr/local/xenon/usr/lib/libxtaf.a(xtaf_util.o)
                              /usr/local/xenon/usr/lib/libxtaf.a(xtaf_partition.o) (_XTAF_mem_allocate)
/usr/local/xenon/usr/lib/libxtaf.a(cache.o)
                              /usr/local/xenon/usr/lib/libxtaf.a(xtaf_partition.o) (_XTAF_cache_constructor)
/usr/local/xenon/usr/lib/libxtaf.a(xtaf_dir.o)
                              /usr/local/xenon/usr/lib/libxtaf.a(xtaf_partition.o) (xtaf_diropen_r)
/usr/local/xenon/usr/lib/libxtaf.a(xtaf_file.o)
                              /usr/local/xenon/usr/lib/libxtaf.a(xtaf_dir.o) (xtaf_build_time)
/usr/local/xenon/xenon/lib/32/libm.a(lib_a-s_ceil.o)
                              /usr/local/xenon/usr/lib/libext2fs.a(gekko_io.o) (ceil)
/usr/local/xenon/xenon/lib/32/libm.a(lib_a-s_floor.o)
                              /usr/local/xenon/usr/lib/libext2fs.a(gekko_io.o) (floor)
/usr/local/xenon/lib/gcc/xenon/4.7.1/32/libgcc.a(crtsavgpr.o)
                              kbootconf.o (_savegpr_14)
/usr/local/xenon/lib/gcc/xenon/4.7.1/32/libgcc.a(crtresxgpr.o)
                              kbootconf.o (_restgpr_14_x)
/usr/local/xenon/lib/gcc/xenon/4.7.1/32/libgcc.a(unwind-dw2-fde-dip.o)
                              /usr/local/xenon/lib/gcc/xenon/4.7.1/../../../../xenon/lib/../lib/crt1.o (__register_frame)
/usr/local/xenon/xenon/lib/32/libc.a(lib_a-assert.o)
                              /usr/local/xenon/usr/lib/libxenon.a(ata.o) (__assert_func)
/usr/local/xenon/xenon/lib/32/libc.a(lib_a-atoi.o)
                              kbootconf.o (atoi)
/usr/local/xenon/xenon/lib/32/libc.a(lib_a-calloc.o)
                              /usr/local/xenon/usr/lib/libext2fs.a(inline.o) (calloc)
/usr/local/xenon/xenon/lib/32/libc.a(lib_a-callocr.o)
                              /usr/local/xenon/xenon/lib/32/libc.a(lib_a-calloc.o) (_calloc_r)
/usr/local/xenon/xenon/lib/32/libc.a(lib_a-ctype_.o)
                              /usr/local/xenon/usr/lib/libxenon.a(iso9660.o) (__ctype_ptr__)
/usr/local/xenon/xenon/lib/32/libc.a(lib_a-errno.o)
                              /usr/local/xenon/usr/lib/libxenon.a(newlib.o) (__errno)
/usr/local/xenon/xenon/lib/32/libc.a(lib_a-exit.o)
                              /usr/local/xenon/lib/gcc/xenon/4.7.1/../../../../xenon/lib/../lib/crt1.o (exit)
/usr/local/xenon/xenon/lib/32/libc.a(lib_a-fclose.o)
                              file.o (fclose)
/usr/local/xenon/xenon/lib/32/libc.a(lib_a-fflush.o)
                              /usr/local/xenon/xenon/lib/32/libc.a(lib_a-fclose.o) (_fflush_r)
/usr/local/xenon/xenon/lib/32/libc.a(lib_a-findfp.o)
                              /usr/local/xenon/xenon/lib/32/libc.a(lib_a-fclose.o) (__sfp_lock_acquire)
/usr/local/xenon/xenon/lib/32/libc.a(lib_a-fiprintf.o)
                              /usr/local/xenon/xenon/lib/32/libc.a(lib_a-assert.o) (fiprintf)
/usr/local/xenon/xenon/lib/32/libc.a(lib_a-fopen.o)
                              file.o (fopen)
/usr/local/xenon/xenon/lib/32/libc.a(lib_a-fprintf.o)
                              /usr/local/xenon/usr/lib/libext2fs.a(progress.o) (fprintf)
/usr/local/xenon/xenon/lib/32/libc.a(lib_a-fputs.o)
                              /usr/local/xenon/usr/lib/libext2fs.a(progress.o) (fputs)
/usr/local/xenon/xenon/lib/32/libc.a(lib_a-fread.o)
                              file.o (fread)
/usr/local/xenon/xenon/lib/32/libc.a(lib_a-freer.o)
                              /usr/local/xenon/xenon/lib/32/libc.a(lib_a-fclose.o) (_free_r)
/usr/local/xenon/xenon/lib/32/libc.a(lib_a-fseek.o)
                              /usr/local/xenon/xenon/lib/32/libc.a(lib_a-fopen.o) (_fseek_r)
/usr/local/xenon/xenon/lib/32/libc.a(lib_a-fstatr.o)
                              /usr/local/xenon/xenon/lib/32/libc.a(lib_a-fseek.o) (_fstat_r)
/usr/local/xenon/xenon/lib/32/libc.a(lib_a-ftell.o)
                              /usr/local/xenon/usr/lib/libxenon.a(xb360.o) (ftell)
/usr/local/xenon/xenon/lib/32/libc.a(lib_a-fvwrite.o)
                              /usr/local/xenon/xenon/lib/32/libc.a(lib_a-fputs.o) (__sfvwrite_r)
/usr/local/xenon/xenon/lib/32/libc.a(lib_a-fwalk.o)
                              /usr/local/xenon/xenon/lib/32/libc.a(lib_a-findfp.o) (_fwalk)
/usr/local/xenon/xenon/lib/32/libc.a(lib_a-fwrite.o)
                              log.o (fwrite)
/usr/local/xenon/xenon/lib/32/libc.a(lib_a-getenv.o)
                              /usr/local/xenon/usr/lib/libext2fs.a(progress.o) (getenv)
/usr/local/xenon/xenon/lib/32/libc.a(lib_a-getenv_r.o)
                              /usr/local/xenon/xenon/lib/32/libc.a(lib_a-getenv.o) (_findenv_r)
/usr/local/xenon/xenon/lib/32/libc.a(lib_a-impure.o)
                              /usr/local/xenon/xenon/lib/32/libc.a(lib_a-exit.o) (_global_impure_ptr)
/usr/local/xenon/xenon/lib/32/libc.a(lib_a-lcltime_r.o)
                              /usr/local/xenon/usr/lib/libfat.a(filetime.o) (localtime_r)
/usr/local/xenon/xenon/lib/32/libc.a(lib_a-locale.o)
                              /usr/local/xenon/usr/lib/libfat.a(directory.o) (__locale_mb_cur_max)
/usr/local/xenon/xenon/lib/32/libc.a(lib_a-makebuf.o)
                              /usr/local/xenon/xenon/lib/32/libc.a(lib_a-fseek.o) (__smakebuf_r)
/usr/local/xenon/xenon/lib/32/libc.a(lib_a-malign.o)
                              /usr/local/xenon/usr/lib/libxenon.a(ata.o) (memalign)
/usr/local/xenon/xenon/lib/32/libc.a(lib_a-malignr.o)
                              /usr/local/xenon/xenon/lib/32/libc.a(lib_a-malign.o) (_memalign_r)
/usr/local/xenon/xenon/lib/32/libc.a(lib_a-malloc.o)
                              file.o (malloc)
/usr/local/xenon/xenon/lib/32/libc.a(lib_a-mallocr.o)
                              /usr/local/xenon/xenon/lib/32/libc.a(lib_a-freer.o) (__malloc_av_)
/usr/local/xenon/xenon/lib/32/libc.a(lib_a-mbrtowc.o)
                              /usr/local/xenon/usr/lib/libfat.a(directory.o) (mbrtowc)
/usr/local/xenon/xenon/lib/32/libc.a(lib_a-mbsrtowcs.o)
                              /usr/local/xenon/usr/lib/libfat.a(directory.o) (mbsrtowcs)
/usr/local/xenon/xenon/lib/32/libc.a(lib_a-mbtowc_r.o)
                              /usr/local/xenon/xenon/lib/32/libc.a(lib_a-mbrtowc.o) (__mbtowc)
/usr/local/xenon/xenon/lib/32/libc.a(lib_a-memchr.o)
                              /usr/local/xenon/usr/lib/libxenon.a(fdt_ro.o) (memchr)
/usr/local/xenon/xenon/lib/32/libc.a(lib_a-memcmp.o)
                              file.o (memcmp)
/usr/local/xenon/xenon/lib/32/libc.a(lib_a-memcpy.o)
                              file.o (memcpy)
/usr/local/xenon/xenon/lib/32/libc.a(lib_a-memmove.o)
                              /usr/local/xenon/usr/lib/libxenon.a(elf.o) (memmove)
/usr/local/xenon/xenon/lib/32/libc.a(lib_a-memset.o)
                              log.o (memset)
/usr/local/xenon/xenon/lib/32/libc.a(lib_a-mktime.o)
                              /usr/local/xenon/usr/lib/libfat.a(filetime.o) (mktime)
/usr/local/xenon/xenon/lib/32/libc.a(lib_a-mktm_r.o)
                              /usr/local/xenon/xenon/lib/32/libc.a(lib_a-mktime.o) (__tzcalc_limits)
/usr/local/xenon/xenon/lib/32/libc.a(lib_a-openr.o)
                              /usr/local/xenon/xenon/lib/32/libc.a(lib_a-fopen.o) (_open_r)
/usr/local/xenon/xenon/lib/32/libc.a(lib_a-printf.o)
                              file.o (printf)
/usr/local/xenon/xenon/lib/32/libc.a(lib_a-putchar.o)
                              /usr/local/xenon/usr/lib/libxenon.a(debug.o) (putchar)
/usr/local/xenon/xenon/lib/32/libc.a(lib_a-putc.o)
                              /usr/local/xenon/xenon/lib/32/libc.a(lib_a-putchar.o) (_putc_r)
/usr/local/xenon/xenon/lib/32/libc.a(lib_a-puts.o)
                              file.o (puts)
/usr/local/xenon/xenon/lib/32/libc.a(lib_a-rand.o)
                              /usr/local/xenon/usr/lib/libext2fs.a(mmp.o) (srand)
/usr/local/xenon/xenon/lib/32/libc.a(lib_a-realloc.o)
                              /usr/local/xenon/usr/lib/libext2fs.a(ext2.o) (realloc)
/usr/local/xenon/xenon/lib/32/libc.a(lib_a-reallocr.o)
                              /usr/local/xenon/xenon/lib/32/libc.a(lib_a-fvwrite.o) (_realloc_r)
/usr/local/xenon/xenon/lib/32/libc.a(lib_a-reent.o)
                              /usr/local/xenon/xenon/lib/32/libc.a(lib_a-fstatr.o) (errno)
/usr/local/xenon/xenon/lib/32/libc.a(lib_a-refill.o)
                              /usr/local/xenon/xenon/lib/32/libc.a(lib_a-fread.o) (__srefill_r)
/usr/local/xenon/xenon/lib/32/libc.a(lib_a-sbrkr.o)
                              /usr/local/xenon/xenon/lib/32/libc.a(lib_a-freer.o) (_sbrk_r)
/usr/local/xenon/xenon/lib/32/libc.a(lib_a-setbuf.o)
                              main.o (setbuf)
/usr/local/xenon/xenon/lib/32/libc.a(lib_a-setjmp.o)
                              puff.o (setjmp)
/usr/local/xenon/xenon/lib/32/libc.a(lib_a-setvbuf.o)
                              /usr/local/xenon/xenon/lib/32/libc.a(lib_a-setbuf.o) (setvbuf)
/usr/local/xenon/xenon/lib/32/libc.a(lib_a-snprintf.o)
                              tftp.o (snprintf)
/usr/local/xenon/xenon/lib/32/libc.a(lib_a-sprintf.o)
                              file.o (sprintf)
/usr/local/xenon/xenon/lib/32/libc.a(lib_a-stdio.o)
                              /usr/local/xenon/xenon/lib/32/libc.a(lib_a-findfp.o) (__sread)
/usr/local/xenon/xenon/lib/32/libc.a(lib_a-strcat.o)
                              /usr/local/xenon/usr/lib/libxenon.a(iso9660.o) (strcat)
/usr/local/xenon/xenon/lib/32/libc.a(lib_a-strchr.o)
                              tftp.o (strchr)
/usr/local/xenon/xenon/lib/32/libc.a(lib_a-strcmp.o)
                              tftp.o (strcmp)
/usr/local/xenon/xenon/lib/32/libc.a(lib_a-strcpy.o)
                              mount.o (strcpy)
/usr/local/xenon/xenon/lib/32/libc.a(lib_a-strdup.o)
                              /usr/local/xenon/usr/lib/libext2fs.a(ext2.o) (strdup)
/usr/local/xenon/xenon/lib/32/libc.a(lib_a-strdup_r.o)
                              /usr/local/xenon/xenon/lib/32/libc.a(lib_a-strdup.o) (_strdup_r)
/usr/local/xenon/xenon/lib/32/libc.a(lib_a-strlcat.o)
                              kbootconf.o (strlcat)
/usr/local/xenon/xenon/lib/32/libc.a(lib_a-strlcpy.o)
                              kbootconf.o (strlcpy)
/usr/local/xenon/xenon/lib/32/libc.a(lib_a-strlen.o)
                              mount.o (strlen)
/usr/local/xenon/xenon/lib/32/libc.a(lib_a-strncasecmp.o)
                              /usr/local/xenon/usr/lib/libxenon.a(iso9660.o) (strncasecmp)
/usr/local/xenon/xenon/lib/32/libc.a(lib_a-strncmp.o)
                              httpd.o (strncmp)
/usr/local/xenon/xenon/lib/32/libc.a(lib_a-strncpy.o)
                              /usr/local/xenon/usr/lib/libxenon.a(ata.o) (strncpy)
/usr/local/xenon/xenon/lib/32/libc.a(lib_a-strnlen.o)
                              /usr/local/xenon/usr/lib/libxenon.a(newlib.o) (strnlen)
/usr/local/xenon/xenon/lib/32/libc.a(lib_a-strpbrk.o)
                              /usr/local/xenon/usr/lib/libfat.a(directory.o) (strpbrk)
/usr/local/xenon/xenon/lib/32/libc.a(lib_a-strrchr.o)
                              kbootconf.o (strrchr)
/usr/local/xenon/xenon/lib/32/libc.a(lib_a-strtok.o)
                              /usr/local/xenon/usr/lib/libext2fs.a(ext2_internal.o) (strtok)
/usr/local/xenon/xenon/lib/32/libc.a(lib_a-strtok_r.o)
                              /usr/local/xenon/xenon/lib/32/libc.a(lib_a-strtok.o) (__strtok_r)
/usr/local/xenon/xenon/lib/32/libc.a(lib_a-strtol.o)
                              /usr/local/xenon/xenon/lib/32/libc.a(lib_a-atoi.o) (_strtol_r)
/usr/local/xenon/xenon/lib/32/libc.a(lib_a-strtoull.o)
                              /usr/local/xenon/usr/lib/libext2fs.a(gekko_io.o) (strtoull)
/usr/local/xenon/xenon/lib/32/libc.a(lib_a-strtoull_r.o)
                              /usr/local/xenon/xenon/lib/32/libc.a(lib_a-strtoull.o) (_strtoull_r)
/usr/local/xenon/xenon/lib/32/libc.a(lib_a-svfprintf.o)
                              /usr/local/xenon/xenon/lib/32/libc.a(lib_a-snprintf.o) (_svfprintf_r)
/usr/local/xenon/xenon/lib/32/libc.a(lib_a-system.o)
                              /usr/local/xenon/usr/lib/libxtaf.a(xtaf_util.o) (system)
/usr/local/xenon/xenon/lib/32/libc.a(lib_a-time.o)
                              /usr/local/xenon/usr/lib/libfat.a(filetime.o) (time)
/usr/local/xenon/xenon/lib/32/libc.a(lib_a-towlower.o)
                              /usr/local/xenon/usr/lib/libfat.a(directory.o) (towlower)
/usr/local/xenon/xenon/lib/32/libc.a(lib_a-towupper.o)
                              /usr/local/xenon/usr/lib/libfat.a(directory.o) (towupper)
/usr/local/xenon/xenon/lib/32/libc.a(lib_a-tzlock.o)
                              /usr/local/xenon/xenon/lib/32/libc.a(lib_a-mktime.o) (__tz_lock)
/usr/local/xenon/xenon/lib/32/libc.a(lib_a-tzvars.o)
                              /usr/local/xenon/xenon/lib/32/libc.a(lib_a-mktime.o) (_daylight)
/usr/local/xenon/xenon/lib/32/libc.a(lib_a-vfiprintf.o)
                              /usr/local/xenon/xenon/lib/32/libc.a(lib_a-fiprintf.o) (_vfiprintf_r)
/usr/local/xenon/xenon/lib/32/libc.a(lib_a-vfprintf.o)
                              /usr/local/xenon/xenon/lib/32/libc.a(lib_a-fprintf.o) (_vfprintf_r)
/usr/local/xenon/xenon/lib/32/libc.a(lib_a-vsprintf.o)
                              /usr/local/xenon/usr/lib/libxenon.a(xenon_smc.o) (vsprintf)
/usr/local/xenon/xenon/lib/32/libc.a(lib_a-wbuf.o)
                              /usr/local/xenon/xenon/lib/32/libc.a(lib_a-putc.o) (__swbuf_r)
/usr/local/xenon/xenon/lib/32/libc.a(lib_a-wcrtomb.o)
                              /usr/local/xenon/usr/lib/libfat.a(directory.o) (wcrtomb)
/usr/local/xenon/xenon/lib/32/libc.a(lib_a-wctob.o)
                              /usr/local/xenon/usr/lib/libfat.a(directory.o) (wctob)
/usr/local/xenon/xenon/lib/32/libc.a(lib_a-wctomb_r.o)
                              /usr/local/xenon/xenon/lib/32/libc.a(lib_a-wcrtomb.o) (__wctomb)
/usr/local/xenon/xenon/lib/32/libc.a(lib_a-writer.o)
                              /usr/local/xenon/xenon/lib/32/libc.a(lib_a-stdio.o) (_write_r)
/usr/local/xenon/xenon/lib/32/libc.a(lib_a-wsetup.o)
                              /usr/local/xenon/xenon/lib/32/libc.a(lib_a-fvwrite.o) (__swsetup_r)
/usr/local/xenon/xenon/lib/32/libc.a(lib_a-__call_atexit.o)
                              /usr/local/xenon/xenon/lib/32/libc.a(lib_a-exit.o) (__call_exitprocs)
/usr/local/xenon/xenon/lib/32/libc.a(lib_a-closer.o)
                              /usr/local/xenon/xenon/lib/32/libc.a(lib_a-stdio.o) (_close_r)
/usr/local/xenon/xenon/lib/32/libc.a(lib_a-div.o)
                              /usr/local/xenon/xenon/lib/32/libc.a(lib_a-mktime.o) (div)
/usr/local/xenon/xenon/lib/32/libc.a(lib_a-dtoa.o)
                              /usr/local/xenon/xenon/lib/32/libc.a(lib_a-svfprintf.o) (_dtoa_r)
/usr/local/xenon/xenon/lib/32/libc.a(lib_a-environ.o)
                              /usr/local/xenon/xenon/lib/32/libc.a(lib_a-getenv_r.o) (environ)
/usr/local/xenon/xenon/lib/32/libc.a(lib_a-envlock.o)
                              /usr/local/xenon/xenon/lib/32/libc.a(lib_a-getenv_r.o) (__env_lock)
/usr/local/xenon/xenon/lib/32/libc.a(lib_a-execr.o)
                              /usr/local/xenon/xenon/lib/32/libc.a(lib_a-system.o) (_fork_r)
/usr/local/xenon/xenon/lib/32/libc.a(lib_a-flags.o)
                              /usr/local/xenon/xenon/lib/32/libc.a(lib_a-fopen.o) (__sflags)
/usr/local/xenon/xenon/lib/32/libc.a(lib_a-fputwc.o)
                              /usr/local/xenon/xenon/lib/32/libc.a(lib_a-vfiprintf.o) (_fputwc_r)
/usr/local/xenon/xenon/lib/32/libc.a(lib_a-gettimeofdayr.o)
                              /usr/local/xenon/xenon/lib/32/libc.a(lib_a-time.o) (_gettimeofday_r)
/usr/local/xenon/xenon/lib/32/libc.a(lib_a-gettzinfo.o)
                              /usr/local/xenon/xenon/lib/32/libc.a(lib_a-mktime.o) (__gettzinfo)
/usr/local/xenon/xenon/lib/32/libc.a(lib_a-isattyr.o)
                              /usr/local/xenon/xenon/lib/32/libc.a(lib_a-makebuf.o) (_isatty_r)
/usr/local/xenon/xenon/lib/32/libc.a(lib_a-lseekr.o)
                              /usr/local/xenon/xenon/lib/32/libc.a(lib_a-stdio.o) (_lseek_r)
/usr/local/xenon/xenon/lib/32/libc.a(lib_a-mbsnrtowcs.o)
                              /usr/local/xenon/xenon/lib/32/libc.a(lib_a-mbsrtowcs.o) (_mbsnrtowcs_r)
/usr/local/xenon/xenon/lib/32/libc.a(lib_a-mprec.o)
                              /usr/local/xenon/xenon/lib/32/libc.a(lib_a-dtoa.o) (_Balloc)
/usr/local/xenon/xenon/lib/32/libc.a(lib_a-readr.o)
                              /usr/local/xenon/xenon/lib/32/libc.a(lib_a-stdio.o) (_read_r)
/usr/local/xenon/xenon/lib/32/libc.a(lib_a-s_fpclassify.o)
                              /usr/local/xenon/xenon/lib/32/libc.a(lib_a-svfprintf.o) (__fpclassifyd)
/usr/local/xenon/xenon/lib/32/libc.a(lib_a-svfiprintf.o)
                              /usr/local/xenon/xenon/lib/32/libc.a(lib_a-svfprintf.o) (__ssprint_r)
/usr/local/xenon/lib/gcc/xenon/4.7.1/32/libgcc.a(_udivdi3.o)
                              /usr/local/xenon/xenon/lib/32/libc.a(lib_a-strtoull_r.o) (__udivdi3)
/usr/local/xenon/lib/gcc/xenon/4.7.1/32/libgcc.a(_umoddi3.o)
                              /usr/local/xenon/xenon/lib/32/libc.a(lib_a-strtoull_r.o) (__umoddi3)

Allocating common symbols
Common symbol       size              file

current_iphdr_src   0x4               /usr/local/xenon/usr/lib/libxenon.a(ip.o)
netif               0x40              /usr/local/xenon/usr/lib/libxenon.a(network.o)
atapi               0x24              /usr/local/xenon/usr/lib/libxenon.a(ata.o)
netif_list          0x4               /usr/local/xenon/usr/lib/libxenon.a(netif.o)
kboot_tftp          0x4               kbootconf.o
cpukey              0x10              httpd_index.o
conf                0x628             kbootconf.o
FUSES               0x15e             main.o
RFdev               0x4               /usr/local/xenon/usr/lib/libxenon.a(usbctrl.o)
console_oldbg       0x4               /usr/local/xenon/usr/lib/libxenon.a(console.o)
tcp_active_pcbs     0x4               /usr/local/xenon/usr/lib/libxenon.a(tcp.o)
udp_pcbs            0x4               /usr/local/xenon/usr/lib/libxenon.a(udp.o)
errno               0x4               /usr/local/xenon/xenon/lib/32/libc.a(lib_a-reent.o)
current_netif       0x4               /usr/local/xenon/usr/lib/libxenon.a(ip.o)
console_oldfg       0x4               /usr/local/xenon/usr/lib/libxenon.a(console.o)
tcp_ticks           0x4               /usr/local/xenon/usr/lib/libxenon.a(tcp.o)
tcp_listen_pcbs     0x4               /usr/local/xenon/usr/lib/libxenon.a(tcp.o)
current_iphdr_dest  0x4               /usr/local/xenon/usr/lib/libxenon.a(ip.o)
cnt                 0x4               /usr/local/xenon/usr/lib/libxenon.a(enet.o)
ipaddr              0x4               /usr/local/xenon/usr/lib/libxenon.a(network.o)
boot_entry          0x4               kbootconf.o
heap_ptr            0x4               /usr/local/xenon/usr/lib/libxenon.a(xenon_syscalls.o)
oldnetmask          0x4               kbootconf.o
tcp_tmp_pcb         0x4               /usr/local/xenon/usr/lib/libxenon.a(tcp.o)
tcp_input_pcb       0x4               /usr/local/xenon/usr/lib/libxenon.a(tcp_in.o)
netmask             0x4               /usr/local/xenon/usr/lib/libxenon.a(network.o)
blockbuf            0x4               /usr/local/xenon/usr/lib/libxenon.a(xenon_sfcx.o)
oldipaddr           0x4               kbootconf.o
current_header      0x4               /usr/local/xenon/usr/lib/libxenon.a(ip.o)
ata                 0x24              /usr/local/xenon/usr/lib/libxenon.a(ata.o)
conf_buf            0x4000            kbootconf.o
dhcp_rx_options_given
                    0xa               /usr/local/xenon/usr/lib/libxenon.a(dhcp.o)
tcp_bound_pcbs      0x4               /usr/local/xenon/usr/lib/libxenon.a(tcp.o)
oldgateway          0x4               kbootconf.o
kmempool            0xc               /usr/local/xenon/usr/lib/libxenon.a(lib_malloc.o)
usb_buses           0x10              /usr/local/xenon/usr/lib/libxenon.a(usbmain.o)
gateway             0x4               /usr/local/xenon/usr/lib/libxenon.a(network.o)
listen_pcb          0x4               httpd.o
part                0xe10             mount.o
dvdkey              0x10              httpd_index.o
tcp_tw_pcbs         0x4               /usr/local/xenon/usr/lib/libxenon.a(tcp.o)
lwip_stats          0x158             /usr/local/xenon/usr/lib/libxenon.a(stats.o)
netif_default       0x4               /usr/local/xenon/usr/lib/libxenon.a(netif.o)
pagebuf             0x210             /usr/local/xenon/usr/lib/libxenon.a(xenon_config.o)
ehci_hcds           0x380             /usr/local/xenon/usr/lib/libxenon.a(tinyehci.o)
stacks              0x60000           main.o
dhcp_rx_options_val
                    0x28              /usr/local/xenon/usr/lib/libxenon.a(dhcp.o)
ram_heap            0x40001c          /usr/local/xenon/usr/lib/libxenon.a(mem.o)
device_list         0xa0              mount.o
IR                  0x4               kbootconf.o

Discarded input sections

 .text          0x0000000000000000        0x0 /usr/local/xenon/lib/gcc/xenon/4.7.1/../../../../xenon/lib/../lib/crt1.o
 .data          0x0000000000000000        0x0 /usr/local/xenon/lib/gcc/xenon/4.7.1/../../../../xenon/lib/../lib/crt1.o
 .bss           0x0000000000000000        0x0 /usr/local/xenon/lib/gcc/xenon/4.7.1/../../../../xenon/lib/../lib/crt1.o
 .text          0x0000000000000000        0x0 /usr/local/xenon/lib/gcc/xenon/4.7.1/../../../../xenon/lib/../lib/crti.o
 .data          0x0000000000000000        0x0 /usr/local/xenon/lib/gcc/xenon/4.7.1/../../../../xenon/lib/../lib/crti.o
 .bss           0x0000000000000000        0x0 /usr/local/xenon/lib/gcc/xenon/4.7.1/../../../../xenon/lib/../lib/crti.o
 .init          0x0000000000000000        0xc /usr/local/xenon/lib/gcc/xenon/4.7.1/../../../../xenon/lib/../lib/crti.o
 .fini          0x0000000000000000        0xc /usr/local/xenon/lib/gcc/xenon/4.7.1/../../../../xenon/lib/../lib/crti.o
 .text          0x0000000000000000      0x274 /usr/local/xenon/lib/gcc/xenon/4.7.1/32/crtbegin.o
 .data          0x0000000000000000        0x4 /usr/local/xenon/lib/gcc/xenon/4.7.1/32/crtbegin.o
 .bss           0x0000000000000000       0x20 /usr/local/xenon/lib/gcc/xenon/4.7.1/32/crtbegin.o
 .got2          0x0000000000000000       0x38 /usr/local/xenon/lib/gcc/xenon/4.7.1/32/crtbegin.o
 .ctors         0x0000000000000000        0x4 /usr/local/xenon/lib/gcc/xenon/4.7.1/32/crtbegin.o
 .dtors         0x0000000000000000        0x4 /usr/local/xenon/lib/gcc/xenon/4.7.1/32/crtbegin.o
 .jcr           0x0000000000000000        0x0 /usr/local/xenon/lib/gcc/xenon/4.7.1/32/crtbegin.o
 .tm_clone_table
                0x0000000000000000        0x0 /usr/local/xenon/lib/gcc/xenon/4.7.1/32/crtbegin.o
 .fini          0x0000000000000000        0x4 /usr/local/xenon/lib/gcc/xenon/4.7.1/32/crtbegin.o
 .init          0x0000000000000000        0x4 /usr/local/xenon/lib/gcc/xenon/4.7.1/32/crtbegin.o
 .text          0x0000000000000000        0x0 file.o
 .data          0x0000000000000000        0x0 file.o
 .bss           0x0000000000000000        0x0 file.o
 .sdata.cpiohdr
                0x0000000000000000        0x4 file.o
 .rodata.kboothdr
                0x0000000000000000        0xd file.o
 .text          0x0000000000000000        0x0 log.o
 .data          0x0000000000000000        0x0 log.o
 .bss           0x0000000000000000        0x0 log.o
 .text.LogWriteFile
                0x0000000000000000       0xc0 log.o
 .text          0x0000000000000000        0x0 main.o
 .data          0x0000000000000000        0x0 main.o
 .bss           0x0000000000000000        0x0 main.o
 .text          0x0000000000000000        0x0 mount.o
 .data          0x0000000000000000        0x0 mount.o
 .bss           0x0000000000000000        0x0 mount.o
 .text.findDevices
                0x0000000000000000       0xb4 mount.o
 .bss.device_list_size
                0x0000000000000000        0x4 mount.o
 .sbss.root_dev
                0x0000000000000000        0x4 mount.o
 .text          0x0000000000000000        0x0 tftp.o
 .data          0x0000000000000000        0x0 tftp.o
 .bss           0x0000000000000000        0x0 tftp.o
 .text.boot_tftp_url
                0x0000000000000000       0xb4 tftp.o
 .text          0x0000000000000000        0x0 httpd.o
 .data          0x0000000000000000        0x0 httpd.o
 .bss           0x0000000000000000        0x0 httpd.o
 .text          0x0000000000000000        0x0 httpd_flash.o
 .data          0x0000000000000000        0x0 httpd_flash.o
 .bss           0x0000000000000000        0x0 httpd_flash.o
 .text          0x0000000000000000        0x0 httpd_fuse.o
 .data          0x0000000000000000        0x0 httpd_fuse.o
 .bss           0x0000000000000000        0x0 httpd_fuse.o
 .text          0x0000000000000000        0x0 httpd_index.o
 .data          0x0000000000000000        0x0 httpd_index.o
 .bss           0x0000000000000000        0x0 httpd_index.o
 .text          0x0000000000000000        0x0 httpd_keyvault.o
 .data          0x0000000000000000        0x0 httpd_keyvault.o
 .bss           0x0000000000000000        0x0 httpd_keyvault.o
 .text          0x0000000000000000        0x0 kbootconf.o
 .data          0x0000000000000000        0x0 kbootconf.o
 .bss           0x0000000000000000        0x0 kbootconf.o
 .text          0x0000000000000000        0x0 puff.o
 .data          0x0000000000000000        0x0 puff.o
 .bss           0x0000000000000000        0x0 puff.o
 .text          0x0000000000000000        0x0 device_tree_include.o
 .bss           0x0000000000000000        0x0 device_tree_include.o
 .text          0x0000000000000000        0x0 /usr/local/xenon/usr/lib/libxenon.a(argv.o)
 .data          0x0000000000000000        0x0 /usr/local/xenon/usr/lib/libxenon.a(argv.o)
 .bss           0x0000000000000000        0x0 /usr/local/xenon/usr/lib/libxenon.a(argv.o)
 .data          0x0000000000000000        0x0 /usr/local/xenon/usr/lib/libxenon.a(startup_from_xell.o)
 .bss           0x0000000000000000        0x0 /usr/local/xenon/usr/lib/libxenon.a(startup_from_xell.o)
 .text          0x0000000000000000        0x0 /usr/local/xenon/usr/lib/libxenon.a(console.o)
 .data          0x0000000000000000        0x0 /usr/local/xenon/usr/lib/libxenon.a(console.o)
 .bss           0x0000000000000000        0x0 /usr/local/xenon/usr/lib/libxenon.a(console.o)
 .text.console_pset
                0x0000000000000000       0x18 /usr/local/xenon/usr/lib/libxenon.a(console.o)
 .text.console_get_dimensions
                0x0000000000000000       0x2c /usr/local/xenon/usr/lib/libxenon.a(console.o)
 .text.console_close
                0x0000000000000000       0x10 /usr/local/xenon/usr/lib/libxenon.a(console.o)
 .text          0x0000000000000000        0x0 /usr/local/xenon/usr/lib/libxenon.a(ata.o)
 .data          0x0000000000000000        0x0 /usr/local/xenon/usr/lib/libxenon.a(ata.o)
 .bss           0x0000000000000000        0x0 /usr/local/xenon/usr/lib/libxenon.a(ata.o)
 .text.xenon_atapi_set_modeb
                0x0000000000000000       0x84 /usr/local/xenon/usr/lib/libxenon.a(ata.o)
 .text.xenon_atapi_get_dvd_key_tsh943a
                0x0000000000000000       0xb0 /usr/local/xenon/usr/lib/libxenon.a(ata.o)
 .text.xenon_atapi_set_dvd_key
                0x0000000000000000      0x128 /usr/local/xenon/usr/lib/libxenon.a(ata.o)
 .text          0x0000000000000000        0x0 /usr/local/xenon/usr/lib/libxenon.a(iso9660.o)
 .data          0x0000000000000000        0x0 /usr/local/xenon/usr/lib/libxenon.a(iso9660.o)
 .bss           0x0000000000000000        0x0 /usr/local/xenon/usr/lib/libxenon.a(iso9660.o)
 .text.fs_iso9660_shutdown
                0x0000000000000000       0x8c /usr/local/xenon/usr/lib/libxenon.a(iso9660.o)
 .text.ISO9660_Unmount
                0x0000000000000000       0x54 /usr/local/xenon/usr/lib/libxenon.a(iso9660.o)
 .text          0x0000000000000000        0x0 /usr/local/xenon/usr/lib/libxenon.a(input.o)
 .data          0x0000000000000000        0x0 /usr/local/xenon/usr/lib/libxenon.a(input.o)
 .bss           0x0000000000000000        0x0 /usr/local/xenon/usr/lib/libxenon.a(input.o)
 .text.set_controller_rumble
                0x0000000000000000        0x4 /usr/local/xenon/usr/lib/libxenon.a(input.o)
 .text          0x0000000000000000        0x0 /usr/local/xenon/usr/lib/libxenon.a(newlib.o)
 .data          0x0000000000000000        0x0 /usr/local/xenon/usr/lib/libxenon.a(newlib.o)
 .bss           0x0000000000000000        0x0 /usr/local/xenon/usr/lib/libxenon.a(newlib.o)
 .text.__dirreset
                0x0000000000000000       0x4c /usr/local/xenon/usr/lib/libxenon.a(newlib.o)
 .text.__dirnext
                0x0000000000000000       0x58 /usr/local/xenon/usr/lib/libxenon.a(newlib.o)
 .text.__libc_lock_init
                0x0000000000000000       0x20 /usr/local/xenon/usr/lib/libxenon.a(newlib.o)
 .text.__libc_lock_close
                0x0000000000000000       0x20 /usr/local/xenon/usr/lib/libxenon.a(newlib.o)
 .text.__libc_lock_release
                0x0000000000000000       0x20 /usr/local/xenon/usr/lib/libxenon.a(newlib.o)
 .text.__libc_lock_acquire
                0x0000000000000000       0x20 /usr/local/xenon/usr/lib/libxenon.a(newlib.o)
 .text.dlopen   0x0000000000000000        0x8 /usr/local/xenon/usr/lib/libxenon.a(newlib.o)
 .text.dlsym    0x0000000000000000        0x8 /usr/local/xenon/usr/lib/libxenon.a(newlib.o)
 .text.dlclose  0x0000000000000000        0x8 /usr/local/xenon/usr/lib/libxenon.a(newlib.o)
 .text.dlerror  0x0000000000000000        0xc /usr/local/xenon/usr/lib/libxenon.a(newlib.o)
 .text.popen    0x0000000000000000        0x8 /usr/local/xenon/usr/lib/libxenon.a(newlib.o)
 .text.pclose   0x0000000000000000        0x8 /usr/local/xenon/usr/lib/libxenon.a(newlib.o)
 .text.execv    0x0000000000000000       0x18 /usr/local/xenon/usr/lib/libxenon.a(newlib.o)
 .text.execvp   0x0000000000000000       0x18 /usr/local/xenon/usr/lib/libxenon.a(newlib.o)
 .text.waitpid  0x0000000000000000        0x8 /usr/local/xenon/usr/lib/libxenon.a(newlib.o)
 .text.mkfifo   0x0000000000000000        0x8 /usr/local/xenon/usr/lib/libxenon.a(newlib.o)
 .text.lstat    0x0000000000000000        0x8 /usr/local/xenon/usr/lib/libxenon.a(newlib.o)
 .text.getrusage
                0x0000000000000000       0x18 /usr/local/xenon/usr/lib/libxenon.a(newlib.o)
 .text.kill     0x0000000000000000       0x18 /usr/local/xenon/usr/lib/libxenon.a(newlib.o)
 .text.gethostname
                0x0000000000000000       0x30 /usr/local/xenon/usr/lib/libxenon.a(newlib.o)
 .text.getuid   0x0000000000000000        0x8 /usr/local/xenon/usr/lib/libxenon.a(newlib.o)
 .text.geteuid  0x0000000000000000        0x8 /usr/local/xenon/usr/lib/libxenon.a(newlib.o)
 .text.getgid   0x0000000000000000        0x8 /usr/local/xenon/usr/lib/libxenon.a(newlib.o)
 .text.getegid  0x0000000000000000        0x8 /usr/local/xenon/usr/lib/libxenon.a(newlib.o)
 .text.setuid   0x0000000000000000       0x10 /usr/local/xenon/usr/lib/libxenon.a(newlib.o)
 .text.setgid   0x0000000000000000       0x10 /usr/local/xenon/usr/lib/libxenon.a(newlib.o)
 .text.getppid  0x0000000000000000        0x8 /usr/local/xenon/usr/lib/libxenon.a(newlib.o)
 .text.getpwuid
                0x0000000000000000       0x3c /usr/local/xenon/usr/lib/libxenon.a(newlib.o)
 .text.getpwnam
                0x0000000000000000       0x3c /usr/local/xenon/usr/lib/libxenon.a(newlib.o)
 .text.getgrnam
                0x0000000000000000       0x3c /usr/local/xenon/usr/lib/libxenon.a(newlib.o)
 .text.getgrgid
                0x0000000000000000       0x3c /usr/local/xenon/usr/lib/libxenon.a(newlib.o)
 .text.access   0x0000000000000000       0x50 /usr/local/xenon/usr/lib/libxenon.a(newlib.o)
 .text.statvfs  0x0000000000000000       0x8c /usr/local/xenon/usr/lib/libxenon.a(newlib.o)
 .text.fsync    0x0000000000000000       0x88 /usr/local/xenon/usr/lib/libxenon.a(newlib.o)
 .text.ftruncate
                0x0000000000000000       0x94 /usr/local/xenon/usr/lib/libxenon.a(newlib.o)
 .text.link     0x0000000000000000       0xa4 /usr/local/xenon/usr/lib/libxenon.a(newlib.o)
 .text.rename   0x0000000000000000       0xa4 /usr/local/xenon/usr/lib/libxenon.a(newlib.o)
 .text.unlink   0x0000000000000000       0x80 /usr/local/xenon/usr/lib/libxenon.a(newlib.o)
 .text.getcwd   0x0000000000000000       0x78 /usr/local/xenon/usr/lib/libxenon.a(newlib.o)
 .text.chmod    0x0000000000000000       0x8c /usr/local/xenon/usr/lib/libxenon.a(newlib.o)
 .text.fchmod   0x0000000000000000       0x88 /usr/local/xenon/usr/lib/libxenon.a(newlib.o)
 .text.opendir  0x0000000000000000      0x10c /usr/local/xenon/usr/lib/libxenon.a(newlib.o)
 .text.closedir
                0x0000000000000000       0xa8 /usr/local/xenon/usr/lib/libxenon.a(newlib.o)
 .text.readdir  0x0000000000000000      0x100 /usr/local/xenon/usr/lib/libxenon.a(newlib.o)
 .text.rewinddir
                0x0000000000000000       0x34 /usr/local/xenon/usr/lib/libxenon.a(newlib.o)
 .text.seekdir  0x0000000000000000       0x7c /usr/local/xenon/usr/lib/libxenon.a(newlib.o)
 .text.telldir  0x0000000000000000       0x18 /usr/local/xenon/usr/lib/libxenon.a(newlib.o)
 .text.fcntl    0x0000000000000000        0x8 /usr/local/xenon/usr/lib/libxenon.a(newlib.o)
 .text.mkdir    0x0000000000000000       0x84 /usr/local/xenon/usr/lib/libxenon.a(newlib.o)
 .text.bdev_enum
                0x0000000000000000       0x84 /usr/local/xenon/usr/lib/libxenon.a(newlib.o)
 .sdata.DIRECTORY_THIS
                0x0000000000000000        0x2 /usr/local/xenon/usr/lib/libxenon.a(newlib.o)
 .rodata.__FUNCTION__.4361
                0x0000000000000000        0x9 /usr/local/xenon/usr/lib/libxenon.a(newlib.o)
 .rodata.__FUNCTION__.4365
                0x0000000000000000        0x9 /usr/local/xenon/usr/lib/libxenon.a(newlib.o)
 .rodata.__FUNCTION__.4369
                0x0000000000000000        0x9 /usr/local/xenon/usr/lib/libxenon.a(newlib.o)
 .rodata.__FUNCTION__.4373
                0x0000000000000000        0x9 /usr/local/xenon/usr/lib/libxenon.a(newlib.o)
 .sdata.DIRECTORY_SEPARATOR
                0x0000000000000000        0x2 /usr/local/xenon/usr/lib/libxenon.a(newlib.o)
 .text          0x0000000000000000        0x0 /usr/local/xenon/usr/lib/libxenon.a(xenon_syscalls.o)
 .data          0x0000000000000000        0x0 /usr/local/xenon/usr/lib/libxenon.a(xenon_syscalls.o)
 .bss           0x0000000000000000        0x0 /usr/local/xenon/usr/lib/libxenon.a(xenon_syscalls.o)
 .data          0x0000000000000000        0x0 /usr/local/xenon/usr/lib/libxenon.a(atomic.o)
 .bss           0x0000000000000000        0x0 /usr/local/xenon/usr/lib/libxenon.a(atomic.o)
 .data          0x0000000000000000        0x0 /usr/local/xenon/usr/lib/libxenon.a(cache.o)
 .bss           0x0000000000000000        0x0 /usr/local/xenon/usr/lib/libxenon.a(cache.o)
 .text          0x0000000000000000        0x0 /usr/local/xenon/usr/lib/libxenon.a(except.o)
 .data          0x0000000000000000        0x0 /usr/local/xenon/usr/lib/libxenon.a(except.o)
 .bss           0x0000000000000000        0x0 /usr/local/xenon/usr/lib/libxenon.a(except.o)
 .text          0x0000000000000000        0x0 /usr/local/xenon/usr/lib/libxenon.a(c_except.o)
 .data          0x0000000000000000        0x0 /usr/local/xenon/usr/lib/libxenon.a(c_except.o)
 .bss           0x0000000000000000        0x0 /usr/local/xenon/usr/lib/libxenon.a(c_except.o)
 .text          0x0000000000000000        0x0 /usr/local/xenon/usr/lib/libxenon.a(vm.o)
 .data          0x0000000000000000        0x0 /usr/local/xenon/usr/lib/libxenon.a(vm.o)
 .bss           0x0000000000000000        0x0 /usr/local/xenon/usr/lib/libxenon.a(vm.o)
 .text.vm_common_check_get_idx
                0x0000000000000000       0xac /usr/local/xenon/usr/lib/libxenon.a(vm.o)
 .text.vm_create_user_mapping
                0x0000000000000000       0xb4 /usr/local/xenon/usr/lib/libxenon.a(vm.o)
 .text.vm_destroy_user_mapping
                0x0000000000000000       0x70 /usr/local/xenon/usr/lib/libxenon.a(vm.o)
 .text.vm_set_user_mapping_flags
                0x0000000000000000       0x84 /usr/local/xenon/usr/lib/libxenon.a(vm.o)
 .text.vm_set_user_mapping_segfault_handler
                0x0000000000000000        0xc /usr/local/xenon/usr/lib/libxenon.a(vm.o)
 .rodata.__FUNCTION__.3189
                0x0000000000000000       0x18 /usr/local/xenon/usr/lib/libxenon.a(vm.o)
 .rodata.__FUNCTION__.3196
                0x0000000000000000       0x17 /usr/local/xenon/usr/lib/libxenon.a(vm.o)
 .rodata.str1.1
                0x0000000000000000       0x9d /usr/local/xenon/usr/lib/libxenon.a(vm.o)
 .text          0x0000000000000000        0x0 /usr/local/xenon/usr/lib/libxenon.a(time.o)
 .data          0x0000000000000000        0x0 /usr/local/xenon/usr/lib/libxenon.a(time.o)
 .bss           0x0000000000000000        0x0 /usr/local/xenon/usr/lib/libxenon.a(time.o)
 .text          0x0000000000000000        0x0 /usr/local/xenon/usr/lib/libxenon.a(usbctrl.o)
 .data          0x0000000000000000        0x0 /usr/local/xenon/usr/lib/libxenon.a(usbctrl.o)
 .bss           0x0000000000000000        0x0 /usr/local/xenon/usr/lib/libxenon.a(usbctrl.o)
 .text.usbctrl_set_rumble
                0x0000000000000000      0x12c /usr/local/xenon/usr/lib/libxenon.a(usbctrl.o)
 .text          0x0000000000000000        0x0 /usr/local/xenon/usr/lib/libxenon.a(usbd.o)
 .data          0x0000000000000000        0x0 /usr/local/xenon/usr/lib/libxenon.a(usbd.o)
 .bss           0x0000000000000000        0x0 /usr/local/xenon/usr/lib/libxenon.a(usbd.o)
 .text.usb_destroy_pipe
                0x0000000000000000       0x6c /usr/local/xenon/usr/lib/libxenon.a(usbd.o)
 .text.usb_cancel_request
                0x0000000000000000       0x2c /usr/local/xenon/usr/lib/libxenon.a(usbd.o)
 .text.usb_make_sync_request
                0x0000000000000000       0x38 /usr/local/xenon/usr/lib/libxenon.a(usbd.o)
 .text          0x0000000000000000        0x0 /usr/local/xenon/usr/lib/libxenon.a(usbdevs.o)
 .data          0x0000000000000000        0x0 /usr/local/xenon/usr/lib/libxenon.a(usbdevs.o)
 .bss           0x0000000000000000        0x0 /usr/local/xenon/usr/lib/libxenon.a(usbdevs.o)
 .text          0x0000000000000000        0x0 /usr/local/xenon/usr/lib/libxenon.a(usbhid.o)
 .data          0x0000000000000000        0x0 /usr/local/xenon/usr/lib/libxenon.a(usbhid.o)
 .bss           0x0000000000000000        0x0 /usr/local/xenon/usr/lib/libxenon.a(usbhid.o)
 .text          0x0000000000000000        0x0 /usr/local/xenon/usr/lib/libxenon.a(usbhub.o)
 .data          0x0000000000000000        0x0 /usr/local/xenon/usr/lib/libxenon.a(usbhub.o)
 .bss           0x0000000000000000        0x0 /usr/local/xenon/usr/lib/libxenon.a(usbhub.o)
 .text.usbhub_dumpbus1
                0x0000000000000000       0x8c /usr/local/xenon/usr/lib/libxenon.a(usbhub.o)
 .text.usbhub_dumpbus
                0x0000000000000000       0x30 /usr/local/xenon/usr/lib/libxenon.a(usbhub.o)
 .text          0x0000000000000000        0x0 /usr/local/xenon/usr/lib/libxenon.a(usbmain.o)
 .data          0x0000000000000000        0x0 /usr/local/xenon/usr/lib/libxenon.a(usbmain.o)
 .bss           0x0000000000000000        0x0 /usr/local/xenon/usr/lib/libxenon.a(usbmain.o)
 .text          0x0000000000000000        0x0 /usr/local/xenon/usr/lib/libxenon.a(tinyehci.o)
 .data          0x0000000000000000        0x0 /usr/local/xenon/usr/lib/libxenon.a(tinyehci.o)
 .bss           0x0000000000000000        0x0 /usr/local/xenon/usr/lib/libxenon.a(tinyehci.o)
 .text.debug_qtds
                0x0000000000000000       0x4c /usr/local/xenon/usr/lib/libxenon.a(tinyehci.o)
 .text.dump_qh  0x0000000000000000       0x4c /usr/local/xenon/usr/lib/libxenon.a(tinyehci.o)
 .text.ehci_release_ports
                0x0000000000000000       0xb0 /usr/local/xenon/usr/lib/libxenon.a(tinyehci.o)
 .text.ehci_open_device
                0x0000000000000000       0x80 /usr/local/xenon/usr/lib/libxenon.a(tinyehci.o)
 .text.ehci_close_device
                0x0000000000000000       0x18 /usr/local/xenon/usr/lib/libxenon.a(tinyehci.o)
 .text.ehci_fd_to_dev
                0x0000000000000000       0x40 /usr/local/xenon/usr/lib/libxenon.a(tinyehci.o)
 .text.ehci_get_device_list
                0x0000000000000000       0x88 /usr/local/xenon/usr/lib/libxenon.a(tinyehci.o)
 .text.USB_WriteBlkMsg
                0x0000000000000000        0x4 /usr/local/xenon/usr/lib/libxenon.a(tinyehci.o)
 .text.USB_WriteCtrlMsg
                0x0000000000000000        0x4 /usr/local/xenon/usr/lib/libxenon.a(tinyehci.o)
 .text.my_memcmp
                0x0000000000000000       0x48 /usr/local/xenon/usr/lib/libxenon.a(tinyehci.o)
 .text.USBStorage_GetMaxLUN
                0x0000000000000000        0x8 /usr/local/xenon/usr/lib/libxenon.a(tinyehci.o)
 .text.USBStorage_Reset
                0x0000000000000000        0x4 /usr/local/xenon/usr/lib/libxenon.a(tinyehci.o)
 .text          0x0000000000000000        0x0 /usr/local/xenon/usr/lib/libxenon.a(debug.o)
 .data          0x0000000000000000        0x0 /usr/local/xenon/usr/lib/libxenon.a(debug.o)
 .bss           0x0000000000000000        0x0 /usr/local/xenon/usr/lib/libxenon.a(debug.o)
 .text.seems_valid
                0x0000000000000000       0x28 /usr/local/xenon/usr/lib/libxenon.a(debug.o)
 .text.buffer_dump
                0x0000000000000000       0x8c /usr/local/xenon/usr/lib/libxenon.a(debug.o)
 .text.stack_trace
                0x0000000000000000      0x57c /usr/local/xenon/usr/lib/libxenon.a(debug.o)
 .rodata.str1.1
                0x0000000000000000       0x38 /usr/local/xenon/usr/lib/libxenon.a(debug.o)
 .text          0x0000000000000000        0x0 /usr/local/xenon/usr/lib/libxenon.a(xenon_smc.o)
 .data          0x0000000000000000        0x0 /usr/local/xenon/usr/lib/libxenon.a(xenon_smc.o)
 .bss           0x0000000000000000        0x0 /usr/local/xenon/usr/lib/libxenon.a(xenon_smc.o)
 .text.xenon_smc_set_led
                0x0000000000000000       0x40 /usr/local/xenon/usr/lib/libxenon.a(xenon_smc.o)
 .text.xenon_smc_set_power_led
                0x0000000000000000       0x5c /usr/local/xenon/usr/lib/libxenon.a(xenon_smc.o)
 .text.xenon_smc_query_sensors
                0x0000000000000000       0x74 /usr/local/xenon/usr/lib/libxenon.a(xenon_smc.o)
 .text          0x0000000000000000        0x0 /usr/local/xenon/usr/lib/libxenon.a(xenon_power.o)
 .data          0x0000000000000000        0x0 /usr/local/xenon/usr/lib/libxenon.a(xenon_power.o)
 .bss           0x0000000000000000        0x0 /usr/local/xenon/usr/lib/libxenon.a(xenon_power.o)
 .text.xenon_yield
                0x0000000000000000        0x4 /usr/local/xenon/usr/lib/libxenon.a(xenon_power.o)
 .text.xenon_get_speed
                0x0000000000000000       0x14 /usr/local/xenon/usr/lib/libxenon.a(xenon_power.o)
 .text.xenon_sleep_thread
                0x0000000000000000       0x20 /usr/local/xenon/usr/lib/libxenon.a(xenon_power.o)
 .text          0x0000000000000000        0x0 /usr/local/xenon/usr/lib/libxenon.a(xenon_secotp.o)
 .data          0x0000000000000000        0x0 /usr/local/xenon/usr/lib/libxenon.a(xenon_secotp.o)
 .bss           0x0000000000000000        0x0 /usr/local/xenon/usr/lib/libxenon.a(xenon_secotp.o)
 .text          0x0000000000000000        0x0 /usr/local/xenon/usr/lib/libxenon.a(sound.o)
 .data          0x0000000000000000        0x0 /usr/local/xenon/usr/lib/libxenon.a(sound.o)
 .bss           0x0000000000000000        0x0 /usr/local/xenon/usr/lib/libxenon.a(sound.o)
 .text.xenon_sound_submit
                0x0000000000000000      0x120 /usr/local/xenon/usr/lib/libxenon.a(sound.o)
 .text.xenon_sound_get_free
                0x0000000000000000       0x70 /usr/local/xenon/usr/lib/libxenon.a(sound.o)
 .text.xenon_sound_get_unplayed
                0x0000000000000000       0x58 /usr/local/xenon/usr/lib/libxenon.a(sound.o)
 .text          0x0000000000000000        0x0 /usr/local/xenon/usr/lib/libxenon.a(xenon_uart.o)
 .data          0x0000000000000000        0x0 /usr/local/xenon/usr/lib/libxenon.a(xenon_uart.o)
 .bss           0x0000000000000000        0x0 /usr/local/xenon/usr/lib/libxenon.a(xenon_uart.o)
 .text          0x0000000000000000        0x0 /usr/local/xenon/usr/lib/libxenon.a(xenon_sfcx.o)
 .data          0x0000000000000000        0x0 /usr/local/xenon/usr/lib/libxenon.a(xenon_sfcx.o)
 .bss           0x0000000000000000        0x0 /usr/local/xenon/usr/lib/libxenon.a(xenon_sfcx.o)
 .text.sfcx_writereg
                0x0000000000000000       0x10 /usr/local/xenon/usr/lib/libxenon.a(xenon_sfcx.o)
 .text.sfcx_get_blocknumber
                0x0000000000000000       0x64 /usr/local/xenon/usr/lib/libxenon.a(xenon_sfcx.o)
 .text.sfcx_set_blocknumber
                0x0000000000000000       0x60 /usr/local/xenon/usr/lib/libxenon.a(xenon_sfcx.o)
 .text.sfcx_get_blockversion
                0x0000000000000000       0xac /usr/local/xenon/usr/lib/libxenon.a(xenon_sfcx.o)
 .text.sfcx_set_blockversion
                0x0000000000000000       0x80 /usr/local/xenon/usr/lib/libxenon.a(xenon_sfcx.o)
 .text.sfcx_set_pagevalid
                0x0000000000000000       0x48 /usr/local/xenon/usr/lib/libxenon.a(xenon_sfcx.o)
 .text.sfcx_set_pageinvalid
                0x0000000000000000       0x58 /usr/local/xenon/usr/lib/libxenon.a(xenon_sfcx.o)
 .text.sfcx_is_pagezeroed
                0x0000000000000000       0x4c /usr/local/xenon/usr/lib/libxenon.a(xenon_sfcx.o)
 .text.sfcx_block_to_address
                0x0000000000000000       0x10 /usr/local/xenon/usr/lib/libxenon.a(xenon_sfcx.o)
 .text.sfcx_address_to_block
                0x0000000000000000       0x10 /usr/local/xenon/usr/lib/libxenon.a(xenon_sfcx.o)
 .text.sfcx_block_to_rawaddress
                0x0000000000000000       0x10 /usr/local/xenon/usr/lib/libxenon.a(xenon_sfcx.o)
 .text.sfcx_rawaddress_to_block
                0x0000000000000000       0x10 /usr/local/xenon/usr/lib/libxenon.a(xenon_sfcx.o)
 .text          0x0000000000000000        0x0 /usr/local/xenon/usr/lib/libxenon.a(xenon_config.o)
 .data          0x0000000000000000        0x0 /usr/local/xenon/usr/lib/libxenon.a(xenon_config.o)
 .bss           0x0000000000000000        0x0 /usr/local/xenon/usr/lib/libxenon.a(xenon_config.o)
 COMMON         0x0000000000000000      0x210 /usr/local/xenon/usr/lib/libxenon.a(xenon_config.o)
 .text          0x0000000000000000        0x0 /usr/local/xenon/usr/lib/libxenon.a(xenos.o)
 .data          0x0000000000000000        0x0 /usr/local/xenon/usr/lib/libxenon.a(xenos.o)
 .bss           0x0000000000000000        0x0 /usr/local/xenon/usr/lib/libxenon.a(xenos.o)
 .text          0x0000000000000000        0x0 /usr/local/xenon/usr/lib/libxenon.a(xenos_edid.o)
 .data          0x0000000000000000        0x0 /usr/local/xenon/usr/lib/libxenon.a(xenos_edid.o)
 .bss           0x0000000000000000        0x0 /usr/local/xenon/usr/lib/libxenon.a(xenos_edid.o)
 .text          0x0000000000000000        0x0 /usr/local/xenon/usr/lib/libxenon.a(mem.o)
 .data          0x0000000000000000        0x0 /usr/local/xenon/usr/lib/libxenon.a(mem.o)
 .bss           0x0000000000000000        0x0 /usr/local/xenon/usr/lib/libxenon.a(mem.o)
 .text.mem_calloc
                0x0000000000000000       0x40 /usr/local/xenon/usr/lib/libxenon.a(mem.o)
 .text          0x0000000000000000        0x0 /usr/local/xenon/usr/lib/libxenon.a(netif.o)
 .data          0x0000000000000000        0x0 /usr/local/xenon/usr/lib/libxenon.a(netif.o)
 .bss           0x0000000000000000        0x0 /usr/local/xenon/usr/lib/libxenon.a(netif.o)
 .text.netif_find
                0x0000000000000000       0x64 /usr/local/xenon/usr/lib/libxenon.a(netif.o)
 .text.netif_remove
                0x0000000000000000       0x94 /usr/local/xenon/usr/lib/libxenon.a(netif.o)
 .text.netif_set_status_callback
                0x0000000000000000       0x10 /usr/local/xenon/usr/lib/libxenon.a(netif.o)
 .text.netif_set_link_up
                0x0000000000000000       0x8c /usr/local/xenon/usr/lib/libxenon.a(netif.o)
 .text.netif_set_link_down
                0x0000000000000000       0x30 /usr/local/xenon/usr/lib/libxenon.a(netif.o)
 .text.netif_set_link_callback
                0x0000000000000000       0x10 /usr/local/xenon/usr/lib/libxenon.a(netif.o)
 .text          0x0000000000000000        0x0 /usr/local/xenon/usr/lib/libxenon.a(pbuf.o)
 .data          0x0000000000000000        0x0 /usr/local/xenon/usr/lib/libxenon.a(pbuf.o)
 .bss           0x0000000000000000        0x0 /usr/local/xenon/usr/lib/libxenon.a(pbuf.o)
 .text.pbuf_dechain
                0x0000000000000000       0xc0 /usr/local/xenon/usr/lib/libxenon.a(pbuf.o)
 .text.pbuf_take
                0x0000000000000000      0x130 /usr/local/xenon/usr/lib/libxenon.a(pbuf.o)
 .text.pbuf_coalesce
                0x0000000000000000       0x84 /usr/local/xenon/usr/lib/libxenon.a(pbuf.o)
 .text.pbuf_get_at
                0x0000000000000000       0x38 /usr/local/xenon/usr/lib/libxenon.a(pbuf.o)
 .text.pbuf_memcmp
                0x0000000000000000       0xac /usr/local/xenon/usr/lib/libxenon.a(pbuf.o)
 .text.pbuf_memfind
                0x0000000000000000       0x80 /usr/local/xenon/usr/lib/libxenon.a(pbuf.o)
 .text.pbuf_strstr
                0x0000000000000000       0x94 /usr/local/xenon/usr/lib/libxenon.a(pbuf.o)
 .text          0x0000000000000000        0x0 /usr/local/xenon/usr/lib/libxenon.a(stats.o)
 .data          0x0000000000000000        0x0 /usr/local/xenon/usr/lib/libxenon.a(stats.o)
 .bss           0x0000000000000000        0x0 /usr/local/xenon/usr/lib/libxenon.a(stats.o)
 .text          0x0000000000000000        0x0 /usr/local/xenon/usr/lib/libxenon.a(tcp.o)
 .data          0x0000000000000000        0x0 /usr/local/xenon/usr/lib/libxenon.a(tcp.o)
 .bss           0x0000000000000000        0x0 /usr/local/xenon/usr/lib/libxenon.a(tcp.o)
 .text.tcp_shutdown
                0x0000000000000000       0xb0 /usr/local/xenon/usr/lib/libxenon.a(tcp.o)
 .text.tcp_connect
                0x0000000000000000      0x1ac /usr/local/xenon/usr/lib/libxenon.a(tcp.o)
 .text.tcp_debug_state_str
                0x0000000000000000       0x14 /usr/local/xenon/usr/lib/libxenon.a(tcp.o)
 .rodata.tcp_state_str
                0x0000000000000000       0x2c /usr/local/xenon/usr/lib/libxenon.a(tcp.o)
 .text          0x0000000000000000        0x0 /usr/local/xenon/usr/lib/libxenon.a(ip_addr.o)
 .data          0x0000000000000000        0x0 /usr/local/xenon/usr/lib/libxenon.a(ip_addr.o)
 .bss           0x0000000000000000        0x0 /usr/local/xenon/usr/lib/libxenon.a(ip_addr.o)
 .text.ip4_addr_netmask_valid
                0x0000000000000000       0x50 /usr/local/xenon/usr/lib/libxenon.a(ip_addr.o)
 .text          0x0000000000000000        0x0 /usr/local/xenon/usr/lib/libxenon.a(ip.o)
 .data          0x0000000000000000        0x0 /usr/local/xenon/usr/lib/libxenon.a(ip.o)
 .bss           0x0000000000000000        0x0 /usr/local/xenon/usr/lib/libxenon.a(ip.o)
 .text          0x0000000000000000        0x0 /usr/local/xenon/usr/lib/libxenon.a(ip_frag.o)
 .data          0x0000000000000000        0x0 /usr/local/xenon/usr/lib/libxenon.a(ip_frag.o)
 .bss           0x0000000000000000        0x0 /usr/local/xenon/usr/lib/libxenon.a(ip_frag.o)
 .text.ip_reass_tmr
                0x0000000000000000       0x60 /usr/local/xenon/usr/lib/libxenon.a(ip_frag.o)
 .text          0x0000000000000000        0x0 /usr/local/xenon/usr/lib/libxenon.a(tcp_out.o)
 .data          0x0000000000000000        0x0 /usr/local/xenon/usr/lib/libxenon.a(tcp_out.o)
 .bss           0x0000000000000000        0x0 /usr/local/xenon/usr/lib/libxenon.a(tcp_out.o)
 .text          0x0000000000000000        0x0 /usr/local/xenon/usr/lib/libxenon.a(udp.o)
 .data          0x0000000000000000        0x0 /usr/local/xenon/usr/lib/libxenon.a(udp.o)
 .bss           0x0000000000000000        0x0 /usr/local/xenon/usr/lib/libxenon.a(udp.o)
 .text.udp_send
                0x0000000000000000        0xc /usr/local/xenon/usr/lib/libxenon.a(udp.o)
 .text.udp_disconnect
                0x0000000000000000       0x1c /usr/local/xenon/usr/lib/libxenon.a(udp.o)
 .text          0x0000000000000000        0x0 /usr/local/xenon/usr/lib/libxenon.a(etharp.o)
 .data          0x0000000000000000        0x0 /usr/local/xenon/usr/lib/libxenon.a(etharp.o)
 .bss           0x0000000000000000        0x0 /usr/local/xenon/usr/lib/libxenon.a(etharp.o)
 .text.etharp_tmr
                0x0000000000000000       0x8c /usr/local/xenon/usr/lib/libxenon.a(etharp.o)
 .text.etharp_find_addr
                0x0000000000000000       0x98 /usr/local/xenon/usr/lib/libxenon.a(etharp.o)
 .text.ethernet_input
                0x0000000000000000      0x100 /usr/local/xenon/usr/lib/libxenon.a(etharp.o)
 .text          0x0000000000000000        0x0 /usr/local/xenon/usr/lib/libxenon.a(dhcp.o)
 .data          0x0000000000000000        0x0 /usr/local/xenon/usr/lib/libxenon.a(dhcp.o)
 .bss           0x0000000000000000        0x0 /usr/local/xenon/usr/lib/libxenon.a(dhcp.o)
 .text.dhcp_set_struct
                0x0000000000000000       0xb0 /usr/local/xenon/usr/lib/libxenon.a(dhcp.o)
 .text.dhcp_cleanup
                0x0000000000000000       0x5c /usr/local/xenon/usr/lib/libxenon.a(dhcp.o)
 .text.dhcp_inform
                0x0000000000000000      0x128 /usr/local/xenon/usr/lib/libxenon.a(dhcp.o)
 .text.dhcp_network_changed
                0x0000000000000000       0xa4 /usr/local/xenon/usr/lib/libxenon.a(dhcp.o)
 .text          0x0000000000000000        0x0 /usr/local/xenon/usr/lib/libxenon.a(raw.o)
 .data          0x0000000000000000        0x0 /usr/local/xenon/usr/lib/libxenon.a(raw.o)
 .bss           0x0000000000000000        0x0 /usr/local/xenon/usr/lib/libxenon.a(raw.o)
 .text.raw_bind
                0x0000000000000000       0x20 /usr/local/xenon/usr/lib/libxenon.a(raw.o)
 .text.raw_connect
                0x0000000000000000       0x20 /usr/local/xenon/usr/lib/libxenon.a(raw.o)
 .text.raw_recv
                0x0000000000000000        0xc /usr/local/xenon/usr/lib/libxenon.a(raw.o)
 .text.raw_sendto
                0x0000000000000000      0x110 /usr/local/xenon/usr/lib/libxenon.a(raw.o)
 .text.raw_send
                0x0000000000000000        0x8 /usr/local/xenon/usr/lib/libxenon.a(raw.o)
 .text.raw_remove
                0x0000000000000000       0x50 /usr/local/xenon/usr/lib/libxenon.a(raw.o)
 .text.raw_new  0x0000000000000000       0x5c /usr/local/xenon/usr/lib/libxenon.a(raw.o)
 .rodata.str1.1
                0x0000000000000000       0x2e /usr/local/xenon/usr/lib/libxenon.a(raw.o)
 .text          0x0000000000000000        0x0 /usr/local/xenon/usr/lib/libxenon.a(timers.o)
 .data          0x0000000000000000        0x0 /usr/local/xenon/usr/lib/libxenon.a(timers.o)
 .bss           0x0000000000000000        0x0 /usr/local/xenon/usr/lib/libxenon.a(timers.o)
 .text          0x0000000000000000        0x0 /usr/local/xenon/usr/lib/libxenon.a(enet.o)
 .data          0x0000000000000000        0x0 /usr/local/xenon/usr/lib/libxenon.a(enet.o)
 .bss           0x0000000000000000        0x0 /usr/local/xenon/usr/lib/libxenon.a(enet.o)
 .sbss          0x0000000000000000        0x4 /usr/local/xenon/usr/lib/libxenon.a(enet.o)
 .text          0x0000000000000000        0x0 /usr/local/xenon/usr/lib/libxenon.a(network.o)
 .data          0x0000000000000000        0x0 /usr/local/xenon/usr/lib/libxenon.a(network.o)
 .bss           0x0000000000000000        0x0 /usr/local/xenon/usr/lib/libxenon.a(network.o)
 .text          0x0000000000000000        0x0 /usr/local/xenon/usr/lib/libxenon.a(elf.o)
 .data          0x0000000000000000        0x0 /usr/local/xenon/usr/lib/libxenon.a(elf.o)
 .bss           0x0000000000000000        0x0 /usr/local/xenon/usr/lib/libxenon.a(elf.o)
 .text.argv_GetFilename
                0x0000000000000000       0x5c /usr/local/xenon/usr/lib/libxenon.a(elf.o)
 .text.argv_GetFilepath
                0x0000000000000000       0x58 /usr/local/xenon/usr/lib/libxenon.a(elf.o)
 .text.argv_GetDevice
                0x0000000000000000       0x58 /usr/local/xenon/usr/lib/libxenon.a(elf.o)
 .text.elf_runFromDisk
                0x0000000000000000       0x88 /usr/local/xenon/usr/lib/libxenon.a(elf.o)
 .bss._device   0x0000000000000000      0x100 /usr/local/xenon/usr/lib/libxenon.a(elf.o)
 .bss._filename
                0x0000000000000000      0x100 /usr/local/xenon/usr/lib/libxenon.a(elf.o)
 .bss._filepath
                0x0000000000000000      0x100 /usr/local/xenon/usr/lib/libxenon.a(elf.o)
 .text          0x0000000000000000        0x0 /usr/local/xenon/usr/lib/libxenon.a(elf_run.o)
 .data          0x0000000000000000        0x0 /usr/local/xenon/usr/lib/libxenon.a(elf_run.o)
 .bss           0x0000000000000000        0x0 /usr/local/xenon/usr/lib/libxenon.a(elf_run.o)
 .text          0x0000000000000000        0x0 /usr/local/xenon/usr/lib/libxenon.a(fdt_ro.o)
 .data          0x0000000000000000        0x0 /usr/local/xenon/usr/lib/libxenon.a(fdt_ro.o)
 .bss           0x0000000000000000        0x0 /usr/local/xenon/usr/lib/libxenon.a(fdt_ro.o)
 .text.fdt_get_mem_rsv
                0x0000000000000000       0x8c /usr/local/xenon/usr/lib/libxenon.a(fdt_ro.o)
 .text.fdt_subnode_offset
                0x0000000000000000       0x4c /usr/local/xenon/usr/lib/libxenon.a(fdt_ro.o)
 .text.fdt_get_name
                0x0000000000000000       0x8c /usr/local/xenon/usr/lib/libxenon.a(fdt_ro.o)
 .text.fdt_getprop_by_offset
                0x0000000000000000       0x60 /usr/local/xenon/usr/lib/libxenon.a(fdt_ro.o)
 .text.fdt_getprop
                0x0000000000000000       0x58 /usr/local/xenon/usr/lib/libxenon.a(fdt_ro.o)
 .text.fdt_get_phandle
                0x0000000000000000       0x80 /usr/local/xenon/usr/lib/libxenon.a(fdt_ro.o)
 .text.fdt_get_alias
                0x0000000000000000       0x44 /usr/local/xenon/usr/lib/libxenon.a(fdt_ro.o)
 .text.fdt_get_path
                0x0000000000000000      0x144 /usr/local/xenon/usr/lib/libxenon.a(fdt_ro.o)
 .text.fdt_supernode_atdepth_offset
                0x0000000000000000       0xc8 /usr/local/xenon/usr/lib/libxenon.a(fdt_ro.o)
 .text.fdt_node_depth
                0x0000000000000000       0x40 /usr/local/xenon/usr/lib/libxenon.a(fdt_ro.o)
 .text.fdt_parent_offset
                0x0000000000000000       0x58 /usr/local/xenon/usr/lib/libxenon.a(fdt_ro.o)
 .text.fdt_node_offset_by_prop_value
                0x0000000000000000       0xa4 /usr/local/xenon/usr/lib/libxenon.a(fdt_ro.o)
 .text.fdt_node_offset_by_phandle
                0x0000000000000000       0x8c /usr/local/xenon/usr/lib/libxenon.a(fdt_ro.o)
 .text.fdt_node_check_compatible
                0x0000000000000000       0xb0 /usr/local/xenon/usr/lib/libxenon.a(fdt_ro.o)
 .text.fdt_node_offset_by_compatible
                0x0000000000000000       0x80 /usr/local/xenon/usr/lib/libxenon.a(fdt_ro.o)
 .text          0x0000000000000000        0x0 /usr/local/xenon/usr/lib/libxenon.a(fdt_rw.o)
 .data          0x0000000000000000        0x0 /usr/local/xenon/usr/lib/libxenon.a(fdt_rw.o)
 .bss           0x0000000000000000        0x0 /usr/local/xenon/usr/lib/libxenon.a(fdt_rw.o)
 .text.fdt_del_mem_rsv
                0x0000000000000000       0x88 /usr/local/xenon/usr/lib/libxenon.a(fdt_rw.o)
 .text.fdt_set_name
                0x0000000000000000       0xa4 /usr/local/xenon/usr/lib/libxenon.a(fdt_rw.o)
 .text.fdt_delprop
                0x0000000000000000       0x74 /usr/local/xenon/usr/lib/libxenon.a(fdt_rw.o)
 .text.fdt_add_subnode_namelen
                0x0000000000000000      0x10c /usr/local/xenon/usr/lib/libxenon.a(fdt_rw.o)
 .text.fdt_add_subnode
                0x0000000000000000       0x4c /usr/local/xenon/usr/lib/libxenon.a(fdt_rw.o)
 .text.fdt_del_node
                0x0000000000000000       0x80 /usr/local/xenon/usr/lib/libxenon.a(fdt_rw.o)
 .text          0x0000000000000000        0x0 /usr/local/xenon/usr/lib/libxenon.a(fdt_wip.o)
 .data          0x0000000000000000        0x0 /usr/local/xenon/usr/lib/libxenon.a(fdt_wip.o)
 .bss           0x0000000000000000        0x0 /usr/local/xenon/usr/lib/libxenon.a(fdt_wip.o)
 .text.fdt_setprop_inplace
                0x0000000000000000       0x5c /usr/local/xenon/usr/lib/libxenon.a(fdt_wip.o)
 .text.fdt_nop_property
                0x0000000000000000       0x54 /usr/local/xenon/usr/lib/libxenon.a(fdt_wip.o)
 .text._fdt_node_end_offset
                0x0000000000000000       0x58 /usr/local/xenon/usr/lib/libxenon.a(fdt_wip.o)
 .text.fdt_nop_node
                0x0000000000000000       0x68 /usr/local/xenon/usr/lib/libxenon.a(fdt_wip.o)
 .debug_info    0x0000000000000000      0x605 /usr/local/xenon/usr/lib/libxenon.a(fdt_wip.o)
 .debug_abbrev  0x0000000000000000      0x24c /usr/local/xenon/usr/lib/libxenon.a(fdt_wip.o)
 .debug_loc     0x0000000000000000      0x390 /usr/local/xenon/usr/lib/libxenon.a(fdt_wip.o)
 .debug_aranges
                0x0000000000000000       0x38 /usr/local/xenon/usr/lib/libxenon.a(fdt_wip.o)
 .debug_ranges  0x0000000000000000       0x58 /usr/local/xenon/usr/lib/libxenon.a(fdt_wip.o)
 .debug_line    0x0000000000000000      0x176 /usr/local/xenon/usr/lib/libxenon.a(fdt_wip.o)
 .debug_str     0x0000000000000000      0x245 /usr/local/xenon/usr/lib/libxenon.a(fdt_wip.o)
 .comment       0x0000000000000000       0x12 /usr/local/xenon/usr/lib/libxenon.a(fdt_wip.o)
 .note.GNU-stack
                0x0000000000000000        0x0 /usr/local/xenon/usr/lib/libxenon.a(fdt_wip.o)
 .debug_frame   0x0000000000000000       0x9c /usr/local/xenon/usr/lib/libxenon.a(fdt_wip.o)
 .text          0x0000000000000000        0x0 /usr/local/xenon/usr/lib/libxenon.a(xb360.o)
 .data          0x0000000000000000        0x0 /usr/local/xenon/usr/lib/libxenon.a(xb360.o)
 .bss           0x0000000000000000        0x0 /usr/local/xenon/usr/lib/libxenon.a(xb360.o)
 .text.xenon_get_CPU_PVR
                0x0000000000000000        0x8 /usr/local/xenon/usr/lib/libxenon.a(xb360.o)
 .text          0x0000000000000000        0x0 /usr/local/xenon/usr/lib/libxenon.a(lib_malloc.o)
 .data          0x0000000000000000        0x0 /usr/local/xenon/usr/lib/libxenon.a(lib_malloc.o)
 .bss           0x0000000000000000        0x0 /usr/local/xenon/usr/lib/libxenon.a(lib_malloc.o)
 .text.kmeminit
                0x0000000000000000       0x38 /usr/local/xenon/usr/lib/libxenon.a(lib_malloc.o)
 .text.kmempoolbase
                0x0000000000000000        0x8 /usr/local/xenon/usr/lib/libxenon.a(lib_malloc.o)
 .text.kmempoolsize
                0x0000000000000000        0x8 /usr/local/xenon/usr/lib/libxenon.a(lib_malloc.o)
 .text.kmemstats
                0x0000000000000000       0xf8 /usr/local/xenon/usr/lib/libxenon.a(lib_malloc.o)
 .text          0x0000000000000000        0x0 /usr/local/xenon/usr/lib/libxenon.a(io.o)
 .data          0x0000000000000000        0x0 /usr/local/xenon/usr/lib/libxenon.a(io.o)
 .bss           0x0000000000000000        0x0 /usr/local/xenon/usr/lib/libxenon.a(io.o)
 .text          0x0000000000000000        0x0 /usr/local/xenon/usr/lib/libxenon.a(dummy.o)
 .data          0x0000000000000000        0x0 /usr/local/xenon/usr/lib/libxenon.a(dummy.o)
 .bss           0x0000000000000000        0x0 /usr/local/xenon/usr/lib/libxenon.a(dummy.o)
 .text          0x0000000000000000        0x0 /usr/local/xenon/usr/lib/libxenon.a(ohci.o)
 .data          0x0000000000000000        0x0 /usr/local/xenon/usr/lib/libxenon.a(ohci.o)
 .bss           0x0000000000000000        0x0 /usr/local/xenon/usr/lib/libxenon.a(ohci.o)
 .sbss.ohcidebug
                0x0000000000000000        0x4 /usr/local/xenon/usr/lib/libxenon.a(ohci.o)
 .text          0x0000000000000000        0x0 /usr/local/xenon/usr/lib/libxenon.a(usbdebug.o)
 .data          0x0000000000000000        0x0 /usr/local/xenon/usr/lib/libxenon.a(usbdebug.o)
 .bss           0x0000000000000000        0x0 /usr/local/xenon/usr/lib/libxenon.a(usbdebug.o)
 .text.usb_dbg_dumpcfgdescr
                0x0000000000000000       0xb8 /usr/local/xenon/usr/lib/libxenon.a(usbdebug.o)
 .text.usb_dbg_dumpdevice
                0x0000000000000000       0xc8 /usr/local/xenon/usr/lib/libxenon.a(usbdebug.o)
 .text.usb_dbg_showdevice
                0x0000000000000000       0x5c /usr/local/xenon/usr/lib/libxenon.a(usbdebug.o)
 .text          0x0000000000000000        0x0 /usr/local/xenon/usr/lib/libxenon.a(usb_os.o)
 .data          0x0000000000000000        0x0 /usr/local/xenon/usr/lib/libxenon.a(usb_os.o)
 .bss           0x0000000000000000        0x0 /usr/local/xenon/usr/lib/libxenon.a(usb_os.o)
 .text          0x0000000000000000        0x0 /usr/local/xenon/usr/lib/libxenon.a(xenon_gpio.o)
 .data          0x0000000000000000        0x0 /usr/local/xenon/usr/lib/libxenon.a(xenon_gpio.o)
 .bss           0x0000000000000000        0x0 /usr/local/xenon/usr/lib/libxenon.a(xenon_gpio.o)
 .data          0x0000000000000000        0x0 /usr/local/xenon/usr/lib/libxenon.a(cpusleep.o)
 .bss           0x0000000000000000        0x0 /usr/local/xenon/usr/lib/libxenon.a(cpusleep.o)
 .text          0x0000000000000000        0x0 /usr/local/xenon/usr/lib/libxenon.a(init.o)
 .data          0x0000000000000000        0x0 /usr/local/xenon/usr/lib/libxenon.a(init.o)
 .bss           0x0000000000000000        0x0 /usr/local/xenon/usr/lib/libxenon.a(init.o)
 .text          0x0000000000000000        0x0 /usr/local/xenon/usr/lib/libxenon.a(tcp_in.o)
 .data          0x0000000000000000        0x0 /usr/local/xenon/usr/lib/libxenon.a(tcp_in.o)
 .bss           0x0000000000000000        0x0 /usr/local/xenon/usr/lib/libxenon.a(tcp_in.o)
 .text          0x0000000000000000        0x0 /usr/local/xenon/usr/lib/libxenon.a(inet_chksum.o)
 .data          0x0000000000000000        0x0 /usr/local/xenon/usr/lib/libxenon.a(inet_chksum.o)
 .bss           0x0000000000000000        0x0 /usr/local/xenon/usr/lib/libxenon.a(inet_chksum.o)
 .text.inet_chksum_pseudo_partial
                0x0000000000000000      0x148 /usr/local/xenon/usr/lib/libxenon.a(inet_chksum.o)
 .rodata.str1.1
                0x0000000000000000       0x3b /usr/local/xenon/usr/lib/libxenon.a(inet_chksum.o)
 .text          0x0000000000000000        0x0 /usr/local/xenon/usr/lib/libxenon.a(dns.o)
 .data          0x0000000000000000        0x0 /usr/local/xenon/usr/lib/libxenon.a(dns.o)
 .bss           0x0000000000000000        0x0 /usr/local/xenon/usr/lib/libxenon.a(dns.o)
 .text.unlikely.dns_send
                0x0000000000000000      0x1cc /usr/local/xenon/usr/lib/libxenon.a(dns.o)
 .text.dns_check_entry
                0x0000000000000000      0x198 /usr/local/xenon/usr/lib/libxenon.a(dns.o)
 .text.dns_getserver
                0x0000000000000000       0x2c /usr/local/xenon/usr/lib/libxenon.a(dns.o)
 .text.dns_tmr  0x0000000000000000       0x48 /usr/local/xenon/usr/lib/libxenon.a(dns.o)
 .text.dns_gethostbyname
                0x0000000000000000      0x1d0 /usr/local/xenon/usr/lib/libxenon.a(dns.o)
 .bss.dns_seqno
                0x0000000000000000        0x1 /usr/local/xenon/usr/lib/libxenon.a(dns.o)
 .text          0x0000000000000000        0x0 /usr/local/xenon/usr/lib/libxenon.a(memp.o)
 .data          0x0000000000000000        0x0 /usr/local/xenon/usr/lib/libxenon.a(memp.o)
 .bss           0x0000000000000000        0x0 /usr/local/xenon/usr/lib/libxenon.a(memp.o)
 .text          0x0000000000000000        0x0 /usr/local/xenon/usr/lib/libxenon.a(icmp.o)
 .data          0x0000000000000000        0x0 /usr/local/xenon/usr/lib/libxenon.a(icmp.o)
 .bss           0x0000000000000000        0x0 /usr/local/xenon/usr/lib/libxenon.a(icmp.o)
 .text          0x0000000000000000        0x0 /usr/local/xenon/usr/lib/libxenon.a(fdt.o)
 .data          0x0000000000000000        0x0 /usr/local/xenon/usr/lib/libxenon.a(fdt.o)
 .bss           0x0000000000000000        0x0 /usr/local/xenon/usr/lib/libxenon.a(fdt.o)
 .text          0x0000000000000000        0x0 /usr/local/xenon/usr/lib/libxenon.a(hmac_sha1.o)
 .data          0x0000000000000000        0x0 /usr/local/xenon/usr/lib/libxenon.a(hmac_sha1.o)
 .bss           0x0000000000000000        0x0 /usr/local/xenon/usr/lib/libxenon.a(hmac_sha1.o)
 .text          0x0000000000000000        0x0 /usr/local/xenon/usr/lib/libxenon.a(rc4.o)
 .data          0x0000000000000000        0x0 /usr/local/xenon/usr/lib/libxenon.a(rc4.o)
 .bss           0x0000000000000000        0x0 /usr/local/xenon/usr/lib/libxenon.a(rc4.o)
 .text          0x0000000000000000        0x0 /usr/local/xenon/usr/lib/libxenon.a(sha1.o)
 .data          0x0000000000000000        0x0 /usr/local/xenon/usr/lib/libxenon.a(sha1.o)
 .bss           0x0000000000000000        0x0 /usr/local/xenon/usr/lib/libxenon.a(sha1.o)
 .text          0x0000000000000000        0x0 /usr/local/xenon/usr/lib/libxenon.a(lib_queue.o)
 .data          0x0000000000000000        0x0 /usr/local/xenon/usr/lib/libxenon.a(lib_queue.o)
 .bss           0x0000000000000000        0x0 /usr/local/xenon/usr/lib/libxenon.a(lib_queue.o)
 .text.q_dequeue
                0x0000000000000000       0x18 /usr/local/xenon/usr/lib/libxenon.a(lib_queue.o)
 .text.q_map    0x0000000000000000       0x64 /usr/local/xenon/usr/lib/libxenon.a(lib_queue.o)
 .text.q_count  0x0000000000000000       0x24 /usr/local/xenon/usr/lib/libxenon.a(lib_queue.o)
 .text.q_find   0x0000000000000000       0x34 /usr/local/xenon/usr/lib/libxenon.a(lib_queue.o)
 .data          0x0000000000000000        0x0 /usr/local/xenon/usr/lib/libfat.a(libfat.o)
 .bss           0x0000000000000000        0x0 /usr/local/xenon/usr/lib/libfat.a(libfat.o)
 .data          0x0000000000000000        0x0 /usr/local/xenon/usr/lib/libfat.a(partition.o)
 .bss           0x0000000000000000        0x0 /usr/local/xenon/usr/lib/libfat.a(partition.o)
 .data          0x0000000000000000        0x0 /usr/local/xenon/usr/lib/libfat.a(cache.o)
 .data          0x0000000000000000        0x0 /usr/local/xenon/usr/lib/libfat.a(directory.o)
 .bss           0x0000000000000000        0x0 /usr/local/xenon/usr/lib/libfat.a(directory.o)
 .data          0x0000000000000000        0x0 /usr/local/xenon/usr/lib/libfat.a(disc.o)
 .bss           0x0000000000000000        0x0 /usr/local/xenon/usr/lib/libfat.a(disc.o)
 .data          0x0000000000000000        0x0 /usr/local/xenon/usr/lib/libfat.a(fatdir.o)
 .bss           0x0000000000000000        0x0 /usr/local/xenon/usr/lib/libfat.a(fatdir.o)
 .data          0x0000000000000000        0x0 /usr/local/xenon/usr/lib/libfat.a(fatfile.o)
 .bss           0x0000000000000000        0x0 /usr/local/xenon/usr/lib/libfat.a(fatfile.o)
 .data          0x0000000000000000        0x0 /usr/local/xenon/usr/lib/libfat.a(file_allocation_table.o)
 .bss           0x0000000000000000        0x0 /usr/local/xenon/usr/lib/libfat.a(file_allocation_table.o)
 .data          0x0000000000000000        0x0 /usr/local/xenon/usr/lib/libfat.a(filetime.o)
 .bss           0x0000000000000000        0x0 /usr/local/xenon/usr/lib/libfat.a(filetime.o)
 .data          0x0000000000000000        0x0 /usr/local/xenon/usr/lib/libfat.a(lock.o)
 .bss           0x0000000000000000        0x0 /usr/local/xenon/usr/lib/libfat.a(lock.o)
 .data          0x0000000000000000        0x0 /usr/local/xenon/usr/lib/libext2fs.a(ext2.o)
 .bss           0x0000000000000000        0x0 /usr/local/xenon/usr/lib/libext2fs.a(ext2.o)
 .data          0x0000000000000000        0x0 /usr/local/xenon/usr/lib/libext2fs.a(ext2_internal.o)
 .bss           0x0000000000000000        0x0 /usr/local/xenon/usr/lib/libext2fs.a(ext2_internal.o)
 .data          0x0000000000000000        0x0 /usr/local/xenon/usr/lib/libext2fs.a(freefs.o)
 .bss           0x0000000000000000        0x0 /usr/local/xenon/usr/lib/libext2fs.a(freefs.o)
 .data          0x0000000000000000        0x0 /usr/local/xenon/usr/lib/libext2fs.a(gekko_io.o)
 .bss           0x0000000000000000        0x0 /usr/local/xenon/usr/lib/libext2fs.a(gekko_io.o)
 .data          0x0000000000000000        0x0 /usr/local/xenon/usr/lib/libext2fs.a(inode.o)
 .bss           0x0000000000000000        0x0 /usr/local/xenon/usr/lib/libext2fs.a(inode.o)
 .data          0x0000000000000000        0x0 /usr/local/xenon/usr/lib/libext2fs.a(io_manager.o)
 .bss           0x0000000000000000        0x0 /usr/local/xenon/usr/lib/libext2fs.a(io_manager.o)
 .data          0x0000000000000000        0x0 /usr/local/xenon/usr/lib/libext2fs.a(link.o)
 .bss           0x0000000000000000        0x0 /usr/local/xenon/usr/lib/libext2fs.a(link.o)
 .data          0x0000000000000000        0x0 /usr/local/xenon/usr/lib/libext2fs.a(mkdir.o)
 .bss           0x0000000000000000        0x0 /usr/local/xenon/usr/lib/libext2fs.a(mkdir.o)
 .data          0x0000000000000000        0x0 /usr/local/xenon/usr/lib/libext2fs.a(namei.o)
 .bss           0x0000000000000000        0x0 /usr/local/xenon/usr/lib/libext2fs.a(namei.o)
 .data          0x0000000000000000        0x0 /usr/local/xenon/usr/lib/libext2fs.a(newdir.o)
 .bss           0x0000000000000000        0x0 /usr/local/xenon/usr/lib/libext2fs.a(newdir.o)
 .data          0x0000000000000000        0x0 /usr/local/xenon/usr/lib/libext2fs.a(openfs.o)
 .bss           0x0000000000000000        0x0 /usr/local/xenon/usr/lib/libext2fs.a(openfs.o)
 .data          0x0000000000000000        0x0 /usr/local/xenon/usr/lib/libext2fs.a(punch.o)
 .bss           0x0000000000000000        0x0 /usr/local/xenon/usr/lib/libext2fs.a(punch.o)
 .data          0x0000000000000000        0x0 /usr/local/xenon/usr/lib/libext2fs.a(read_bb.o)
 .bss           0x0000000000000000        0x0 /usr/local/xenon/usr/lib/libext2fs.a(read_bb.o)
 .data          0x0000000000000000        0x0 /usr/local/xenon/usr/lib/libext2fs.a(rw_bitmaps.o)
 .bss           0x0000000000000000        0x0 /usr/local/xenon/usr/lib/libext2fs.a(rw_bitmaps.o)
 .data          0x0000000000000000        0x0 /usr/local/xenon/usr/lib/libext2fs.a(swapfs.o)
 .bss           0x0000000000000000        0x0 /usr/local/xenon/usr/lib/libext2fs.a(swapfs.o)
 .data          0x0000000000000000        0x0 /usr/local/xenon/usr/lib/libext2fs.a(unlink.o)
 .bss           0x0000000000000000        0x0 /usr/local/xenon/usr/lib/libext2fs.a(unlink.o)
 .data          0x0000000000000000        0x0 /usr/local/xenon/usr/lib/libext2fs.a(valid_blk.o)
 .bss           0x0000000000000000        0x0 /usr/local/xenon/usr/lib/libext2fs.a(valid_blk.o)
 .data          0x0000000000000000        0x0 /usr/local/xenon/usr/lib/libext2fs.a(alloc.o)
 .bss           0x0000000000000000        0x0 /usr/local/xenon/usr/lib/libext2fs.a(alloc.o)
 .data          0x0000000000000000        0x0 /usr/local/xenon/usr/lib/libext2fs.a(alloc_stats.o)
 .bss           0x0000000000000000        0x0 /usr/local/xenon/usr/lib/libext2fs.a(alloc_stats.o)
 .data          0x0000000000000000        0x0 /usr/local/xenon/usr/lib/libext2fs.a(badblocks.o)
 .bss           0x0000000000000000        0x0 /usr/local/xenon/usr/lib/libext2fs.a(badblocks.o)
 .data          0x0000000000000000        0x0 /usr/local/xenon/usr/lib/libext2fs.a(bitmaps.o)
 .bss           0x0000000000000000        0x0 /usr/local/xenon/usr/lib/libext2fs.a(bitmaps.o)
 .data          0x0000000000000000        0x0 /usr/local/xenon/usr/lib/libext2fs.a(bitops.o)
 .bss           0x0000000000000000        0x0 /usr/local/xenon/usr/lib/libext2fs.a(bitops.o)
 .data          0x0000000000000000        0x0 /usr/local/xenon/usr/lib/libext2fs.a(blknum.o)
 .bss           0x0000000000000000        0x0 /usr/local/xenon/usr/lib/libext2fs.a(blknum.o)
 .data          0x0000000000000000        0x0 /usr/local/xenon/usr/lib/libext2fs.a(block.o)
 .bss           0x0000000000000000        0x0 /usr/local/xenon/usr/lib/libext2fs.a(block.o)
 .data          0x0000000000000000        0x0 /usr/local/xenon/usr/lib/libext2fs.a(closefs.o)
 .bss           0x0000000000000000        0x0 /usr/local/xenon/usr/lib/libext2fs.a(closefs.o)
 .data          0x0000000000000000        0x0 /usr/local/xenon/usr/lib/libext2fs.a(csum.o)
 .bss           0x0000000000000000        0x0 /usr/local/xenon/usr/lib/libext2fs.a(csum.o)
 .data          0x0000000000000000        0x0 /usr/local/xenon/usr/lib/libext2fs.a(dirblock.o)
 .bss           0x0000000000000000        0x0 /usr/local/xenon/usr/lib/libext2fs.a(dirblock.o)
 .data          0x0000000000000000        0x0 /usr/local/xenon/usr/lib/libext2fs.a(dir_iterate.o)
 .bss           0x0000000000000000        0x0 /usr/local/xenon/usr/lib/libext2fs.a(dir_iterate.o)
 .data          0x0000000000000000        0x0 /usr/local/xenon/usr/lib/libext2fs.a(disc_cache.o)
 .data          0x0000000000000000        0x0 /usr/local/xenon/usr/lib/libext2fs.a(expanddir.o)
 .bss           0x0000000000000000        0x0 /usr/local/xenon/usr/lib/libext2fs.a(expanddir.o)
 .data          0x0000000000000000        0x0 /usr/local/xenon/usr/lib/libext2fs.a(ext2dir.o)
 .bss           0x0000000000000000        0x0 /usr/local/xenon/usr/lib/libext2fs.a(ext2dir.o)
 .data          0x0000000000000000        0x0 /usr/local/xenon/usr/lib/libext2fs.a(ext2file.o)
 .bss           0x0000000000000000        0x0 /usr/local/xenon/usr/lib/libext2fs.a(ext2file.o)
 .data          0x0000000000000000        0x0 /usr/local/xenon/usr/lib/libext2fs.a(extent.o)
 .bss           0x0000000000000000        0x0 /usr/local/xenon/usr/lib/libext2fs.a(extent.o)
 .data          0x0000000000000000        0x0 /usr/local/xenon/usr/lib/libext2fs.a(fileio.o)
 .bss           0x0000000000000000        0x0 /usr/local/xenon/usr/lib/libext2fs.a(fileio.o)
 .data          0x0000000000000000        0x0 /usr/local/xenon/usr/lib/libext2fs.a(gen_bitmap64.o)
 .bss           0x0000000000000000        0x0 /usr/local/xenon/usr/lib/libext2fs.a(gen_bitmap64.o)
 .data          0x0000000000000000        0x0 /usr/local/xenon/usr/lib/libext2fs.a(gen_bitmap.o)
 .data          0x0000000000000000        0x0 /usr/local/xenon/usr/lib/libext2fs.a(i_block.o)
 .bss           0x0000000000000000        0x0 /usr/local/xenon/usr/lib/libext2fs.a(i_block.o)
 .data          0x0000000000000000        0x0 /usr/local/xenon/usr/lib/libext2fs.a(ind_block.o)
 .bss           0x0000000000000000        0x0 /usr/local/xenon/usr/lib/libext2fs.a(ind_block.o)
 .data          0x0000000000000000        0x0 /usr/local/xenon/usr/lib/libext2fs.a(inline.o)
 .bss           0x0000000000000000        0x0 /usr/local/xenon/usr/lib/libext2fs.a(inline.o)
 .data          0x0000000000000000        0x0 /usr/local/xenon/usr/lib/libext2fs.a(lookup.o)
 .bss           0x0000000000000000        0x0 /usr/local/xenon/usr/lib/libext2fs.a(lookup.o)
 .data          0x0000000000000000        0x0 /usr/local/xenon/usr/lib/libext2fs.a(mmp.o)
 .bss           0x0000000000000000        0x0 /usr/local/xenon/usr/lib/libext2fs.a(mmp.o)
 .data          0x0000000000000000        0x0 /usr/local/xenon/usr/lib/libext2fs.a(progress.o)
 .bss           0x0000000000000000        0x0 /usr/local/xenon/usr/lib/libext2fs.a(blkmap64_ba.o)
 .data          0x0000000000000000        0x0 /usr/local/xenon/usr/lib/libext2fs.a(bmap.o)
 .bss           0x0000000000000000        0x0 /usr/local/xenon/usr/lib/libext2fs.a(bmap.o)
 .data          0x0000000000000000        0x0 /usr/local/xenon/usr/lib/libext2fs.a(crc16.o)
 .bss           0x0000000000000000        0x0 /usr/local/xenon/usr/lib/libext2fs.a(crc16.o)
 .data          0x0000000000000000        0x0 /usr/local/xenon/usr/lib/libext2fs.a(llseek.o)
 .bss           0x0000000000000000        0x0 /usr/local/xenon/usr/lib/libext2fs.a(llseek.o)
 .data          0x0000000000000000        0x0 /usr/local/xenon/usr/lib/libxtaf.a(xtaf.o)
 .data          0x0000000000000000        0x0 /usr/local/xenon/usr/lib/libxtaf.a(xtaf_util.o)
 .bss           0x0000000000000000        0x0 /usr/local/xenon/usr/lib/libxtaf.a(xtaf_util.o)
 .data          0x0000000000000000        0x0 /usr/local/xenon/usr/lib/libxtaf.a(cache.o)
 .data          0x0000000000000000        0x0 /usr/local/xenon/usr/lib/libxtaf.a(xtaf_dir.o)
 .bss           0x0000000000000000        0x0 /usr/local/xenon/usr/lib/libxtaf.a(xtaf_dir.o)
 .data          0x0000000000000000        0x0 /usr/local/xenon/usr/lib/libxtaf.a(xtaf_file.o)
 .bss           0x0000000000000000        0x0 /usr/local/xenon/usr/lib/libxtaf.a(xtaf_file.o)
 .data          0x0000000000000000        0x0 /usr/local/xenon/xenon/lib/32/libm.a(lib_a-s_ceil.o)
 .bss           0x0000000000000000        0x0 /usr/local/xenon/xenon/lib/32/libm.a(lib_a-s_ceil.o)
 .data          0x0000000000000000        0x0 /usr/local/xenon/xenon/lib/32/libm.a(lib_a-s_floor.o)
 .bss           0x0000000000000000        0x0 /usr/local/xenon/xenon/lib/32/libm.a(lib_a-s_floor.o)
 .data          0x0000000000000000        0x0 /usr/local/xenon/lib/gcc/xenon/4.7.1/32/libgcc.a(crtsavgpr.o)
 .bss           0x0000000000000000        0x0 /usr/local/xenon/lib/gcc/xenon/4.7.1/32/libgcc.a(crtsavgpr.o)
 .data          0x0000000000000000        0x0 /usr/local/xenon/lib/gcc/xenon/4.7.1/32/libgcc.a(crtresxgpr.o)
 .bss           0x0000000000000000        0x0 /usr/local/xenon/lib/gcc/xenon/4.7.1/32/libgcc.a(crtresxgpr.o)
 .data          0x0000000000000000        0x0 /usr/local/xenon/lib/gcc/xenon/4.7.1/32/libgcc.a(unwind-dw2-fde-dip.o)
 .data          0x0000000000000000        0x0 /usr/local/xenon/xenon/lib/32/libc.a(lib_a-assert.o)
 .bss           0x0000000000000000        0x0 /usr/local/xenon/xenon/lib/32/libc.a(lib_a-assert.o)
 .data          0x0000000000000000        0x0 /usr/local/xenon/xenon/lib/32/libc.a(lib_a-atoi.o)
 .bss           0x0000000000000000        0x0 /usr/local/xenon/xenon/lib/32/libc.a(lib_a-atoi.o)
 .got2          0x0000000000000000        0x0 /usr/local/xenon/xenon/lib/32/libc.a(lib_a-atoi.o)
 .data          0x0000000000000000        0x0 /usr/local/xenon/xenon/lib/32/libc.a(lib_a-calloc.o)
 .bss           0x0000000000000000        0x0 /usr/local/xenon/xenon/lib/32/libc.a(lib_a-calloc.o)
 .data          0x0000000000000000        0x0 /usr/local/xenon/xenon/lib/32/libc.a(lib_a-callocr.o)
 .bss           0x0000000000000000        0x0 /usr/local/xenon/xenon/lib/32/libc.a(lib_a-callocr.o)
 .got2          0x0000000000000000        0x0 /usr/local/xenon/xenon/lib/32/libc.a(lib_a-callocr.o)
 .text          0x0000000000000000        0x0 /usr/local/xenon/xenon/lib/32/libc.a(lib_a-ctype_.o)
 .data          0x0000000000000000        0x0 /usr/local/xenon/xenon/lib/32/libc.a(lib_a-ctype_.o)
 .bss           0x0000000000000000        0x0 /usr/local/xenon/xenon/lib/32/libc.a(lib_a-ctype_.o)
 .got2          0x0000000000000000        0x0 /usr/local/xenon/xenon/lib/32/libc.a(lib_a-ctype_.o)
 .data          0x0000000000000000        0x0 /usr/local/xenon/xenon/lib/32/libc.a(lib_a-errno.o)
 .bss           0x0000000000000000        0x0 /usr/local/xenon/xenon/lib/32/libc.a(lib_a-errno.o)
 .data          0x0000000000000000        0x0 /usr/local/xenon/xenon/lib/32/libc.a(lib_a-exit.o)
 .bss           0x0000000000000000        0x0 /usr/local/xenon/xenon/lib/32/libc.a(lib_a-exit.o)
 .data          0x0000000000000000        0x0 /usr/local/xenon/xenon/lib/32/libc.a(lib_a-fclose.o)
 .bss           0x0000000000000000        0x0 /usr/local/xenon/xenon/lib/32/libc.a(lib_a-fclose.o)
 .data          0x0000000000000000        0x0 /usr/local/xenon/xenon/lib/32/libc.a(lib_a-fflush.o)
 .bss           0x0000000000000000        0x0 /usr/local/xenon/xenon/lib/32/libc.a(lib_a-fflush.o)
 .data          0x0000000000000000        0x0 /usr/local/xenon/xenon/lib/32/libc.a(lib_a-findfp.o)
 .bss           0x0000000000000000        0x0 /usr/local/xenon/xenon/lib/32/libc.a(lib_a-findfp.o)
 .data          0x0000000000000000        0x0 /usr/local/xenon/xenon/lib/32/libc.a(lib_a-fiprintf.o)
 .bss           0x0000000000000000        0x0 /usr/local/xenon/xenon/lib/32/libc.a(lib_a-fiprintf.o)
 .data          0x0000000000000000        0x0 /usr/local/xenon/xenon/lib/32/libc.a(lib_a-fopen.o)
 .bss           0x0000000000000000        0x0 /usr/local/xenon/xenon/lib/32/libc.a(lib_a-fopen.o)
 .data          0x0000000000000000        0x0 /usr/local/xenon/xenon/lib/32/libc.a(lib_a-fprintf.o)
 .bss           0x0000000000000000        0x0 /usr/local/xenon/xenon/lib/32/libc.a(lib_a-fprintf.o)
 .data          0x0000000000000000        0x0 /usr/local/xenon/xenon/lib/32/libc.a(lib_a-fputs.o)
 .bss           0x0000000000000000        0x0 /usr/local/xenon/xenon/lib/32/libc.a(lib_a-fputs.o)
 .data          0x0000000000000000        0x0 /usr/local/xenon/xenon/lib/32/libc.a(lib_a-fread.o)
 .bss           0x0000000000000000        0x0 /usr/local/xenon/xenon/lib/32/libc.a(lib_a-fread.o)
 .data          0x0000000000000000        0x0 /usr/local/xenon/xenon/lib/32/libc.a(lib_a-freer.o)
 .bss           0x0000000000000000        0x0 /usr/local/xenon/xenon/lib/32/libc.a(lib_a-freer.o)
 .data          0x0000000000000000        0x0 /usr/local/xenon/xenon/lib/32/libc.a(lib_a-fseek.o)
 .bss           0x0000000000000000        0x0 /usr/local/xenon/xenon/lib/32/libc.a(lib_a-fseek.o)
 .data          0x0000000000000000        0x0 /usr/local/xenon/xenon/lib/32/libc.a(lib_a-fstatr.o)
 .bss           0x0000000000000000        0x0 /usr/local/xenon/xenon/lib/32/libc.a(lib_a-fstatr.o)
 .data          0x0000000000000000        0x0 /usr/local/xenon/xenon/lib/32/libc.a(lib_a-ftell.o)
 .bss           0x0000000000000000        0x0 /usr/local/xenon/xenon/lib/32/libc.a(lib_a-ftell.o)
 .data          0x0000000000000000        0x0 /usr/local/xenon/xenon/lib/32/libc.a(lib_a-fvwrite.o)
 .bss           0x0000000000000000        0x0 /usr/local/xenon/xenon/lib/32/libc.a(lib_a-fvwrite.o)
 .got2          0x0000000000000000        0x0 /usr/local/xenon/xenon/lib/32/libc.a(lib_a-fvwrite.o)
 .data          0x0000000000000000        0x0 /usr/local/xenon/xenon/lib/32/libc.a(lib_a-fwalk.o)
 .bss           0x0000000000000000        0x0 /usr/local/xenon/xenon/lib/32/libc.a(lib_a-fwalk.o)
 .got2          0x0000000000000000        0x0 /usr/local/xenon/xenon/lib/32/libc.a(lib_a-fwalk.o)
 .text          0x0000000000000000      0x144 /usr/local/xenon/xenon/lib/32/libc.a(lib_a-fwrite.o)
 .data          0x0000000000000000        0x0 /usr/local/xenon/xenon/lib/32/libc.a(lib_a-fwrite.o)
 .bss           0x0000000000000000        0x0 /usr/local/xenon/xenon/lib/32/libc.a(lib_a-fwrite.o)
 .got2          0x0000000000000000        0x4 /usr/local/xenon/xenon/lib/32/libc.a(lib_a-fwrite.o)
 .debug_info    0x0000000000000000      0xb39 /usr/local/xenon/xenon/lib/32/libc.a(lib_a-fwrite.o)
 .debug_abbrev  0x0000000000000000      0x228 /usr/local/xenon/xenon/lib/32/libc.a(lib_a-fwrite.o)
 .debug_loc     0x0000000000000000      0x280 /usr/local/xenon/xenon/lib/32/libc.a(lib_a-fwrite.o)
 .debug_aranges
                0x0000000000000000       0x20 /usr/local/xenon/xenon/lib/32/libc.a(lib_a-fwrite.o)
 .debug_line    0x0000000000000000      0x1ae /usr/local/xenon/xenon/lib/32/libc.a(lib_a-fwrite.o)
 .debug_str     0x0000000000000000      0x54c /usr/local/xenon/xenon/lib/32/libc.a(lib_a-fwrite.o)
 .comment       0x0000000000000000       0x12 /usr/local/xenon/xenon/lib/32/libc.a(lib_a-fwrite.o)
 .note.GNU-stack
                0x0000000000000000        0x0 /usr/local/xenon/xenon/lib/32/libc.a(lib_a-fwrite.o)
 .debug_frame   0x0000000000000000       0x6c /usr/local/xenon/xenon/lib/32/libc.a(lib_a-fwrite.o)
 .data          0x0000000000000000        0x0 /usr/local/xenon/xenon/lib/32/libc.a(lib_a-getenv.o)
 .bss           0x0000000000000000        0x0 /usr/local/xenon/xenon/lib/32/libc.a(lib_a-getenv.o)
 .data          0x0000000000000000        0x0 /usr/local/xenon/xenon/lib/32/libc.a(lib_a-getenv_r.o)
 .bss           0x0000000000000000        0x0 /usr/local/xenon/xenon/lib/32/libc.a(lib_a-getenv_r.o)
 .text          0x0000000000000000        0x0 /usr/local/xenon/xenon/lib/32/libc.a(lib_a-impure.o)
 .data          0x0000000000000000        0x0 /usr/local/xenon/xenon/lib/32/libc.a(lib_a-impure.o)
 .bss           0x0000000000000000        0x0 /usr/local/xenon/xenon/lib/32/libc.a(lib_a-impure.o)
 .got2          0x0000000000000000        0x0 /usr/local/xenon/xenon/lib/32/libc.a(lib_a-impure.o)
 .data          0x0000000000000000        0x0 /usr/local/xenon/xenon/lib/32/libc.a(lib_a-lcltime_r.o)
 .bss           0x0000000000000000        0x0 /usr/local/xenon/xenon/lib/32/libc.a(lib_a-lcltime_r.o)
 .got2          0x0000000000000000        0x0 /usr/local/xenon/xenon/lib/32/libc.a(lib_a-lcltime_r.o)
 .bss           0x0000000000000000        0x0 /usr/local/xenon/xenon/lib/32/libc.a(lib_a-locale.o)
 .sbss          0x0000000000000000        0xc /usr/local/xenon/xenon/lib/32/libc.a(lib_a-locale.o)
 .data          0x0000000000000000        0x0 /usr/local/xenon/xenon/lib/32/libc.a(lib_a-makebuf.o)
 .bss           0x0000000000000000        0x0 /usr/local/xenon/xenon/lib/32/libc.a(lib_a-makebuf.o)
 .data          0x0000000000000000        0x0 /usr/local/xenon/xenon/lib/32/libc.a(lib_a-malign.o)
 .bss           0x0000000000000000        0x0 /usr/local/xenon/xenon/lib/32/libc.a(lib_a-malign.o)
 .data          0x0000000000000000        0x0 /usr/local/xenon/xenon/lib/32/libc.a(lib_a-malignr.o)
 .bss           0x0000000000000000        0x0 /usr/local/xenon/xenon/lib/32/libc.a(lib_a-malignr.o)
 .got2          0x0000000000000000        0x0 /usr/local/xenon/xenon/lib/32/libc.a(lib_a-malignr.o)
 .data          0x0000000000000000        0x0 /usr/local/xenon/xenon/lib/32/libc.a(lib_a-malloc.o)
 .bss           0x0000000000000000        0x0 /usr/local/xenon/xenon/lib/32/libc.a(lib_a-malloc.o)
 .data          0x0000000000000000        0x0 /usr/local/xenon/xenon/lib/32/libc.a(lib_a-mallocr.o)
 .data          0x0000000000000000        0x0 /usr/local/xenon/xenon/lib/32/libc.a(lib_a-mbrtowc.o)
 .bss           0x0000000000000000        0x0 /usr/local/xenon/xenon/lib/32/libc.a(lib_a-mbrtowc.o)
 .data          0x0000000000000000        0x0 /usr/local/xenon/xenon/lib/32/libc.a(lib_a-mbsrtowcs.o)
 .bss           0x0000000000000000        0x0 /usr/local/xenon/xenon/lib/32/libc.a(lib_a-mbsrtowcs.o)
 .data          0x0000000000000000        0x0 /usr/local/xenon/xenon/lib/32/libc.a(lib_a-mbtowc_r.o)
 .bss           0x0000000000000000        0x0 /usr/local/xenon/xenon/lib/32/libc.a(lib_a-mbtowc_r.o)
 .data          0x0000000000000000        0x0 /usr/local/xenon/xenon/lib/32/libc.a(lib_a-memchr.o)
 .bss           0x0000000000000000        0x0 /usr/local/xenon/xenon/lib/32/libc.a(lib_a-memchr.o)
 .got2          0x0000000000000000        0x0 /usr/local/xenon/xenon/lib/32/libc.a(lib_a-memchr.o)
 .data          0x0000000000000000        0x0 /usr/local/xenon/xenon/lib/32/libc.a(lib_a-memcmp.o)
 .bss           0x0000000000000000        0x0 /usr/local/xenon/xenon/lib/32/libc.a(lib_a-memcmp.o)
 .got2          0x0000000000000000        0x0 /usr/local/xenon/xenon/lib/32/libc.a(lib_a-memcmp.o)
 .data          0x0000000000000000        0x0 /usr/local/xenon/xenon/lib/32/libc.a(lib_a-memcpy.o)
 .bss           0x0000000000000000        0x0 /usr/local/xenon/xenon/lib/32/libc.a(lib_a-memcpy.o)
 .got2          0x0000000000000000        0x0 /usr/local/xenon/xenon/lib/32/libc.a(lib_a-memcpy.o)
 .data          0x0000000000000000        0x0 /usr/local/xenon/xenon/lib/32/libc.a(lib_a-memmove.o)
 .bss           0x0000000000000000        0x0 /usr/local/xenon/xenon/lib/32/libc.a(lib_a-memmove.o)
 .got2          0x0000000000000000        0x0 /usr/local/xenon/xenon/lib/32/libc.a(lib_a-memmove.o)
 .data          0x0000000000000000        0x0 /usr/local/xenon/xenon/lib/32/libc.a(lib_a-memset.o)
 .bss           0x0000000000000000        0x0 /usr/local/xenon/xenon/lib/32/libc.a(lib_a-memset.o)
 .got2          0x0000000000000000        0x0 /usr/local/xenon/xenon/lib/32/libc.a(lib_a-memset.o)
 .data          0x0000000000000000        0x0 /usr/local/xenon/xenon/lib/32/libc.a(lib_a-mktime.o)
 .bss           0x0000000000000000        0x0 /usr/local/xenon/xenon/lib/32/libc.a(lib_a-mktime.o)
 .data          0x0000000000000000        0x0 /usr/local/xenon/xenon/lib/32/libc.a(lib_a-mktm_r.o)
 .bss           0x0000000000000000        0x0 /usr/local/xenon/xenon/lib/32/libc.a(lib_a-mktm_r.o)
 .data          0x0000000000000000        0x0 /usr/local/xenon/xenon/lib/32/libc.a(lib_a-openr.o)
 .bss           0x0000000000000000        0x0 /usr/local/xenon/xenon/lib/32/libc.a(lib_a-openr.o)
 .data          0x0000000000000000        0x0 /usr/local/xenon/xenon/lib/32/libc.a(lib_a-printf.o)
 .bss           0x0000000000000000        0x0 /usr/local/xenon/xenon/lib/32/libc.a(lib_a-printf.o)
 .data          0x0000000000000000        0x0 /usr/local/xenon/xenon/lib/32/libc.a(lib_a-putchar.o)
 .bss           0x0000000000000000        0x0 /usr/local/xenon/xenon/lib/32/libc.a(lib_a-putchar.o)
 .data          0x0000000000000000        0x0 /usr/local/xenon/xenon/lib/32/libc.a(lib_a-putc.o)
 .bss           0x0000000000000000        0x0 /usr/local/xenon/xenon/lib/32/libc.a(lib_a-putc.o)
 .data          0x0000000000000000        0x0 /usr/local/xenon/xenon/lib/32/libc.a(lib_a-puts.o)
 .bss           0x0000000000000000        0x0 /usr/local/xenon/xenon/lib/32/libc.a(lib_a-puts.o)
 .data          0x0000000000000000        0x0 /usr/local/xenon/xenon/lib/32/libc.a(lib_a-rand.o)
 .bss           0x0000000000000000        0x0 /usr/local/xenon/xenon/lib/32/libc.a(lib_a-rand.o)
 .data          0x0000000000000000        0x0 /usr/local/xenon/xenon/lib/32/libc.a(lib_a-realloc.o)
 .bss           0x0000000000000000        0x0 /usr/local/xenon/xenon/lib/32/libc.a(lib_a-realloc.o)
 .data          0x0000000000000000        0x0 /usr/local/xenon/xenon/lib/32/libc.a(lib_a-reallocr.o)
 .bss           0x0000000000000000        0x0 /usr/local/xenon/xenon/lib/32/libc.a(lib_a-reallocr.o)
 .text          0x0000000000000000      0x2b4 /usr/local/xenon/xenon/lib/32/libc.a(lib_a-reent.o)
 .data          0x0000000000000000        0x0 /usr/local/xenon/xenon/lib/32/libc.a(lib_a-reent.o)
 .bss           0x0000000000000000        0x0 /usr/local/xenon/xenon/lib/32/libc.a(lib_a-reent.o)
 .got2          0x0000000000000000        0x4 /usr/local/xenon/xenon/lib/32/libc.a(lib_a-reent.o)
 .data          0x0000000000000000        0x0 /usr/local/xenon/xenon/lib/32/libc.a(lib_a-refill.o)
 .bss           0x0000000000000000        0x0 /usr/local/xenon/xenon/lib/32/libc.a(lib_a-refill.o)
 .data          0x0000000000000000        0x0 /usr/local/xenon/xenon/lib/32/libc.a(lib_a-sbrkr.o)
 .bss           0x0000000000000000        0x0 /usr/local/xenon/xenon/lib/32/libc.a(lib_a-sbrkr.o)
 .data          0x0000000000000000        0x0 /usr/local/xenon/xenon/lib/32/libc.a(lib_a-setbuf.o)
 .bss           0x0000000000000000        0x0 /usr/local/xenon/xenon/lib/32/libc.a(lib_a-setbuf.o)
 .got2          0x0000000000000000        0x0 /usr/local/xenon/xenon/lib/32/libc.a(lib_a-setbuf.o)
 .data          0x0000000000000000        0x0 /usr/local/xenon/xenon/lib/32/libc.a(lib_a-setjmp.o)
 .bss           0x0000000000000000        0x0 /usr/local/xenon/xenon/lib/32/libc.a(lib_a-setjmp.o)
 .data          0x0000000000000000        0x0 /usr/local/xenon/xenon/lib/32/libc.a(lib_a-setvbuf.o)
 .bss           0x0000000000000000        0x0 /usr/local/xenon/xenon/lib/32/libc.a(lib_a-setvbuf.o)
 .data          0x0000000000000000        0x0 /usr/local/xenon/xenon/lib/32/libc.a(lib_a-snprintf.o)
 .bss           0x0000000000000000        0x0 /usr/local/xenon/xenon/lib/32/libc.a(lib_a-snprintf.o)
 .data          0x0000000000000000        0x0 /usr/local/xenon/xenon/lib/32/libc.a(lib_a-sprintf.o)
 .bss           0x0000000000000000        0x0 /usr/local/xenon/xenon/lib/32/libc.a(lib_a-sprintf.o)
 .data          0x0000000000000000        0x0 /usr/local/xenon/xenon/lib/32/libc.a(lib_a-stdio.o)
 .bss           0x0000000000000000        0x0 /usr/local/xenon/xenon/lib/32/libc.a(lib_a-stdio.o)
 .got2          0x0000000000000000        0x0 /usr/local/xenon/xenon/lib/32/libc.a(lib_a-stdio.o)
 .data          0x0000000000000000        0x0 /usr/local/xenon/xenon/lib/32/libc.a(lib_a-strcat.o)
 .bss           0x0000000000000000        0x0 /usr/local/xenon/xenon/lib/32/libc.a(lib_a-strcat.o)
 .got2          0x0000000000000000        0x0 /usr/local/xenon/xenon/lib/32/libc.a(lib_a-strcat.o)
 .data          0x0000000000000000        0x0 /usr/local/xenon/xenon/lib/32/libc.a(lib_a-strchr.o)
 .bss           0x0000000000000000        0x0 /usr/local/xenon/xenon/lib/32/libc.a(lib_a-strchr.o)
 .got2          0x0000000000000000        0x0 /usr/local/xenon/xenon/lib/32/libc.a(lib_a-strchr.o)
 .data          0x0000000000000000        0x0 /usr/local/xenon/xenon/lib/32/libc.a(lib_a-strcmp.o)
 .bss           0x0000000000000000        0x0 /usr/local/xenon/xenon/lib/32/libc.a(lib_a-strcmp.o)
 .got2          0x0000000000000000        0x0 /usr/local/xenon/xenon/lib/32/libc.a(lib_a-strcmp.o)
 .data          0x0000000000000000        0x0 /usr/local/xenon/xenon/lib/32/libc.a(lib_a-strcpy.o)
 .bss           0x0000000000000000        0x0 /usr/local/xenon/xenon/lib/32/libc.a(lib_a-strcpy.o)
 .got2          0x0000000000000000        0x0 /usr/local/xenon/xenon/lib/32/libc.a(lib_a-strcpy.o)
 .data          0x0000000000000000        0x0 /usr/local/xenon/xenon/lib/32/libc.a(lib_a-strdup.o)
 .bss           0x0000000000000000        0x0 /usr/local/xenon/xenon/lib/32/libc.a(lib_a-strdup.o)
 .data          0x0000000000000000        0x0 /usr/local/xenon/xenon/lib/32/libc.a(lib_a-strdup_r.o)
 .bss           0x0000000000000000        0x0 /usr/local/xenon/xenon/lib/32/libc.a(lib_a-strdup_r.o)
 .got2          0x0000000000000000        0x0 /usr/local/xenon/xenon/lib/32/libc.a(lib_a-strdup_r.o)
 .data          0x0000000000000000        0x0 /usr/local/xenon/xenon/lib/32/libc.a(lib_a-strlcat.o)
 .bss           0x0000000000000000        0x0 /usr/local/xenon/xenon/lib/32/libc.a(lib_a-strlcat.o)
 .got2          0x0000000000000000        0x0 /usr/local/xenon/xenon/lib/32/libc.a(lib_a-strlcat.o)
 .data          0x0000000000000000        0x0 /usr/local/xenon/xenon/lib/32/libc.a(lib_a-strlcpy.o)
 .bss           0x0000000000000000        0x0 /usr/local/xenon/xenon/lib/32/libc.a(lib_a-strlcpy.o)
 .got2          0x0000000000000000        0x0 /usr/local/xenon/xenon/lib/32/libc.a(lib_a-strlcpy.o)
 .data          0x0000000000000000        0x0 /usr/local/xenon/xenon/lib/32/libc.a(lib_a-strlen.o)
 .bss           0x0000000000000000        0x0 /usr/local/xenon/xenon/lib/32/libc.a(lib_a-strlen.o)
 .got2          0x0000000000000000        0x0 /usr/local/xenon/xenon/lib/32/libc.a(lib_a-strlen.o)
 .data          0x0000000000000000        0x0 /usr/local/xenon/xenon/lib/32/libc.a(lib_a-strncasecmp.o)
 .bss           0x0000000000000000        0x0 /usr/local/xenon/xenon/lib/32/libc.a(lib_a-strncasecmp.o)
 .data          0x0000000000000000        0x0 /usr/local/xenon/xenon/lib/32/libc.a(lib_a-strncmp.o)
 .bss           0x0000000000000000        0x0 /usr/local/xenon/xenon/lib/32/libc.a(lib_a-strncmp.o)
 .got2          0x0000000000000000        0x0 /usr/local/xenon/xenon/lib/32/libc.a(lib_a-strncmp.o)
 .data          0x0000000000000000        0x0 /usr/local/xenon/xenon/lib/32/libc.a(lib_a-strncpy.o)
 .bss           0x0000000000000000        0x0 /usr/local/xenon/xenon/lib/32/libc.a(lib_a-strncpy.o)
 .got2          0x0000000000000000        0x0 /usr/local/xenon/xenon/lib/32/libc.a(lib_a-strncpy.o)
 .data          0x0000000000000000        0x0 /usr/local/xenon/xenon/lib/32/libc.a(lib_a-strnlen.o)
 .bss           0x0000000000000000        0x0 /usr/local/xenon/xenon/lib/32/libc.a(lib_a-strnlen.o)
 .got2          0x0000000000000000        0x0 /usr/local/xenon/xenon/lib/32/libc.a(lib_a-strnlen.o)
 .data          0x0000000000000000        0x0 /usr/local/xenon/xenon/lib/32/libc.a(lib_a-strpbrk.o)
 .bss           0x0000000000000000        0x0 /usr/local/xenon/xenon/lib/32/libc.a(lib_a-strpbrk.o)
 .got2          0x0000000000000000        0x0 /usr/local/xenon/xenon/lib/32/libc.a(lib_a-strpbrk.o)
 .data          0x0000000000000000        0x0 /usr/local/xenon/xenon/lib/32/libc.a(lib_a-strrchr.o)
 .bss           0x0000000000000000        0x0 /usr/local/xenon/xenon/lib/32/libc.a(lib_a-strrchr.o)
 .got2          0x0000000000000000        0x0 /usr/local/xenon/xenon/lib/32/libc.a(lib_a-strrchr.o)
 .data          0x0000000000000000        0x0 /usr/local/xenon/xenon/lib/32/libc.a(lib_a-strtok.o)
 .bss           0x0000000000000000        0x0 /usr/local/xenon/xenon/lib/32/libc.a(lib_a-strtok.o)
 .data          0x0000000000000000        0x0 /usr/local/xenon/xenon/lib/32/libc.a(lib_a-strtok_r.o)
 .bss           0x0000000000000000        0x0 /usr/local/xenon/xenon/lib/32/libc.a(lib_a-strtok_r.o)
 .got2          0x0000000000000000        0x0 /usr/local/xenon/xenon/lib/32/libc.a(lib_a-strtok_r.o)
 .data          0x0000000000000000        0x0 /usr/local/xenon/xenon/lib/32/libc.a(lib_a-strtol.o)
 .bss           0x0000000000000000        0x0 /usr/local/xenon/xenon/lib/32/libc.a(lib_a-strtol.o)
 .data          0x0000000000000000        0x0 /usr/local/xenon/xenon/lib/32/libc.a(lib_a-strtoull.o)
 .bss           0x0000000000000000        0x0 /usr/local/xenon/xenon/lib/32/libc.a(lib_a-strtoull.o)
 .data          0x0000000000000000        0x0 /usr/local/xenon/xenon/lib/32/libc.a(lib_a-strtoull_r.o)
 .bss           0x0000000000000000        0x0 /usr/local/xenon/xenon/lib/32/libc.a(lib_a-strtoull_r.o)
 .data          0x0000000000000000        0x0 /usr/local/xenon/xenon/lib/32/libc.a(lib_a-svfprintf.o)
 .bss           0x0000000000000000        0x0 /usr/local/xenon/xenon/lib/32/libc.a(lib_a-svfprintf.o)
 .data          0x0000000000000000        0x0 /usr/local/xenon/xenon/lib/32/libc.a(lib_a-system.o)
 .bss           0x0000000000000000        0x0 /usr/local/xenon/xenon/lib/32/libc.a(lib_a-system.o)
 .data          0x0000000000000000        0x0 /usr/local/xenon/xenon/lib/32/libc.a(lib_a-time.o)
 .bss           0x0000000000000000        0x0 /usr/local/xenon/xenon/lib/32/libc.a(lib_a-time.o)
 .data          0x0000000000000000        0x0 /usr/local/xenon/xenon/lib/32/libc.a(lib_a-towlower.o)
 .bss           0x0000000000000000        0x0 /usr/local/xenon/xenon/lib/32/libc.a(lib_a-towlower.o)
 .data          0x0000000000000000        0x0 /usr/local/xenon/xenon/lib/32/libc.a(lib_a-towupper.o)
 .bss           0x0000000000000000        0x0 /usr/local/xenon/xenon/lib/32/libc.a(lib_a-towupper.o)
 .data          0x0000000000000000        0x0 /usr/local/xenon/xenon/lib/32/libc.a(lib_a-tzlock.o)
 .bss           0x0000000000000000        0x0 /usr/local/xenon/xenon/lib/32/libc.a(lib_a-tzlock.o)
 .got2          0x0000000000000000        0x0 /usr/local/xenon/xenon/lib/32/libc.a(lib_a-tzlock.o)
 .text          0x0000000000000000        0x0 /usr/local/xenon/xenon/lib/32/libc.a(lib_a-tzvars.o)
 .data          0x0000000000000000        0x0 /usr/local/xenon/xenon/lib/32/libc.a(lib_a-tzvars.o)
 .bss           0x0000000000000000        0x0 /usr/local/xenon/xenon/lib/32/libc.a(lib_a-tzvars.o)
 .got2          0x0000000000000000        0x0 /usr/local/xenon/xenon/lib/32/libc.a(lib_a-tzvars.o)
 .rodata.str1.4
                0x0000000000000000        0x4 /usr/local/xenon/xenon/lib/32/libc.a(lib_a-tzvars.o)
 .sdata         0x0000000000000000        0x8 /usr/local/xenon/xenon/lib/32/libc.a(lib_a-tzvars.o)
 .data          0x0000000000000000        0x0 /usr/local/xenon/xenon/lib/32/libc.a(lib_a-vfiprintf.o)
 .bss           0x0000000000000000        0x0 /usr/local/xenon/xenon/lib/32/libc.a(lib_a-vfiprintf.o)
 .data          0x0000000000000000        0x0 /usr/local/xenon/xenon/lib/32/libc.a(lib_a-vfprintf.o)
 .bss           0x0000000000000000        0x0 /usr/local/xenon/xenon/lib/32/libc.a(lib_a-vfprintf.o)
 .data          0x0000000000000000        0x0 /usr/local/xenon/xenon/lib/32/libc.a(lib_a-vsprintf.o)
 .bss           0x0000000000000000        0x0 /usr/local/xenon/xenon/lib/32/libc.a(lib_a-vsprintf.o)
 .data          0x0000000000000000        0x0 /usr/local/xenon/xenon/lib/32/libc.a(lib_a-wbuf.o)
 .bss           0x0000000000000000        0x0 /usr/local/xenon/xenon/lib/32/libc.a(lib_a-wbuf.o)
 .data          0x0000000000000000        0x0 /usr/local/xenon/xenon/lib/32/libc.a(lib_a-wcrtomb.o)
 .bss           0x0000000000000000        0x0 /usr/local/xenon/xenon/lib/32/libc.a(lib_a-wcrtomb.o)
 .data          0x0000000000000000        0x0 /usr/local/xenon/xenon/lib/32/libc.a(lib_a-wctob.o)
 .bss           0x0000000000000000        0x0 /usr/local/xenon/xenon/lib/32/libc.a(lib_a-wctob.o)
 .data          0x0000000000000000        0x0 /usr/local/xenon/xenon/lib/32/libc.a(lib_a-wctomb_r.o)
 .bss           0x0000000000000000        0x0 /usr/local/xenon/xenon/lib/32/libc.a(lib_a-wctomb_r.o)
 .data          0x0000000000000000        0x0 /usr/local/xenon/xenon/lib/32/libc.a(lib_a-writer.o)
 .bss           0x0000000000000000        0x0 /usr/local/xenon/xenon/lib/32/libc.a(lib_a-writer.o)
 .data          0x0000000000000000        0x0 /usr/local/xenon/xenon/lib/32/libc.a(lib_a-wsetup.o)
 .bss           0x0000000000000000        0x0 /usr/local/xenon/xenon/lib/32/libc.a(lib_a-wsetup.o)
 .data          0x0000000000000000        0x0 /usr/local/xenon/xenon/lib/32/libc.a(lib_a-__call_atexit.o)
 .bss           0x0000000000000000        0x0 /usr/local/xenon/xenon/lib/32/libc.a(lib_a-__call_atexit.o)
 .data          0x0000000000000000        0x0 /usr/local/xenon/xenon/lib/32/libc.a(lib_a-closer.o)
 .bss           0x0000000000000000        0x0 /usr/local/xenon/xenon/lib/32/libc.a(lib_a-closer.o)
 .data          0x0000000000000000        0x0 /usr/local/xenon/xenon/lib/32/libc.a(lib_a-div.o)
 .bss           0x0000000000000000        0x0 /usr/local/xenon/xenon/lib/32/libc.a(lib_a-div.o)
 .got2          0x0000000000000000        0x0 /usr/local/xenon/xenon/lib/32/libc.a(lib_a-div.o)
 .data          0x0000000000000000        0x0 /usr/local/xenon/xenon/lib/32/libc.a(lib_a-dtoa.o)
 .bss           0x0000000000000000        0x0 /usr/local/xenon/xenon/lib/32/libc.a(lib_a-dtoa.o)
 .text          0x0000000000000000        0x0 /usr/local/xenon/xenon/lib/32/libc.a(lib_a-environ.o)
 .data          0x0000000000000000        0x0 /usr/local/xenon/xenon/lib/32/libc.a(lib_a-environ.o)
 .got2          0x0000000000000000        0x0 /usr/local/xenon/xenon/lib/32/libc.a(lib_a-environ.o)
 .data          0x0000000000000000        0x0 /usr/local/xenon/xenon/lib/32/libc.a(lib_a-envlock.o)
 .bss           0x0000000000000000        0x0 /usr/local/xenon/xenon/lib/32/libc.a(lib_a-envlock.o)
 .got2          0x0000000000000000        0x0 /usr/local/xenon/xenon/lib/32/libc.a(lib_a-envlock.o)
 .data          0x0000000000000000        0x0 /usr/local/xenon/xenon/lib/32/libc.a(lib_a-execr.o)
 .bss           0x0000000000000000        0x0 /usr/local/xenon/xenon/lib/32/libc.a(lib_a-execr.o)
 .data          0x0000000000000000        0x0 /usr/local/xenon/xenon/lib/32/libc.a(lib_a-flags.o)
 .bss           0x0000000000000000        0x0 /usr/local/xenon/xenon/lib/32/libc.a(lib_a-flags.o)
 .got2          0x0000000000000000        0x0 /usr/local/xenon/xenon/lib/32/libc.a(lib_a-flags.o)
 .data          0x0000000000000000        0x0 /usr/local/xenon/xenon/lib/32/libc.a(lib_a-fputwc.o)
 .bss           0x0000000000000000        0x0 /usr/local/xenon/xenon/lib/32/libc.a(lib_a-fputwc.o)
 .data          0x0000000000000000        0x0 /usr/local/xenon/xenon/lib/32/libc.a(lib_a-gettimeofdayr.o)
 .bss           0x0000000000000000        0x0 /usr/local/xenon/xenon/lib/32/libc.a(lib_a-gettimeofdayr.o)
 .bss           0x0000000000000000        0x0 /usr/local/xenon/xenon/lib/32/libc.a(lib_a-gettzinfo.o)
 .data          0x0000000000000000        0x0 /usr/local/xenon/xenon/lib/32/libc.a(lib_a-isattyr.o)
 .bss           0x0000000000000000        0x0 /usr/local/xenon/xenon/lib/32/libc.a(lib_a-isattyr.o)
 .data          0x0000000000000000        0x0 /usr/local/xenon/xenon/lib/32/libc.a(lib_a-lseekr.o)
 .bss           0x0000000000000000        0x0 /usr/local/xenon/xenon/lib/32/libc.a(lib_a-lseekr.o)
 .data          0x0000000000000000        0x0 /usr/local/xenon/xenon/lib/32/libc.a(lib_a-mbsnrtowcs.o)
 .bss           0x0000000000000000        0x0 /usr/local/xenon/xenon/lib/32/libc.a(lib_a-mbsnrtowcs.o)
 .data          0x0000000000000000        0x0 /usr/local/xenon/xenon/lib/32/libc.a(lib_a-mprec.o)
 .bss           0x0000000000000000        0x0 /usr/local/xenon/xenon/lib/32/libc.a(lib_a-mprec.o)
 .data          0x0000000000000000        0x0 /usr/local/xenon/xenon/lib/32/libc.a(lib_a-readr.o)
 .bss           0x0000000000000000        0x0 /usr/local/xenon/xenon/lib/32/libc.a(lib_a-readr.o)
 .data          0x0000000000000000        0x0 /usr/local/xenon/xenon/lib/32/libc.a(lib_a-s_fpclassify.o)
 .bss           0x0000000000000000        0x0 /usr/local/xenon/xenon/lib/32/libc.a(lib_a-s_fpclassify.o)
 .got2          0x0000000000000000        0x0 /usr/local/xenon/xenon/lib/32/libc.a(lib_a-s_fpclassify.o)
 .data          0x0000000000000000        0x0 /usr/local/xenon/xenon/lib/32/libc.a(lib_a-svfiprintf.o)
 .bss           0x0000000000000000        0x0 /usr/local/xenon/xenon/lib/32/libc.a(lib_a-svfiprintf.o)
 .data          0x0000000000000000        0x0 /usr/local/xenon/lib/gcc/xenon/4.7.1/32/libgcc.a(_udivdi3.o)
 .bss           0x0000000000000000        0x0 /usr/local/xenon/lib/gcc/xenon/4.7.1/32/libgcc.a(_udivdi3.o)
 .got2          0x0000000000000000        0x0 /usr/local/xenon/lib/gcc/xenon/4.7.1/32/libgcc.a(_udivdi3.o)
 .data          0x0000000000000000        0x0 /usr/local/xenon/lib/gcc/xenon/4.7.1/32/libgcc.a(_umoddi3.o)
 .bss           0x0000000000000000        0x0 /usr/local/xenon/lib/gcc/xenon/4.7.1/32/libgcc.a(_umoddi3.o)
 .got2          0x0000000000000000        0x0 /usr/local/xenon/lib/gcc/xenon/4.7.1/32/libgcc.a(_umoddi3.o)
 .text          0x0000000000000000       0x84 /usr/local/xenon/lib/gcc/xenon/4.7.1/32/crtend.o
 .data          0x0000000000000000        0x0 /usr/local/xenon/lib/gcc/xenon/4.7.1/32/crtend.o
 .bss           0x0000000000000000        0x0 /usr/local/xenon/lib/gcc/xenon/4.7.1/32/crtend.o
 .got2          0x0000000000000000        0x4 /usr/local/xenon/lib/gcc/xenon/4.7.1/32/crtend.o
 .ctors         0x0000000000000000        0x4 /usr/local/xenon/lib/gcc/xenon/4.7.1/32/crtend.o
 .dtors         0x0000000000000000        0x4 /usr/local/xenon/lib/gcc/xenon/4.7.1/32/crtend.o
 .jcr           0x0000000000000000        0x4 /usr/local/xenon/lib/gcc/xenon/4.7.1/32/crtend.o
 .tm_clone_table
                0x0000000000000000        0x0 /usr/local/xenon/lib/gcc/xenon/4.7.1/32/crtend.o
 .init          0x0000000000000000        0x4 /usr/local/xenon/lib/gcc/xenon/4.7.1/32/crtend.o
 .text          0x0000000000000000        0x0 /usr/local/xenon/lib/gcc/xenon/4.7.1/../../../../xenon/lib/../lib/crtn.o
 .data          0x0000000000000000        0x0 /usr/local/xenon/lib/gcc/xenon/4.7.1/../../../../xenon/lib/../lib/crtn.o
 .bss           0x0000000000000000        0x0 /usr/local/xenon/lib/gcc/xenon/4.7.1/../../../../xenon/lib/../lib/crtn.o
 .init          0x0000000000000000       0x10 /usr/local/xenon/lib/gcc/xenon/4.7.1/../../../../xenon/lib/../lib/crtn.o
 .fini          0x0000000000000000       0x10 /usr/local/xenon/lib/gcc/xenon/4.7.1/../../../../xenon/lib/../lib/crtn.o

Memory Configuration

Name             Origin             Length             Attributes
*default*        0x0000000000000000 0xffffffffffffffff

Linker script and memory map

LOAD /usr/local/xenon/lib/gcc/xenon/4.7.1/../../../../xenon/lib/../lib/crt1.o
LOAD /usr/local/xenon/lib/gcc/xenon/4.7.1/../../../../xenon/lib/../lib/crti.o
LOAD /usr/local/xenon/lib/gcc/xenon/4.7.1/32/crtbegin.o
LOAD file.o
LOAD log.o
LOAD main.o
LOAD mount.o
LOAD tftp.o
LOAD httpd.o
LOAD httpd_flash.o
LOAD httpd_fuse.o
LOAD httpd_index.o
LOAD httpd_keyvault.o
LOAD kbootconf.o
LOAD puff.o
LOAD device_tree_include.o
LOAD /usr/local/xenon/usr/lib/libxenon.a
LOAD /usr/local/xenon/usr/lib/libfat.a
LOAD /usr/local/xenon/usr/lib/libext2fs.a
LOAD /usr/local/xenon/usr/lib/libntfs.a
LOAD /usr/local/xenon/usr/lib/libxtaf.a
LOAD /usr/local/xenon/xenon/lib/32/libm.a
LOAD /usr/local/xenon/lib/gcc/xenon/4.7.1/32/libgcc.a
LOAD /usr/local/xenon/xenon/lib/32/libc.a
LOAD /usr/local/xenon/lib/gcc/xenon/4.7.1/32/libgcc.a
LOAD /usr/local/xenon/lib/gcc/xenon/4.7.1/32/crtend.o
LOAD /usr/local/xenon/lib/gcc/xenon/4.7.1/../../../../xenon/lib/../lib/crtn.o
                0x0000000080000000                . = 0x80000000

.text           0x0000000080000000    0x5cc98
 *(.except*)
 .except        0x0000000080000000     0x1e30 /usr/local/xenon/usr/lib/libxenon.a(except.o)
                0x0000000080000000                secondary_lock
                0x0000000080000000                exc_base
                0x0000000080000004                secondary_alive
 *(.pagetable)
 .pagetable     0x0000000080001e30       0x40 /usr/local/xenon/usr/lib/libxenon.a(vm.o)
                0x0000000080001e30                pagetable
                0x0000000080001e70                pagetable_end = .
 *(.init*)
 *(.fini*)
 *(.text*)
 .text.call_ctors
                0x0000000080001e70       0x48 /usr/local/xenon/lib/gcc/xenon/4.7.1/../../../../xenon/lib/../lib/crt1.o
                0x0000000080001e70                call_ctors
 .text.c_register_frame
                0x0000000080001eb8        0xc /usr/local/xenon/lib/gcc/xenon/4.7.1/../../../../xenon/lib/../lib/crt1.o
                0x0000000080001eb8                c_register_frame
 .text.__crtmain
                0x0000000080001ec4       0x2c /usr/local/xenon/lib/gcc/xenon/4.7.1/../../../../xenon/lib/../lib/crt1.o
                0x0000000080001ec4                __crtmain
 .text.wait_and_cleanup_line
                0x0000000080001ef0       0x74 file.o
                0x0000000080001ef0                wait_and_cleanup_line
 .text.launch_file
                0x0000000080001f64      0x170 file.o
                0x0000000080001f64                launch_file
 .text.try_load_file
                0x00000000800020d4      0x12c file.o
                0x00000000800020d4                try_load_file
 .text.fileloop
                0x0000000080002200       0xf0 file.o
                0x0000000080002200                fileloop
 .text.tftp_loop
                0x00000000800022f0      0x124 file.o
                0x00000000800022f0                tftp_loop
 .text.log_hook
                0x0000000080002414       0x60 log.o
 .text.LogInit  0x0000000080002474       0x7c log.o
                0x0000000080002474                LogInit
 .text.LogDeInit
                0x00000000800024f0       0x10 log.o
                0x00000000800024f0                LogDeInit
 .text.reset_timebase_task
                0x0000000080002500       0x14 main.o
                0x0000000080002500                reset_timebase_task
 .text.do_asciiart
                0x0000000080002514       0x4c main.o
                0x0000000080002514                do_asciiart
 .text.dumpana  0x0000000080002560       0x74 main.o
                0x0000000080002560                dumpana
 .text.synchronize_timebases
                0x00000000800025d4       0xa0 main.o
                0x00000000800025d4                synchronize_timebases
 .text.startup.main
                0x0000000080002674      0x250 main.o
                0x0000000080002674                main
 .text.AddPartition
                0x00000000800028c4      0x2ec mount.o
 .text.FindPartitions
                0x0000000080002bb0      0x470 mount.o
 .text.mount_usb
                0x0000000080003020       0x30 mount.o
                0x0000000080003020                mount_usb
 .text.mount_all_devices
                0x0000000080003050       0xac mount.o
                0x0000000080003050                mount_all_devices
 .text.mftb     0x00000000800030fc       0x1c tftp.o
 .text.send_ack
                0x0000000080003118       0xa4 tftp.o
                0x0000000080003118                send_ack
 .text.tftp_recv
                0x00000000800031bc      0x318 tftp.o
 .text.do_tftp  0x00000000800034d4      0x420 tftp.o
                0x00000000800034d4                do_tftp
 .text.boot_tftp
                0x00000000800038f4       0xf0 tftp.o
                0x00000000800038f4                boot_tftp
 .text.boot_server_name
                0x00000000800039e4       0x94 tftp.o
                0x00000000800039e4                boot_server_name
 .text.boot_file_name
                0x0000000080003a78        0xc tftp.o
                0x0000000080003a78                boot_file_name
 .text.response_static_finish
                0x0000000080003a84        0xc httpd.o
 .text.response_mem_finish
                0x0000000080003a90        0xc httpd.o
 .text.conn_err
                0x0000000080003a9c        0x4 httpd.o
 .text.close_conn
                0x0000000080003aa0       0x8c httpd.o
 .text.response_static_process_request.isra.1
                0x0000000080003b2c       0x54 httpd.o
 .text.response_err404_process_request
                0x0000000080003b80       0x3c httpd.o
 .text.response_err400_process_request
                0x0000000080003bbc       0x4c httpd.o
 .text.response_log_process_request
                0x0000000080003c08       0xc8 httpd.o
 .text.response_mem_process_request
                0x0000000080003cd0       0xa0 httpd.o
 .text.response_shutdown_process_request
                0x0000000080003d70       0xa4 httpd.o
 .text.response_reboot_process_request
                0x0000000080003e14       0xa4 httpd.o
 .text.httpd_init
                0x0000000080003eb8       0x34 httpd.o
                0x0000000080003eb8                httpd_init
 .text.http_accept
                0x0000000080003eec       0xec httpd.o
 .text.httpd_available_sendbuffer
                0x0000000080003fd8       0x30 httpd.o
                0x0000000080003fd8                httpd_available_sendbuffer
 .text.httpd_put_sendbuffer
                0x0000000080004008       0xa4 httpd.o
                0x0000000080004008                httpd_put_sendbuffer
 .text.response_static_do_data
                0x00000000800040ac       0x9c httpd.o
 .text.response_mem_do_data
                0x0000000080004148       0xa8 httpd.o
 .text.httpd_put_sendbuffer_string
                0x00000000800041f0       0x44 httpd.o
                0x00000000800041f0                httpd_put_sendbuffer_string
 .text.httpd_get_descr
                0x0000000080004234       0x50 httpd.o
                0x0000000080004234                httpd_get_descr
 .text.httpd_start_response
                0x0000000080004284       0x2c httpd.o
                0x0000000080004284                httpd_start_response
 .text.httpd_do_std_header
                0x00000000800042b0       0x90 httpd.o
                0x00000000800042b0                httpd_do_std_header
 .text.response_mem_do_header
                0x0000000080004340      0x110 httpd.o
 .text.httpd_handle_server
                0x0000000080004450      0x1c0 httpd.o
 .text.send_data
                0x0000000080004610       0xec httpd.o
 .text.http_poll
                0x00000000800046fc       0x88 httpd.o
 .text.http_sent
                0x0000000080004784       0x60 httpd.o
 .text.httpd_receive
                0x00000000800047e4      0x2e0 httpd.o
                0x00000000800047e4                httpd_receive
 .text.http_recv
                0x0000000080004ac4       0x94 httpd.o
 .text.httpd_start
                0x0000000080004b58       0x5c httpd.o
                0x0000000080004b58                httpd_start
 .text.response_flash_process_request
                0x0000000080004bb4       0xd8 httpd_flash.o
                0x0000000080004bb4                response_flash_process_request
 .text.response_flash_do_header
                0x0000000080004c8c      0x168 httpd_flash.o
                0x0000000080004c8c                response_flash_do_header
 .text.response_flash_do_data
                0x0000000080004df4      0x160 httpd_flash.o
                0x0000000080004df4                response_flash_do_data
 .text.response_flash_finish
                0x0000000080004f54        0xc httpd_flash.o
                0x0000000080004f54                response_flash_finish
 .text.fuse_strcat
                0x0000000080004f60       0x34 httpd_fuse.o
                0x0000000080004f60                fuse_strcat
 .text.response_fuse_process_request
                0x0000000080004f94      0x20c httpd_fuse.o
                0x0000000080004f94                response_fuse_process_request
 .text.response_fuse_do_header
                0x00000000800051a0      0x140 httpd_fuse.o
                0x00000000800051a0                response_fuse_do_header
 .text.response_fuse_do_data
                0x00000000800052e0       0xb8 httpd_fuse.o
                0x00000000800052e0                response_fuse_do_data
 .text.response_fuse_finish
                0x0000000080005398       0x3c httpd_fuse.o
                0x0000000080005398                response_fuse_finish
 .text.response_index_process_request
                0x00000000800053d4      0x128 httpd_index.o
                0x00000000800053d4                response_index_process_request
 .text.response_index_do_header
                0x00000000800054fc       0xf8 httpd_index.o
                0x00000000800054fc                response_index_do_header
 .text.response_index_do_data
                0x00000000800055f4      0x144 httpd_index.o
                0x00000000800055f4                response_index_do_data
 .text.response_index_finish
                0x0000000080005738        0xc httpd_index.o
                0x0000000080005738                response_index_finish
 .text.response_keyvault_process_request
                0x0000000080005744      0x2e0 httpd_keyvault.o
                0x0000000080005744                response_keyvault_process_request
 .text.response_keyvault_do_header
                0x0000000080005a24      0x154 httpd_keyvault.o
                0x0000000080005a24                response_keyvault_do_header
 .text.response_keyvault_do_data
                0x0000000080005b78       0xbc httpd_keyvault.o
                0x0000000080005b78                response_keyvault_do_data
 .text.response_keyvault_finish
                0x0000000080005c34       0x44 httpd_keyvault.o
                0x0000000080005c34                response_keyvault_finish
 .text.strip    0x0000000080005c78       0x6c kbootconf.o
                0x0000000080005c78                strip
 .text.split    0x0000000080005ce4       0x6c kbootconf.o
                0x0000000080005ce4                split
 .text.kboot_loadfile
                0x0000000080005d50       0x70 kbootconf.o
                0x0000000080005d50                kboot_loadfile
 .text.kboot_set_config
                0x0000000080005dc0      0x1d0 kbootconf.o
                0x0000000080005dc0                kboot_set_config
 .text.kbootconf_parse
                0x0000000080005f90      0x690 kbootconf.o
                0x0000000080005f90                kbootconf_parse
 .text.user_prompt
                0x0000000080006620      0x2d4 kbootconf.o
                0x0000000080006620                user_prompt
 .text.try_kbootconf
                0x00000000800068f4      0x2cc kbootconf.o
                0x00000000800068f4                try_kbootconf
 .text.construct
                0x0000000080006bc0      0x140 puff.o
 .text.decode   0x0000000080006d00      0x100 puff.o
 .text.bits     0x0000000080006e00       0x80 puff.o
 .text.codes    0x0000000080006e80      0x17c puff.o
 .text.puff     0x0000000080006ffc      0x580 puff.o
                0x0000000080006ffc                puff
 .text.__check_argv
                0x000000008000757c       0x28 /usr/local/xenon/usr/lib/libxenon.a(argv.o)
                0x000000008000757c                __check_argv
 *fill*         0x00000000800075a4       0x5c 00
 .text          0x0000000080007600      0x2f4 /usr/local/xenon/usr/lib/libxenon.a(startup_from_xell.o)
                0x0000000080007600                _start
                0x00000000800077f8                wait
                0x0000000080007880                return_to_xell
 .text.console_pset32
                0x00000000800078f4       0x54 /usr/local/xenon/usr/lib/libxenon.a(console.o)
 .text.console_clrscr
                0x0000000080007948       0x7c /usr/local/xenon/usr/lib/libxenon.a(console.o)
                0x0000000080007948                console_clrscr
 .text.console_clrline
                0x00000000800079c4       0x70 /usr/local/xenon/usr/lib/libxenon.a(console.o)
                0x00000000800079c4                console_clrline
 .text.console_newline
                0x0000000080007a34       0xe8 /usr/local/xenon/usr/lib/libxenon.a(console.o)
                0x0000000080007a34                console_newline
 .text.console_putch
                0x0000000080007b1c      0x15c /usr/local/xenon/usr/lib/libxenon.a(console.o)
                0x0000000080007b1c                console_putch
 .text.console_stdout_hook
                0x0000000080007c78       0x4c /usr/local/xenon/usr/lib/libxenon.a(console.o)
 .text.console_init
                0x0000000080007cc4      0x14c /usr/local/xenon/usr/lib/libxenon.a(console.o)
                0x0000000080007cc4                console_init
 .text.console_set_colors
                0x0000000080007e10       0x14 /usr/local/xenon/usr/lib/libxenon.a(console.o)
                0x0000000080007e10                console_set_colors
 .text.xenon_ata_wait_ready
                0x0000000080007e24       0x1c /usr/local/xenon/usr/lib/libxenon.a(ata.o)
 .text.xenon_ata_pio_write
                0x0000000080007e40       0x64 /usr/local/xenon/usr/lib/libxenon.a(ata.o)
 .text.xenon_atapi_packet
                0x0000000080007ea4       0x84 /usr/local/xenon/usr/lib/libxenon.a(ata.o)
 .text.atapi_inserted
                0x0000000080007f28       0x18 /usr/local/xenon/usr/lib/libxenon.a(ata.o)
 .text.ata_startup
                0x0000000080007f40        0x8 /usr/local/xenon/usr/lib/libxenon.a(ata.o)
 .text.ata_inserted
                0x0000000080007f48       0x18 /usr/local/xenon/usr/lib/libxenon.a(ata.o)
 .text.ata_clearstatus
                0x0000000080007f60        0x8 /usr/local/xenon/usr/lib/libxenon.a(ata.o)
 .text.ata_shutdown
                0x0000000080007f68        0x8 /usr/local/xenon/usr/lib/libxenon.a(ata.o)
 .text.ata_sectors
                0x0000000080007f70        0xc /usr/local/xenon/usr/lib/libxenon.a(ata.o)
 .text.atapi_sectors
                0x0000000080007f7c        0xc /usr/local/xenon/usr/lib/libxenon.a(ata.o)
 .text.xenon_ata_dma_read
                0x0000000080007f88      0x1a8 /usr/local/xenon/usr/lib/libxenon.a(ata.o)
 .text.xenon_ata_setlba.constprop.9
                0x0000000080008130       0x38 /usr/local/xenon/usr/lib/libxenon.a(ata.o)
 .text.xenon_ata_setaddress.constprop.8
                0x0000000080008168      0x160 /usr/local/xenon/usr/lib/libxenon.a(ata.o)
 .text.ata_readsectors
                0x00000000800082c8       0x84 /usr/local/xenon/usr/lib/libxenon.a(ata.o)
 .text.ata_writesectors
                0x000000008000834c       0x94 /usr/local/xenon/usr/lib/libxenon.a(ata.o)
 .text.xenon_ata_pio_read
                0x00000000800083e0       0xcc /usr/local/xenon/usr/lib/libxenon.a(ata.o)
 .text.xenon_ata_identify
                0x00000000800084ac      0x2a0 /usr/local/xenon/usr/lib/libxenon.a(ata.o)
 .text.xenon_atapi_request_sense
                0x000000008000874c       0xa4 /usr/local/xenon/usr/lib/libxenon.a(ata.o)
                0x000000008000874c                xenon_atapi_request_sense
 .text.atapi_readsectors
                0x00000000800087f0       0xe8 /usr/local/xenon/usr/lib/libxenon.a(ata.o)
 .text.xenon_ata_init1
                0x00000000800088d8      0x108 /usr/local/xenon/usr/lib/libxenon.a(ata.o)
                0x00000000800088d8                xenon_ata_init1
 .text.xenon_ata_init
                0x00000000800089e0       0xa8 /usr/local/xenon/usr/lib/libxenon.a(ata.o)
                0x00000000800089e0                xenon_ata_init
 .text.xenon_atapi_init
                0x0000000080008a88       0xa8 /usr/local/xenon/usr/lib/libxenon.a(ata.o)
                0x0000000080008a88                xenon_atapi_init
 .text.htohl_32
                0x0000000080008b30       0x2c /usr/local/xenon/usr/lib/libxenon.a(iso9660.o)
 .text.bgrad_cache
                0x0000000080008b5c       0x48 /usr/local/xenon/usr/lib/libxenon.a(iso9660.o)
 .text._ISO9660_seek_r
                0x0000000080008ba4       0x9c /usr/local/xenon/usr/lib/libxenon.a(iso9660.o)
 .text._ISO9660_chdir_r
                0x0000000080008c40        0x8 /usr/local/xenon/usr/lib/libxenon.a(iso9660.o)
 .text._ISO9660_diropen_r
                0x0000000080008c48        0x8 /usr/local/xenon/usr/lib/libxenon.a(iso9660.o)
 .text._ISO9660_dirreset_r
                0x0000000080008c50        0x8 /usr/local/xenon/usr/lib/libxenon.a(iso9660.o)
 .text._ISO9660_dirnext_r
                0x0000000080008c58        0x8 /usr/local/xenon/usr/lib/libxenon.a(iso9660.o)
 .text._ISO9660_dirclose_r
                0x0000000080008c60        0x8 /usr/local/xenon/usr/lib/libxenon.a(iso9660.o)
 .text._ISO9660_statvfs_r
                0x0000000080008c68       0x3c /usr/local/xenon/usr/lib/libxenon.a(iso9660.o)
 .text.bclear_cache
                0x0000000080008ca4       0x60 /usr/local/xenon/usr/lib/libxenon.a(iso9660.o)
 .text.check_dev_name.constprop.1
                0x0000000080008d04       0x7c /usr/local/xenon/usr/lib/libxenon.a(iso9660.o)
 .text._ISO9660_close_r
                0x0000000080008d80       0x28 /usr/local/xenon/usr/lib/libxenon.a(iso9660.o)
 .text._ISO9660_fstat_r
                0x0000000080008da8       0x64 /usr/local/xenon/usr/lib/libxenon.a(iso9660.o)
 .text.iso_reset
                0x0000000080008e0c       0x84 /usr/local/xenon/usr/lib/libxenon.a(iso9660.o)
                0x0000000080008e0c                iso_reset
 .text.bread_cache
                0x0000000080008e90       0xd8 /usr/local/xenon/usr/lib/libxenon.a(iso9660.o)
 .text._ISO9660_read_r
                0x0000000080008f68      0x160 /usr/local/xenon/usr/lib/libxenon.a(iso9660.o)
 .text.find_object
                0x00000000800090c8      0x3a0 /usr/local/xenon/usr/lib/libxenon.a(iso9660.o)
 .text.iso_open
                0x0000000080009468      0x370 /usr/local/xenon/usr/lib/libxenon.a(iso9660.o)
 .text._ISO9660_stat_r
                0x00000000800097d8       0xa4 /usr/local/xenon/usr/lib/libxenon.a(iso9660.o)
 .text._ISO9660_open_r
                0x000000008000987c       0x34 /usr/local/xenon/usr/lib/libxenon.a(iso9660.o)
 .text.fs_iso9660_init
                0x00000000800098b0       0xbc /usr/local/xenon/usr/lib/libxenon.a(iso9660.o)
                0x00000000800098b0                fs_iso9660_init
 .text.ISO9660_Mount
                0x000000008000996c      0x100 /usr/local/xenon/usr/lib/libxenon.a(iso9660.o)
                0x000000008000996c                ISO9660_Mount
 .text.ISO9660_GetVolumeLabel
                0x0000000080009a6c       0x38 /usr/local/xenon/usr/lib/libxenon.a(iso9660.o)
                0x0000000080009a6c                ISO9660_GetVolumeLabel
 .text.get_controller_data
                0x0000000080009aa4       0x60 /usr/local/xenon/usr/lib/libxenon.a(input.o)
                0x0000000080009aa4                get_controller_data
 .text.set_controller_data
                0x0000000080009b04       0x54 /usr/local/xenon/usr/lib/libxenon.a(input.o)
                0x0000000080009b04                set_controller_data
 .text.vfs_console_write
                0x0000000080009b58       0x90 /usr/local/xenon/usr/lib/libxenon.a(newlib.o)
                0x0000000080009b58                vfs_console_write
 .text.__malloc_lock
                0x0000000080009be8       0x18 /usr/local/xenon/usr/lib/libxenon.a(newlib.o)
                0x0000000080009be8                __malloc_lock
 .text.__malloc_unlock
                0x0000000080009c00       0x18 /usr/local/xenon/usr/lib/libxenon.a(newlib.o)
                0x0000000080009c00                __malloc_unlock
 .text._exit    0x0000000080009c18       0x28 /usr/local/xenon/usr/lib/libxenon.a(newlib.o)
                0x0000000080009c18                _exit
 .text.sbrk     0x0000000080009c40       0x34 /usr/local/xenon/usr/lib/libxenon.a(newlib.o)
                0x0000000080009c40                sbrk
 .text.abort    0x0000000080009c74       0x2c /usr/local/xenon/usr/lib/libxenon.a(newlib.o)
                0x0000000080009c74                abort
 .text.execve   0x0000000080009ca0       0x18 /usr/local/xenon/usr/lib/libxenon.a(newlib.o)
                0x0000000080009ca0                execve
 .text.fork     0x0000000080009cb8       0x18 /usr/local/xenon/usr/lib/libxenon.a(newlib.o)
                0x0000000080009cb8                fork
 .text.getpid   0x0000000080009cd0       0x18 /usr/local/xenon/usr/lib/libxenon.a(newlib.o)
                0x0000000080009cd0                getpid
 .text.gettimeofday
                0x0000000080009ce8       0x3c /usr/local/xenon/usr/lib/libxenon.a(newlib.o)
                0x0000000080009ce8                gettimeofday
 .text.isatty   0x0000000080009d24        0x8 /usr/local/xenon/usr/lib/libxenon.a(newlib.o)
                0x0000000080009d24                isatty
 .text.__release_handle
                0x0000000080009d2c       0x4c /usr/local/xenon/usr/lib/libxenon.a(newlib.o)
                0x0000000080009d2c                __release_handle
 .text.__alloc_handle
                0x0000000080009d78       0x68 /usr/local/xenon/usr/lib/libxenon.a(newlib.o)
                0x0000000080009d78                __alloc_handle
 .text.__get_handle
                0x0000000080009de0       0x28 /usr/local/xenon/usr/lib/libxenon.a(newlib.o)
                0x0000000080009de0                __get_handle
 .text.setDefaultDevice
                0x0000000080009e08       0x18 /usr/local/xenon/usr/lib/libxenon.a(newlib.o)
                0x0000000080009e08                setDefaultDevice
 .text.FindDevice
                0x0000000080009e20       0xd0 /usr/local/xenon/usr/lib/libxenon.a(newlib.o)
                0x0000000080009e20                FindDevice
 .text.RemoveDevice
                0x0000000080009ef0       0x4c /usr/local/xenon/usr/lib/libxenon.a(newlib.o)
                0x0000000080009ef0                RemoveDevice
 .text.AddDevice
                0x0000000080009f3c       0xb0 /usr/local/xenon/usr/lib/libxenon.a(newlib.o)
                0x0000000080009f3c                AddDevice
 .text.GetDeviceOpTab
                0x0000000080009fec       0x40 /usr/local/xenon/usr/lib/libxenon.a(newlib.o)
                0x0000000080009fec                GetDeviceOpTab
 .text.open     0x000000008000a02c       0xd4 /usr/local/xenon/usr/lib/libxenon.a(newlib.o)
                0x000000008000a02c                open
 .text.read     0x000000008000a100       0xa4 /usr/local/xenon/usr/lib/libxenon.a(newlib.o)
                0x000000008000a100                read
 .text.write    0x000000008000a1a4       0xb0 /usr/local/xenon/usr/lib/libxenon.a(newlib.o)
                0x000000008000a1a4                write
 .text.fstat    0x000000008000a254       0xa0 /usr/local/xenon/usr/lib/libxenon.a(newlib.o)
                0x000000008000a254                fstat
 .text.stat     0x000000008000a2f4       0x8c /usr/local/xenon/usr/lib/libxenon.a(newlib.o)
                0x000000008000a2f4                stat
 .text.lseek    0x000000008000a380       0xa4 /usr/local/xenon/usr/lib/libxenon.a(newlib.o)
                0x000000008000a380                lseek
 .text.close    0x000000008000a424       0x88 /usr/local/xenon/usr/lib/libxenon.a(newlib.o)
                0x000000008000a424                close
 .text._concatenate_path
                0x000000008000a4ac      0x1b4 /usr/local/xenon/usr/lib/libxenon.a(newlib.o)
                0x000000008000a4ac                _concatenate_path
 .text.chdir    0x000000008000a660      0x138 /usr/local/xenon/usr/lib/libxenon.a(newlib.o)
                0x000000008000a660                chdir
 .text.xenon_sbrk
                0x000000008000a798       0x2c /usr/local/xenon/usr/lib/libxenon.a(xenon_syscalls.o)
 .text.xenon_gettimeofday
                0x000000008000a7c4       0xa4 /usr/local/xenon/usr/lib/libxenon.a(xenon_syscalls.o)
 .text.xenon_malloc_unlock
                0x000000008000a868       0xc8 /usr/local/xenon/usr/lib/libxenon.a(xenon_syscalls.o)
 .text.xenon_malloc_lock
                0x000000008000a930       0xf4 /usr/local/xenon/usr/lib/libxenon.a(xenon_syscalls.o)
 .text.shutdown_drivers
                0x000000008000aa24       0x30 /usr/local/xenon/usr/lib/libxenon.a(xenon_syscalls.o)
                0x000000008000aa24                shutdown_drivers
 .text.try_return_to_xell
                0x000000008000aa54       0x64 /usr/local/xenon/usr/lib/libxenon.a(xenon_syscalls.o)
                0x000000008000aa54                try_return_to_xell
 .text.xenon_exit
                0x000000008000aab8      0x154 /usr/local/xenon/usr/lib/libxenon.a(xenon_syscalls.o)
 .text          0x000000008000ac0c       0x94 /usr/local/xenon/usr/lib/libxenon.a(atomic.o)
                0x000000008000ac0c                atomic_inc
                0x000000008000ac20                atomic_dec
                0x000000008000ac34                atomic_clearset
                0x000000008000ac4c                lock
                0x000000008000ac88                unlock
 .text          0x000000008000aca0       0xa8 /usr/local/xenon/usr/lib/libxenon.a(cache.o)
                0x000000008000aca0                memdcbt
                0x000000008000acc8                memdcbst
                0x000000008000acf0                memdcbf
                0x000000008000ad18                memicbi
 .text.flush_console
                0x000000008000ad48       0x4c /usr/local/xenon/usr/lib/libxenon.a(c_except.o)
 .text.crashdump
                0x000000008000ad94      0x2f4 /usr/local/xenon/usr/lib/libxenon.a(c_except.o)
                0x000000008000ad94                crashdump
 .text.tdelay   0x000000008000b088       0x48 /usr/local/xenon/usr/lib/libxenon.a(time.o)
 .text.udelay   0x000000008000b0d0       0x24 /usr/local/xenon/usr/lib/libxenon.a(time.o)
                0x000000008000b0d0                udelay
 .text.mdelay   0x000000008000b0f4       0x18 /usr/local/xenon/usr/lib/libxenon.a(time.o)
                0x000000008000b0f4                mdelay
 .text.delay    0x000000008000b10c       0x18 /usr/local/xenon/usr/lib/libxenon.a(time.o)
                0x000000008000b10c                delay
 .text.usbctrl_queue_intreq
                0x000000008000b124       0x50 /usr/local/xenon/usr/lib/libxenon.a(usbctrl.o)
 .text.usbctrl_set_led_callback
                0x000000008000b174       0x3c /usr/local/xenon/usr/lib/libxenon.a(usbctrl.o)
 .text.usbctrl_set_rol
                0x000000008000b1b0       0x2c /usr/local/xenon/usr/lib/libxenon.a(usbctrl.o)
                0x000000008000b1b0                usbctrl_set_rol
 .text.usbctrl_detach
                0x000000008000b1dc       0x8c /usr/local/xenon/usr/lib/libxenon.a(usbctrl.o)
 .text.usbctrl_set_leds
                0x000000008000b268      0x12c /usr/local/xenon/usr/lib/libxenon.a(usbctrl.o)
                0x000000008000b268                usbctrl_set_leds
 .text.usbctrl_ireq_callback
                0x000000008000b394      0x268 /usr/local/xenon/usr/lib/libxenon.a(usbctrl.o)
 .text.usbctrl_poll
                0x000000008000b5fc       0xb0 /usr/local/xenon/usr/lib/libxenon.a(usbctrl.o)
                0x000000008000b5fc                usbctrl_poll
 .text.usbctrl_attach
                0x000000008000b6ac      0x340 /usr/local/xenon/usr/lib/libxenon.a(usbctrl.o)
 .text.usb_create_pipe
                0x000000008000b9ec       0xd8 /usr/local/xenon/usr/lib/libxenon.a(usbd.o)
                0x000000008000b9ec                usb_create_pipe
 .text.usb_open_pipe
                0x000000008000bac4       0x84 /usr/local/xenon/usr/lib/libxenon.a(usbd.o)
                0x000000008000bac4                usb_open_pipe
 .text.usb_destroy_all_pipes
                0x000000008000bb48       0x74 /usr/local/xenon/usr/lib/libxenon.a(usbd.o)
                0x000000008000bb48                usb_destroy_all_pipes
 .text.usb_destroy_device
                0x000000008000bbbc       0x54 /usr/local/xenon/usr/lib/libxenon.a(usbd.o)
                0x000000008000bbbc                usb_destroy_device
 .text.usb_create_device
                0x000000008000bc10       0x80 /usr/local/xenon/usr/lib/libxenon.a(usbd.o)
                0x000000008000bc10                usb_create_device
 .text.usb_make_request
                0x000000008000bc90       0x90 /usr/local/xenon/usr/lib/libxenon.a(usbd.o)
                0x000000008000bc90                usb_make_request
 .text.usb_poll
                0x000000008000bd20       0x10 /usr/local/xenon/usr/lib/libxenon.a(usbd.o)
                0x000000008000bd20                usb_poll
 .text.usb_daemon
                0x000000008000bd30       0x1c /usr/local/xenon/usr/lib/libxenon.a(usbd.o)
                0x000000008000bd30                usb_daemon
 .text.usb_free_request
                0x000000008000bd4c       0x28 /usr/local/xenon/usr/lib/libxenon.a(usbd.o)
                0x000000008000bd4c                usb_free_request
 .text.usb_delay_ms
                0x000000008000bd74        0x8 /usr/local/xenon/usr/lib/libxenon.a(usbd.o)
                0x000000008000bd74                usb_delay_ms
 .text.usb_queue_request
                0x000000008000bd7c       0x34 /usr/local/xenon/usr/lib/libxenon.a(usbd.o)
                0x000000008000bd7c                usb_queue_request
 .text.usb_wait_request
                0x000000008000bdb0       0x40 /usr/local/xenon/usr/lib/libxenon.a(usbd.o)
                0x000000008000bdb0                usb_wait_request
 .text.usb_sync_request
                0x000000008000bdf0       0x34 /usr/local/xenon/usr/lib/libxenon.a(usbd.o)
                0x000000008000bdf0                usb_sync_request
 .text.usb_new_address
                0x000000008000be24       0x34 /usr/local/xenon/usr/lib/libxenon.a(usbd.o)
                0x000000008000be24                usb_new_address
 .text.usb_set_ep0mps
                0x000000008000be58       0x58 /usr/local/xenon/usr/lib/libxenon.a(usbd.o)
                0x000000008000be58                usb_set_ep0mps
 .text.usb_clear_stall
                0x000000008000beb0      0x100 /usr/local/xenon/usr/lib/libxenon.a(usbd.o)
                0x000000008000beb0                usb_clear_stall
 .text.usb_std_request
                0x000000008000bfb0      0x234 /usr/local/xenon/usr/lib/libxenon.a(usbd.o)
                0x000000008000bfb0                usb_std_request
 .text.usb_simple_request
                0x000000008000c1e4       0x18 /usr/local/xenon/usr/lib/libxenon.a(usbd.o)
                0x000000008000c1e4                usb_simple_request
 .text.usb_set_address
                0x000000008000c1fc       0x9c /usr/local/xenon/usr/lib/libxenon.a(usbd.o)
                0x000000008000c1fc                usb_set_address
 .text.usb_set_configuration
                0x000000008000c298       0x14 /usr/local/xenon/usr/lib/libxenon.a(usbd.o)
                0x000000008000c298                usb_set_configuration
 .text.usb_get_descriptor
                0x000000008000c2ac       0x24 /usr/local/xenon/usr/lib/libxenon.a(usbd.o)
                0x000000008000c2ac                usb_get_descriptor
 .text.usb_get_string
                0x000000008000c2d0      0x100 /usr/local/xenon/usr/lib/libxenon.a(usbd.o)
                0x000000008000c2d0                usb_get_string
 .text.usb_get_device_descriptor
                0x000000008000c3d0       0x90 /usr/local/xenon/usr/lib/libxenon.a(usbd.o)
                0x000000008000c3d0                usb_get_device_descriptor
 .text.usb_get_config_descriptor
                0x000000008000c460       0x8c /usr/local/xenon/usr/lib/libxenon.a(usbd.o)
                0x000000008000c460                usb_get_config_descriptor
 .text.usb_get_device_status
                0x000000008000c4ec       0x1c /usr/local/xenon/usr/lib/libxenon.a(usbd.o)
                0x000000008000c4ec                usb_get_device_status
 .text.usb_complete_request
                0x000000008000c508       0x20 /usr/local/xenon/usr/lib/libxenon.a(usbd.o)
                0x000000008000c508                usb_complete_request
 .text.usb_initroot
                0x000000008000c528      0x150 /usr/local/xenon/usr/lib/libxenon.a(usbd.o)
                0x000000008000c528                usb_initroot
 .text.usb_find_cfg_descr
                0x000000008000c678       0x54 /usr/local/xenon/usr/lib/libxenon.a(usbd.o)
                0x000000008000c678                usb_find_cfg_descr
 .text.usb_find_driver
                0x000000008000c6cc      0x158 /usr/local/xenon/usr/lib/libxenon.a(usbdevs.o)
                0x000000008000c6cc                usb_find_driver
 .text.usbhid_detach
                0x000000008000c824        0x8 /usr/local/xenon/usr/lib/libxenon.a(usbhid.o)
 .text.usbhid_attach
                0x000000008000c82c      0x168 /usr/local/xenon/usr/lib/libxenon.a(usbhid.o)
 .text.usbhid_kbd_scan1.isra.0.part.1
                0x000000008000c994       0x78 /usr/local/xenon/usr/lib/libxenon.a(usbhid.o)
 .text.usbhid_ireq_callback
                0x000000008000ca0c      0x1a0 /usr/local/xenon/usr/lib/libxenon.a(usbhid.o)
 .text.usbhub_markdetached1
                0x000000008000cbac       0x14 /usr/local/xenon/usr/lib/libxenon.a(usbhub.o)
 .text.usbhub_get_port_status
                0x000000008000cbc0       0x1c /usr/local/xenon/usr/lib/libxenon.a(usbhub.o)
 .text.usbhub_ireq_callback
                0x000000008000cbdc       0x8c /usr/local/xenon/usr/lib/libxenon.a(usbhub.o)
 .text.usbhub_map_tree1
                0x000000008000cc68       0x7c /usr/local/xenon/usr/lib/libxenon.a(usbhub.o)
 .text.usbhub_detach
                0x000000008000cce4      0x13c /usr/local/xenon/usr/lib/libxenon.a(usbhub.o)
 .text.usbhub_attach
                0x000000008000ce20      0x1a4 /usr/local/xenon/usr/lib/libxenon.a(usbhub.o)
 .text.usbhub_map_tree
                0x000000008000cfc4       0x18 /usr/local/xenon/usr/lib/libxenon.a(usbhub.o)
                0x000000008000cfc4                usbhub_map_tree
 .text.usbhub_map_from_device
                0x000000008000cfdc       0x14 /usr/local/xenon/usr/lib/libxenon.a(usbhub.o)
                0x000000008000cfdc                usbhub_map_from_device
 .text.usbhub_scan1
                0x000000008000cff0      0x564 /usr/local/xenon/usr/lib/libxenon.a(usbhub.o)
 .text.usb_scan
                0x000000008000d554       0x10 /usr/local/xenon/usr/lib/libxenon.a(usbhub.o)
                0x000000008000d554                usb_scan
 .text.usb_init_one_ohci
                0x000000008000d564       0xcc /usr/local/xenon/usr/lib/libxenon.a(usbmain.o)
 .text.usb_shutdown
                0x000000008000d630       0xbc /usr/local/xenon/usr/lib/libxenon.a(usbmain.o)
                0x000000008000d630                usb_shutdown
 .text.usb_init
                0x000000008000d6ec      0x108 /usr/local/xenon/usr/lib/libxenon.a(usbmain.o)
                0x000000008000d6ec                usb_init
 .text.usb_do_poll
                0x000000008000d7f4       0xa8 /usr/local/xenon/usr/lib/libxenon.a(usbmain.o)
                0x000000008000d7f4                usb_do_poll
 .text.USBStorage_True
                0x000000008000d89c        0x8 /usr/local/xenon/usr/lib/libxenon.a(tinyehci.o)
 .text.USBStorage_Inserted_0
                0x000000008000d8a4        0xc /usr/local/xenon/usr/lib/libxenon.a(tinyehci.o)
                0x000000008000d8a4                USBStorage_Inserted_0
 .text.USBStorage_Inserted_1
                0x000000008000d8b0        0xc /usr/local/xenon/usr/lib/libxenon.a(tinyehci.o)
                0x000000008000d8b0                USBStorage_Inserted_1
 .text.USBStorage_Inserted_2
                0x000000008000d8bc        0xc /usr/local/xenon/usr/lib/libxenon.a(tinyehci.o)
                0x000000008000d8bc                USBStorage_Inserted_2
 .text.qtd_fill
                0x000000008000d8c8       0xc0 /usr/local/xenon/usr/lib/libxenon.a(tinyehci.o)
 .text.ehci_qtd_alloc
                0x000000008000d988       0x7c /usr/local/xenon/usr/lib/libxenon.a(tinyehci.o)
 .text.handshake.isra.5
                0x000000008000da04      0x180 /usr/local/xenon/usr/lib/libxenon.a(tinyehci.o)
 .text.ehci_mem_init
                0x000000008000db84       0xf8 /usr/local/xenon/usr/lib/libxenon.a(tinyehci.o)
                0x000000008000db84                ehci_mem_init
 .text.qh_urb_transaction
                0x000000008000dc7c      0x1bc /usr/local/xenon/usr/lib/libxenon.a(tinyehci.o)
                0x000000008000dc7c                qh_urb_transaction
 .text.ehci_do_urb
                0x000000008000de38      0x3cc /usr/local/xenon/usr/lib/libxenon.a(tinyehci.o)
                0x000000008000de38                ehci_do_urb
 .text.ehci_control_message
                0x000000008000e204       0x84 /usr/local/xenon/usr/lib/libxenon.a(tinyehci.o)
                0x000000008000e204                ehci_control_message
 .text.ehci_bulk_message
                0x000000008000e288       0x48 /usr/local/xenon/usr/lib/libxenon.a(tinyehci.o)
                0x000000008000e288                ehci_bulk_message
 .text.__send_cbw
                0x000000008000e2d0      0x110 /usr/local/xenon/usr/lib/libxenon.a(tinyehci.o)
 .text.ehci_reset_port_old
                0x000000008000e3e0      0x19c /usr/local/xenon/usr/lib/libxenon.a(tinyehci.o)
                0x000000008000e3e0                ehci_reset_port_old
 .text.ehci_adquire_port
                0x000000008000e57c       0x94 /usr/local/xenon/usr/lib/libxenon.a(tinyehci.o)
                0x000000008000e57c                ehci_adquire_port
 .text.ehci_reset_usb_port
                0x000000008000e610      0x170 /usr/local/xenon/usr/lib/libxenon.a(tinyehci.o)
                0x000000008000e610                ehci_reset_usb_port
 .text.ehci_reset_port2
                0x000000008000e780       0x6c /usr/local/xenon/usr/lib/libxenon.a(tinyehci.o)
                0x000000008000e780                ehci_reset_port2
 .text.USB_FreeDescriptors
                0x000000008000e7ec       0xc8 /usr/local/xenon/usr/lib/libxenon.a(tinyehci.o)
                0x000000008000e7ec                USB_FreeDescriptors
 .text.USB_GetDescriptors
                0x000000008000e8b4      0x34c /usr/local/xenon/usr/lib/libxenon.a(tinyehci.o)
                0x000000008000e8b4                USB_GetDescriptors
 .text.USB_GetConfiguration
                0x000000008000ec00       0x80 /usr/local/xenon/usr/lib/libxenon.a(tinyehci.o)
                0x000000008000ec00                USB_GetConfiguration
 .text.USB_SetConfiguration
                0x000000008000ec80       0x1c /usr/local/xenon/usr/lib/libxenon.a(tinyehci.o)
                0x000000008000ec80                USB_SetConfiguration
 .text.USB_SetAlternativeInterface
                0x000000008000ec9c       0x28 /usr/local/xenon/usr/lib/libxenon.a(tinyehci.o)
                0x000000008000ec9c                USB_SetAlternativeInterface
 .text.USB_ClearHalt
                0x000000008000ecc4       0x1c /usr/local/xenon/usr/lib/libxenon.a(tinyehci.o)
                0x000000008000ecc4                USB_ClearHalt
 .text.ehci_init_port
                0x000000008000ece0      0x140 /usr/local/xenon/usr/lib/libxenon.a(tinyehci.o)
                0x000000008000ece0                ehci_init_port
 .text.ehci_reset_port
                0x000000008000ee20       0x50 /usr/local/xenon/usr/lib/libxenon.a(tinyehci.o)
                0x000000008000ee20                ehci_reset_port
 .text.ehci_discover
                0x000000008000ee70       0x54 /usr/local/xenon/usr/lib/libxenon.a(tinyehci.o)
                0x000000008000ee70                ehci_discover
 .text.EHCI_do_one
                0x000000008000eec4      0x144 /usr/local/xenon/usr/lib/libxenon.a(tinyehci.o)
 .text.ehci_reset_device
                0x000000008000f008        0x8 /usr/local/xenon/usr/lib/libxenon.a(tinyehci.o)
                0x000000008000f008                ehci_reset_device
 .text.find_ehci_data
                0x000000008000f010       0x3c /usr/local/xenon/usr/lib/libxenon.a(tinyehci.o)
                0x000000008000f010                find_ehci_data
 .text.USBStorage_Close
                0x000000008000f04c       0x44 /usr/local/xenon/usr/lib/libxenon.a(tinyehci.o)
                0x000000008000f04c                USBStorage_Close
 .text.USBStorage_ReadCapacity
                0x000000008000f090       0xbc /usr/local/xenon/usr/lib/libxenon.a(tinyehci.o)
                0x000000008000f090                USBStorage_ReadCapacity
 .text.USBStorage_MountLUN
                0x000000008000f14c      0x1d8 /usr/local/xenon/usr/lib/libxenon.a(tinyehci.o)
                0x000000008000f14c                USBStorage_MountLUN
 .text.__usbstorage_reset.isra.9
                0x000000008000f324      0x1ac /usr/local/xenon/usr/lib/libxenon.a(tinyehci.o)
 .text.USBStorage_Open
                0x000000008000f4d0      0x378 /usr/local/xenon/usr/lib/libxenon.a(tinyehci.o)
                0x000000008000f4d0                USBStorage_Open
 .text.__cycle.constprop.14
                0x000000008000f848      0x284 /usr/local/xenon/usr/lib/libxenon.a(tinyehci.o)
 .text.USBStorage_Inquiry
                0x000000008000facc       0xa4 /usr/local/xenon/usr/lib/libxenon.a(tinyehci.o)
                0x000000008000facc                USBStorage_Inquiry
 .text.USBStorage_Read
                0x000000008000fb70      0x160 /usr/local/xenon/usr/lib/libxenon.a(tinyehci.o)
                0x000000008000fb70                USBStorage_Read
 .text.USBStorage_Write
                0x000000008000fcd0      0x160 /usr/local/xenon/usr/lib/libxenon.a(tinyehci.o)
                0x000000008000fcd0                USBStorage_Write
 .text.USBStorage_Try_Device
                0x000000008000fe30      0x164 /usr/local/xenon/usr/lib/libxenon.a(tinyehci.o)
                0x000000008000fe30                USBStorage_Try_Device
 .text.USBStorage_Init
                0x000000008000ff94      0x234 /usr/local/xenon/usr/lib/libxenon.a(tinyehci.o)
                0x000000008000ff94                USBStorage_Init
 .text.USBStorage_Get_Capacity
                0x00000000800101c8       0x7c /usr/local/xenon/usr/lib/libxenon.a(tinyehci.o)
                0x00000000800101c8                USBStorage_Get_Capacity
 .text.USBStorage_devsectors_2
                0x0000000080010244       0x28 /usr/local/xenon/usr/lib/libxenon.a(tinyehci.o)
                0x0000000080010244                USBStorage_devsectors_2
 .text.USBStorage_devsectors_1
                0x000000008001026c       0x28 /usr/local/xenon/usr/lib/libxenon.a(tinyehci.o)
                0x000000008001026c                USBStorage_devsectors_1
 .text.USBStorage_devsectors_0
                0x0000000080010294       0x28 /usr/local/xenon/usr/lib/libxenon.a(tinyehci.o)
                0x0000000080010294                USBStorage_devsectors_0
 .text.unplug_procedure
                0x00000000800102bc       0xec /usr/local/xenon/usr/lib/libxenon.a(tinyehci.o)
                0x00000000800102bc                unplug_procedure
 .text.USBStorage_Read_Sectors
                0x00000000800103a8      0x110 /usr/local/xenon/usr/lib/libxenon.a(tinyehci.o)
                0x00000000800103a8                USBStorage_Read_Sectors
 .text.USBStorage_Read_Sectors_2
                0x00000000800104b8       0x1c /usr/local/xenon/usr/lib/libxenon.a(tinyehci.o)
                0x00000000800104b8                USBStorage_Read_Sectors_2
 .text.USBStorage_Read_Sectors_1
                0x00000000800104d4       0x1c /usr/local/xenon/usr/lib/libxenon.a(tinyehci.o)
                0x00000000800104d4                USBStorage_Read_Sectors_1
 .text.USBStorage_Read_Sectors_0
                0x00000000800104f0       0x1c /usr/local/xenon/usr/lib/libxenon.a(tinyehci.o)
                0x00000000800104f0                USBStorage_Read_Sectors_0
 .text.USBStorage_Write_Sectors
                0x000000008001050c      0x110 /usr/local/xenon/usr/lib/libxenon.a(tinyehci.o)
                0x000000008001050c                USBStorage_Write_Sectors
 .text.USBStorage_Write_Sectors_2
                0x000000008001061c       0x1c /usr/local/xenon/usr/lib/libxenon.a(tinyehci.o)
                0x000000008001061c                USBStorage_Write_Sectors_2
 .text.USBStorage_Write_Sectors_1
                0x0000000080010638       0x1c /usr/local/xenon/usr/lib/libxenon.a(tinyehci.o)
                0x0000000080010638                USBStorage_Write_Sectors_1
 .text.USBStorage_Write_Sectors_0
                0x0000000080010654       0x1c /usr/local/xenon/usr/lib/libxenon.a(tinyehci.o)
                0x0000000080010654                USBStorage_Write_Sectors_0
 .text.EHCI_Init
                0x0000000080010670       0x50 /usr/local/xenon/usr/lib/libxenon.a(tinyehci.o)
                0x0000000080010670                EHCI_Init
 .text.data_breakpoint
                0x00000000800106c0       0x38 /usr/local/xenon/usr/lib/libxenon.a(debug.o)
                0x00000000800106c0                data_breakpoint
 .text.uprintf  0x00000000800106f8       0x94 /usr/local/xenon/usr/lib/libxenon.a(xenon_smc.o)
                0x00000000800106f8                uprintf
 .text.xenon_smc_send_message
                0x000000008001078c       0xa0 /usr/local/xenon/usr/lib/libxenon.a(xenon_smc.o)
                0x000000008001078c                xenon_smc_send_message
 .text.xenon_smc_receive_message
                0x000000008001082c       0x84 /usr/local/xenon/usr/lib/libxenon.a(xenon_smc.o)
                0x000000008001082c                xenon_smc_receive_message
 .text.xenon_smc_get_ir
                0x00000000800108b0       0x14 /usr/local/xenon/usr/lib/libxenon.a(xenon_smc.o)
                0x00000000800108b0                xenon_smc_get_ir
 .text.xenon_smc_handle_bulk
                0x00000000800108c4       0x74 /usr/local/xenon/usr/lib/libxenon.a(xenon_smc.o)
                0x00000000800108c4                xenon_smc_handle_bulk
 .text.xenon_smc_poll
                0x0000000080010938       0x5c /usr/local/xenon/usr/lib/libxenon.a(xenon_smc.o)
                0x0000000080010938                xenon_smc_poll
 .text.xenon_smc_receive_response
                0x0000000080010994       0x48 /usr/local/xenon/usr/lib/libxenon.a(xenon_smc.o)
                0x0000000080010994                xenon_smc_receive_response
 .text.xenon_smc_ana_write
                0x00000000800109dc       0xa0 /usr/local/xenon/usr/lib/libxenon.a(xenon_smc.o)
                0x00000000800109dc                xenon_smc_ana_write
 .text.xenon_smc_ana_read
                0x0000000080010a7c       0xc0 /usr/local/xenon/usr/lib/libxenon.a(xenon_smc.o)
                0x0000000080010a7c                xenon_smc_ana_read
 .text.xenon_smc_i2c_ddc_lock
                0x0000000080010b3c       0x7c /usr/local/xenon/usr/lib/libxenon.a(xenon_smc.o)
                0x0000000080010b3c                xenon_smc_i2c_ddc_lock
 .text.xenon_smc_i2c_write
                0x0000000080010bb8       0xac /usr/local/xenon/usr/lib/libxenon.a(xenon_smc.o)
                0x0000000080010bb8                xenon_smc_i2c_write
 .text.xenon_smc_i2c_read
                0x0000000080010c64       0xc4 /usr/local/xenon/usr/lib/libxenon.a(xenon_smc.o)
                0x0000000080010c64                xenon_smc_i2c_read
 .text.xenon_smc_power_shutdown
                0x0000000080010d28       0x40 /usr/local/xenon/usr/lib/libxenon.a(xenon_smc.o)
                0x0000000080010d28                xenon_smc_power_shutdown
 .text.xenon_smc_power_reboot
                0x0000000080010d68       0x48 /usr/local/xenon/usr/lib/libxenon.a(xenon_smc.o)
                0x0000000080010d68                xenon_smc_power_reboot
 .text.xenon_smc_start_bootanim
                0x0000000080010db0       0x4c /usr/local/xenon/usr/lib/libxenon.a(xenon_smc.o)
                0x0000000080010db0                xenon_smc_start_bootanim
 .text.xenon_smc_read_avpack
                0x0000000080010dfc       0x48 /usr/local/xenon/usr/lib/libxenon.a(xenon_smc.o)
                0x0000000080010dfc                xenon_smc_read_avpack
 .text.xenon_smc_set_fan_algorithm
                0x0000000080010e44       0x3c /usr/local/xenon/usr/lib/libxenon.a(xenon_smc.o)
                0x0000000080010e44                xenon_smc_set_fan_algorithm
 .text.wakeup_cpus
                0x0000000080010e80       0xb8 /usr/local/xenon/usr/lib/libxenon.a(xenon_power.o)
                0x0000000080010e80                wakeup_cpus
 .text.prepare_sleep
                0x0000000080010f38       0x70 /usr/local/xenon/usr/lib/libxenon.a(xenon_power.o)
                0x0000000080010f38                prepare_sleep
 .text.xenon_thread_sleep
                0x0000000080010fa8       0x5c /usr/local/xenon/usr/lib/libxenon.a(xenon_power.o)
                0x0000000080010fa8                xenon_thread_sleep
 .text.xenon_set_speed
                0x0000000080011004      0x354 /usr/local/xenon/usr/lib/libxenon.a(xenon_power.o)
                0x0000000080011004                xenon_set_speed
 .text.xenon_run_thread_task
                0x0000000080011358       0x3c /usr/local/xenon/usr/lib/libxenon.a(xenon_power.o)
                0x0000000080011358                xenon_run_thread_task
 .text.xenon_is_thread_task_running
                0x0000000080011394       0x20 /usr/local/xenon/usr/lib/libxenon.a(xenon_power.o)
                0x0000000080011394                xenon_is_thread_task_running
 .text.xenon_thread_startup
                0x00000000800113b4       0x4c /usr/local/xenon/usr/lib/libxenon.a(xenon_power.o)
                0x00000000800113b4                xenon_thread_startup
 .text.xenon_set_single_thread_mode
                0x0000000080011400       0x94 /usr/local/xenon/usr/lib/libxenon.a(xenon_power.o)
                0x0000000080011400                xenon_set_single_thread_mode
 .text.xenon_make_it_faster
                0x0000000080011494       0xf8 /usr/local/xenon/usr/lib/libxenon.a(xenon_power.o)
                0x0000000080011494                xenon_make_it_faster
 .text.xenon_secotp_read_line
                0x000000008001158c       0x24 /usr/local/xenon/usr/lib/libxenon.a(xenon_secotp.o)
                0x000000008001158c                xenon_secotp_read_line
 .text.xenon_sound_init
                0x00000000800115b0      0x1d4 /usr/local/xenon/usr/lib/libxenon.a(sound.o)
                0x00000000800115b0                xenon_sound_init
 .text.putch    0x0000000080011784       0x58 /usr/local/xenon/usr/lib/libxenon.a(xenon_uart.o)
                0x0000000080011784                putch
 .text.kbhit    0x00000000800117dc       0x24 /usr/local/xenon/usr/lib/libxenon.a(xenon_uart.o)
                0x00000000800117dc                kbhit
 .text.getch    0x0000000080011800       0x38 /usr/local/xenon/usr/lib/libxenon.a(xenon_uart.o)
                0x0000000080011800                getch
 .text.uart_puts
                0x0000000080011838       0x34 /usr/local/xenon/usr/lib/libxenon.a(xenon_uart.o)
                0x0000000080011838                uart_puts
 .text.sfcx_readreg
                0x000000008001186c       0x10 /usr/local/xenon/usr/lib/libxenon.a(xenon_sfcx.o)
                0x000000008001186c                sfcx_readreg
 .text.sfcx_read_page
                0x000000008001187c      0x148 /usr/local/xenon/usr/lib/libxenon.a(xenon_sfcx.o)
                0x000000008001187c                sfcx_read_page
 .text.sfcx_write_page
                0x00000000800119c4      0x138 /usr/local/xenon/usr/lib/libxenon.a(xenon_sfcx.o)
                0x00000000800119c4                sfcx_write_page
 .text.sfcx_read_block
                0x0000000080011afc       0x88 /usr/local/xenon/usr/lib/libxenon.a(xenon_sfcx.o)
                0x0000000080011afc                sfcx_read_block
 .text.sfcx_write_block
                0x0000000080011b84       0x6c /usr/local/xenon/usr/lib/libxenon.a(xenon_sfcx.o)
                0x0000000080011b84                sfcx_write_block
 .text.sfcx_erase_block
                0x0000000080011bf0       0xc8 /usr/local/xenon/usr/lib/libxenon.a(xenon_sfcx.o)
                0x0000000080011bf0                sfcx_erase_block
 .text.sfcx_calcecc_ex
                0x0000000080011cb8       0x98 /usr/local/xenon/usr/lib/libxenon.a(xenon_sfcx.o)
                0x0000000080011cb8                sfcx_calcecc_ex
 .text.sfcx_calcecc
                0x0000000080011d50       0x14 /usr/local/xenon/usr/lib/libxenon.a(xenon_sfcx.o)
                0x0000000080011d50                sfcx_calcecc
 .text.sfcx_is_pagevalid
                0x0000000080011d64       0x54 /usr/local/xenon/usr/lib/libxenon.a(xenon_sfcx.o)
                0x0000000080011d64                sfcx_is_pagevalid
 .text.sfcx_is_pageerased
                0x0000000080011db8       0x4c /usr/local/xenon/usr/lib/libxenon.a(xenon_sfcx.o)
                0x0000000080011db8                sfcx_is_pageerased
 .text.rawflash_checkImage_meta
                0x0000000080011e04      0x174 /usr/local/xenon/usr/lib/libxenon.a(xenon_sfcx.o)
                0x0000000080011e04                rawflash_checkImage_meta
 .text.rawflash_checkImage_ecd_page
                0x0000000080011f78       0x74 /usr/local/xenon/usr/lib/libxenon.a(xenon_sfcx.o)
                0x0000000080011f78                rawflash_checkImage_ecd_page
 .text.rawflash_checkImage_ecd
                0x0000000080011fec       0x78 /usr/local/xenon/usr/lib/libxenon.a(xenon_sfcx.o)
                0x0000000080011fec                rawflash_checkImage_ecd
 .text.rawflash_writeImage
                0x0000000080012064      0x1b4 /usr/local/xenon/usr/lib/libxenon.a(xenon_sfcx.o)
                0x0000000080012064                rawflash_writeImage
 .text.sfcx_init
                0x0000000080012218      0x2d8 /usr/local/xenon/usr/lib/libxenon.a(xenon_sfcx.o)
                0x0000000080012218                sfcx_init
 .text.rawflash_checkImage
                0x00000000800124f0       0xc8 /usr/local/xenon/usr/lib/libxenon.a(xenon_sfcx.o)
                0x00000000800124f0                rawflash_checkImage
 .text.try_rawflash
                0x00000000800125b8      0x190 /usr/local/xenon/usr/lib/libxenon.a(xenon_sfcx.o)
                0x00000000800125b8                try_rawflash
 .text.xenon_config_init
                0x0000000080012748       0xa8 /usr/local/xenon/usr/lib/libxenon.a(xenon_config.o)
                0x0000000080012748                xenon_config_init
 .text.xenon_config_get_avregion
                0x00000000800127f0       0xa0 /usr/local/xenon/usr/lib/libxenon.a(xenon_config.o)
                0x00000000800127f0                xenon_config_get_avregion
 .text.xenon_config_get_mac_addr
                0x0000000080012890       0xb4 /usr/local/xenon/usr/lib/libxenon.a(xenon_config.o)
                0x0000000080012890                xenon_config_get_mac_addr
 .text.xenon_config_get_vid_delta
                0x0000000080012944       0x3c /usr/local/xenon/usr/lib/libxenon.a(xenon_config.o)
                0x0000000080012944                xenon_config_get_vid_delta
 .text.xenos_write32
                0x0000000080012980        0x8 /usr/local/xenon/usr/lib/libxenon.a(xenos.o)
                0x0000000080012980                xenos_write32
 .text.xenos_read32
                0x0000000080012988        0x8 /usr/local/xenon/usr/lib/libxenon.a(xenos.o)
                0x0000000080012988                xenos_read32
 .text.xenos_ana_write
                0x0000000080012990       0xc0 /usr/local/xenon/usr/lib/libxenon.a(xenos.o)
 .text.xenos_init_ana_new
                0x0000000080012a50      0x584 /usr/local/xenon/usr/lib/libxenon.a(xenos.o)
                0x0000000080012a50                xenos_init_ana_new
 .text.xenos_init_phase0
                0x0000000080012fd4       0xa0 /usr/local/xenon/usr/lib/libxenon.a(xenos.o)
                0x0000000080012fd4                xenos_init_phase0
 .text.xenos_init_phase1
                0x0000000080013074      0x448 /usr/local/xenon/usr/lib/libxenon.a(xenos.o)
                0x0000000080013074                xenos_init_phase1
 .text.xenos_ana_preinit
                0x00000000800134bc       0xe4 /usr/local/xenon/usr/lib/libxenon.a(xenos.o)
                0x00000000800134bc                xenos_ana_preinit
 .text.xenos_set_mode_f1
                0x00000000800135a0      0x190 /usr/local/xenon/usr/lib/libxenon.a(xenos.o)
                0x00000000800135a0                xenos_set_mode_f1
 .text.xenos_set_mode_f2
                0x0000000080013730      0x3dc /usr/local/xenon/usr/lib/libxenon.a(xenos.o)
                0x0000000080013730                xenos_set_mode_f2
 .text.xenos_set_mode
                0x0000000080013b0c      0x400 /usr/local/xenon/usr/lib/libxenon.a(xenos.o)
                0x0000000080013b0c                xenos_set_mode
 .text.xenos_hdmi_vga_mode_fix
                0x0000000080013f0c       0x44 /usr/local/xenon/usr/lib/libxenon.a(xenos.o)
                0x0000000080013f0c                xenos_hdmi_vga_mode_fix
 .text.xenos_autoset_mode
                0x0000000080013f50      0x15c /usr/local/xenon/usr/lib/libxenon.a(xenos.o)
                0x0000000080013f50                xenos_autoset_mode
 .text.xenos_init
                0x00000000800140ac      0x154 /usr/local/xenon/usr/lib/libxenon.a(xenos.o)
                0x00000000800140ac                xenos_init
 .text.xenos_is_overscan
                0x0000000080014200       0x38 /usr/local/xenon/usr/lib/libxenon.a(xenos.o)
                0x0000000080014200                xenos_is_overscan
 .text.xenos_is_initialized
                0x0000000080014238       0x18 /usr/local/xenon/usr/lib/libxenon.a(xenos.o)
                0x0000000080014238                xenos_is_initialized
 .text.xenos_do_probe_ddc_edid
                0x0000000080014250      0x19c /usr/local/xenon/usr/lib/libxenon.a(xenos_edid.o)
                0x0000000080014250                xenos_do_probe_ddc_edid
 .text.xenos_ddc_read_edid
                0x00000000800143ec      0x16c /usr/local/xenon/usr/lib/libxenon.a(xenos_edid.o)
 .text.xenos_get_edid
                0x0000000080014558       0xa8 /usr/local/xenon/usr/lib/libxenon.a(xenos_edid.o)
                0x0000000080014558                xenos_get_edid
 .text.xenos_detect_hdmi_monitor
                0x0000000080014600       0xdc /usr/local/xenon/usr/lib/libxenon.a(xenos_edid.o)
                0x0000000080014600                xenos_detect_hdmi_monitor
 .text.mem_init
                0x00000000800146dc       0x5c /usr/local/xenon/usr/lib/libxenon.a(mem.o)
                0x00000000800146dc                mem_init
 .text.mem_free
                0x0000000080014738      0x204 /usr/local/xenon/usr/lib/libxenon.a(mem.o)
                0x0000000080014738                mem_free
 .text.mem_trim
                0x000000008001493c      0x180 /usr/local/xenon/usr/lib/libxenon.a(mem.o)
                0x000000008001493c                mem_trim
 .text.mem_malloc
                0x0000000080014abc      0x244 /usr/local/xenon/usr/lib/libxenon.a(mem.o)
                0x0000000080014abc                mem_malloc
 .text.netif_init
                0x0000000080014d00        0x4 /usr/local/xenon/usr/lib/libxenon.a(netif.o)
                0x0000000080014d00                netif_init
 .text.netif_set_ipaddr
                0x0000000080014d04       0xa8 /usr/local/xenon/usr/lib/libxenon.a(netif.o)
                0x0000000080014d04                netif_set_ipaddr
 .text.netif_set_addr
                0x0000000080014dac       0x5c /usr/local/xenon/usr/lib/libxenon.a(netif.o)
                0x0000000080014dac                netif_set_addr
 .text.netif_add
                0x0000000080014e08       0xb8 /usr/local/xenon/usr/lib/libxenon.a(netif.o)
                0x0000000080014e08                netif_add
 .text.netif_set_gw
                0x0000000080014ec0       0x1c /usr/local/xenon/usr/lib/libxenon.a(netif.o)
                0x0000000080014ec0                netif_set_gw
 .text.netif_set_netmask
                0x0000000080014edc       0x1c /usr/local/xenon/usr/lib/libxenon.a(netif.o)
                0x0000000080014edc                netif_set_netmask
 .text.netif_set_default
                0x0000000080014ef8        0xc /usr/local/xenon/usr/lib/libxenon.a(netif.o)
                0x0000000080014ef8                netif_set_default
 .text.netif_set_up
                0x0000000080014f04       0x78 /usr/local/xenon/usr/lib/libxenon.a(netif.o)
                0x0000000080014f04                netif_set_up
 .text.netif_set_down
                0x0000000080014f7c       0x2c /usr/local/xenon/usr/lib/libxenon.a(netif.o)
                0x0000000080014f7c                netif_set_down
 .text.pbuf_alloced_custom
                0x0000000080014fa8       0xe0 /usr/local/xenon/usr/lib/libxenon.a(pbuf.o)
                0x0000000080014fa8                pbuf_alloced_custom
 .text.pbuf_header
                0x0000000080015088      0x12c /usr/local/xenon/usr/lib/libxenon.a(pbuf.o)
                0x0000000080015088                pbuf_header
 .text.pbuf_free
                0x00000000800151b4      0x14c /usr/local/xenon/usr/lib/libxenon.a(pbuf.o)
                0x00000000800151b4                pbuf_free
 .text.pbuf_realloc
                0x0000000080015300      0x194 /usr/local/xenon/usr/lib/libxenon.a(pbuf.o)
                0x0000000080015300                pbuf_realloc
 .text.pbuf_alloc
                0x0000000080015494      0x2f4 /usr/local/xenon/usr/lib/libxenon.a(pbuf.o)
                0x0000000080015494                pbuf_alloc
 .text.pbuf_clen
                0x0000000080015788       0x24 /usr/local/xenon/usr/lib/libxenon.a(pbuf.o)
                0x0000000080015788                pbuf_clen
 .text.pbuf_ref
                0x00000000800157ac       0x18 /usr/local/xenon/usr/lib/libxenon.a(pbuf.o)
                0x00000000800157ac                pbuf_ref
 .text.pbuf_cat
                0x00000000800157c4       0xac /usr/local/xenon/usr/lib/libxenon.a(pbuf.o)
                0x00000000800157c4                pbuf_cat
 .text.pbuf_chain
                0x0000000080015870       0x34 /usr/local/xenon/usr/lib/libxenon.a(pbuf.o)
                0x0000000080015870                pbuf_chain
 .text.pbuf_copy
                0x00000000800158a4      0x1e4 /usr/local/xenon/usr/lib/libxenon.a(pbuf.o)
                0x00000000800158a4                pbuf_copy
 .text.pbuf_copy_partial
                0x0000000080015a88      0x104 /usr/local/xenon/usr/lib/libxenon.a(pbuf.o)
                0x0000000080015a88                pbuf_copy_partial
 .text.stats_init
                0x0000000080015b8c        0x4 /usr/local/xenon/usr/lib/libxenon.a(stats.o)
                0x0000000080015b8c                stats_init
 .text.tcp_accept_null
                0x0000000080015b90        0x8 /usr/local/xenon/usr/lib/libxenon.a(tcp.o)
 .text.tcp_new_port
                0x0000000080015b98       0x74 /usr/local/xenon/usr/lib/libxenon.a(tcp.o)
 .text.tcp_bind
                0x0000000080015c0c      0x100 /usr/local/xenon/usr/lib/libxenon.a(tcp.o)
                0x0000000080015c0c                tcp_bind
 .text.tcp_listen_with_backlog
                0x0000000080015d0c      0x140 /usr/local/xenon/usr/lib/libxenon.a(tcp.o)
                0x0000000080015d0c                tcp_listen_with_backlog
 .text.tcp_update_rcv_ann_wnd
                0x0000000080015e4c       0x90 /usr/local/xenon/usr/lib/libxenon.a(tcp.o)
                0x0000000080015e4c                tcp_update_rcv_ann_wnd
 .text.tcp_recved
                0x0000000080015edc       0xac /usr/local/xenon/usr/lib/libxenon.a(tcp.o)
                0x0000000080015edc                tcp_recved
 .text.tcp_seg_free
                0x0000000080015f88       0x50 /usr/local/xenon/usr/lib/libxenon.a(tcp.o)
                0x0000000080015f88                tcp_seg_free
 .text.tcp_segs_free
                0x0000000080015fd8       0x34 /usr/local/xenon/usr/lib/libxenon.a(tcp.o)
                0x0000000080015fd8                tcp_segs_free
 .text.tcp_setprio
                0x000000008001600c        0x8 /usr/local/xenon/usr/lib/libxenon.a(tcp.o)
                0x000000008001600c                tcp_setprio
 .text.tcp_seg_copy
                0x0000000080016014       0x44 /usr/local/xenon/usr/lib/libxenon.a(tcp.o)
                0x0000000080016014                tcp_seg_copy
 .text.tcp_arg  0x0000000080016058        0x8 /usr/local/xenon/usr/lib/libxenon.a(tcp.o)
                0x0000000080016058                tcp_arg
 .text.tcp_recv
                0x0000000080016060        0x8 /usr/local/xenon/usr/lib/libxenon.a(tcp.o)
                0x0000000080016060                tcp_recv
 .text.tcp_sent
                0x0000000080016068        0x8 /usr/local/xenon/usr/lib/libxenon.a(tcp.o)
                0x0000000080016068                tcp_sent
 .text.tcp_err  0x0000000080016070        0x8 /usr/local/xenon/usr/lib/libxenon.a(tcp.o)
                0x0000000080016070                tcp_err
 .text.tcp_accept
                0x0000000080016078        0x8 /usr/local/xenon/usr/lib/libxenon.a(tcp.o)
                0x0000000080016078                tcp_accept
 .text.tcp_poll
                0x0000000080016080        0xc /usr/local/xenon/usr/lib/libxenon.a(tcp.o)
                0x0000000080016080                tcp_poll
 .text.tcp_pcb_purge
                0x000000008001608c       0x88 /usr/local/xenon/usr/lib/libxenon.a(tcp.o)
                0x000000008001608c                tcp_pcb_purge
 .text.tcp_slowtmr
                0x0000000080016114      0x564 /usr/local/xenon/usr/lib/libxenon.a(tcp.o)
                0x0000000080016114                tcp_slowtmr
 .text.tcp_pcb_remove
                0x0000000080016678      0x154 /usr/local/xenon/usr/lib/libxenon.a(tcp.o)
                0x0000000080016678                tcp_pcb_remove
 .text.tcp_abandon
                0x00000000800167cc      0x128 /usr/local/xenon/usr/lib/libxenon.a(tcp.o)
                0x00000000800167cc                tcp_abandon
 .text.tcp_abort
                0x00000000800168f4        0x8 /usr/local/xenon/usr/lib/libxenon.a(tcp.o)
                0x00000000800168f4                tcp_abort
 .text.tcp_close_shutdown
                0x00000000800168fc      0x22c /usr/local/xenon/usr/lib/libxenon.a(tcp.o)
 .text.tcp_close
                0x0000000080016b28       0x20 /usr/local/xenon/usr/lib/libxenon.a(tcp.o)
                0x0000000080016b28                tcp_close
 .text.tcp_recv_null
                0x0000000080016b48       0x5c /usr/local/xenon/usr/lib/libxenon.a(tcp.o)
                0x0000000080016b48                tcp_recv_null
 .text.tcp_fasttmr
                0x0000000080016ba4       0xc8 /usr/local/xenon/usr/lib/libxenon.a(tcp.o)
                0x0000000080016ba4                tcp_fasttmr
 .text.tcp_tmr  0x0000000080016c6c       0x50 /usr/local/xenon/usr/lib/libxenon.a(tcp.o)
                0x0000000080016c6c                tcp_tmr
 .text.tcp_next_iss
                0x0000000080016cbc       0x1c /usr/local/xenon/usr/lib/libxenon.a(tcp.o)
                0x0000000080016cbc                tcp_next_iss
 .text.tcp_alloc
                0x0000000080016cd8      0x1cc /usr/local/xenon/usr/lib/libxenon.a(tcp.o)
                0x0000000080016cd8                tcp_alloc
 .text.tcp_new  0x0000000080016ea4        0x8 /usr/local/xenon/usr/lib/libxenon.a(tcp.o)
                0x0000000080016ea4                tcp_new
 .text.tcp_eff_send_mss
                0x0000000080016eac       0x5c /usr/local/xenon/usr/lib/libxenon.a(tcp.o)
                0x0000000080016eac                tcp_eff_send_mss
 .text.ip4_addr_isbroadcast
                0x0000000080016f08       0x68 /usr/local/xenon/usr/lib/libxenon.a(ip_addr.o)
                0x0000000080016f08                ip4_addr_isbroadcast
 .text.ipaddr_aton
                0x0000000080016f70      0x22c /usr/local/xenon/usr/lib/libxenon.a(ip_addr.o)
                0x0000000080016f70                ipaddr_aton
 .text.ipaddr_addr
                0x000000008001719c       0x38 /usr/local/xenon/usr/lib/libxenon.a(ip_addr.o)
                0x000000008001719c                ipaddr_addr
 .text.ipaddr_ntoa_r
                0x00000000800171d4       0xf0 /usr/local/xenon/usr/lib/libxenon.a(ip_addr.o)
                0x00000000800171d4                ipaddr_ntoa_r
 .text.ipaddr_ntoa
                0x00000000800172c4       0x10 /usr/local/xenon/usr/lib/libxenon.a(ip_addr.o)
                0x00000000800172c4                ipaddr_ntoa
 .text.ip_route
                0x00000000800172d4       0x88 /usr/local/xenon/usr/lib/libxenon.a(ip.o)
                0x00000000800172d4                ip_route
 .text.ip_input
                0x000000008001735c      0x330 /usr/local/xenon/usr/lib/libxenon.a(ip.o)
                0x000000008001735c                ip_input
 .text.ip_output_if
                0x000000008001768c      0x1d8 /usr/local/xenon/usr/lib/libxenon.a(ip.o)
                0x000000008001768c                ip_output_if
 .text.ip_output
                0x0000000080017864       0xb4 /usr/local/xenon/usr/lib/libxenon.a(ip.o)
                0x0000000080017864                ip_output
 .text.ip_reass_dequeue_datagram
                0x0000000080017918       0x68 /usr/local/xenon/usr/lib/libxenon.a(ip_frag.o)
 .text.ip_reass_free_complete_datagram
                0x0000000080017980      0x178 /usr/local/xenon/usr/lib/libxenon.a(ip_frag.o)
 .text.ip_reass_remove_oldest_datagram
                0x0000000080017af8       0xd4 /usr/local/xenon/usr/lib/libxenon.a(ip_frag.o)
 .text.ipfrag_free_pbuf_custom
                0x0000000080017bcc       0x68 /usr/local/xenon/usr/lib/libxenon.a(ip_frag.o)
 .text.ip_reass
                0x0000000080017c34      0x4ec /usr/local/xenon/usr/lib/libxenon.a(ip_frag.o)
                0x0000000080017c34                ip_reass
 .text.ip_frag  0x0000000080018120      0x238 /usr/local/xenon/usr/lib/libxenon.a(ip_frag.o)
                0x0000000080018120                ip_frag
 .text.tcp_pbuf_prealloc
                0x0000000080018358       0xd8 /usr/local/xenon/usr/lib/libxenon.a(tcp_out.o)
 .text.tcp_create_segment
                0x0000000080018430      0x110 /usr/local/xenon/usr/lib/libxenon.a(tcp_out.o)
 .text.tcp_output_alloc_header.constprop.1
                0x0000000080018540       0xb0 /usr/local/xenon/usr/lib/libxenon.a(tcp_out.o)
 .text.tcp_write
                0x00000000800185f0      0x6d4 /usr/local/xenon/usr/lib/libxenon.a(tcp_out.o)
                0x00000000800185f0                tcp_write
 .text.tcp_enqueue_flags
                0x0000000080018cc4      0x258 /usr/local/xenon/usr/lib/libxenon.a(tcp_out.o)
                0x0000000080018cc4                tcp_enqueue_flags
 .text.tcp_send_fin
                0x0000000080018f1c       0x4c /usr/local/xenon/usr/lib/libxenon.a(tcp_out.o)
                0x0000000080018f1c                tcp_send_fin
 .text.tcp_send_empty_ack
                0x0000000080018f68       0x90 /usr/local/xenon/usr/lib/libxenon.a(tcp_out.o)
                0x0000000080018f68                tcp_send_empty_ack
 .text.tcp_output
                0x0000000080018ff8      0x428 /usr/local/xenon/usr/lib/libxenon.a(tcp_out.o)
                0x0000000080018ff8                tcp_output
 .text.tcp_rst  0x0000000080019420      0x124 /usr/local/xenon/usr/lib/libxenon.a(tcp_out.o)
                0x0000000080019420                tcp_rst
 .text.tcp_rexmit_rto
                0x0000000080019544       0x48 /usr/local/xenon/usr/lib/libxenon.a(tcp_out.o)
                0x0000000080019544                tcp_rexmit_rto
 .text.tcp_rexmit
                0x000000008001958c       0x64 /usr/local/xenon/usr/lib/libxenon.a(tcp_out.o)
                0x000000008001958c                tcp_rexmit
 .text.tcp_rexmit_fast
                0x00000000800195f0       0x98 /usr/local/xenon/usr/lib/libxenon.a(tcp_out.o)
                0x00000000800195f0                tcp_rexmit_fast
 .text.tcp_keepalive
                0x0000000080019688       0xac /usr/local/xenon/usr/lib/libxenon.a(tcp_out.o)
                0x0000000080019688                tcp_keepalive
 .text.tcp_zero_window_probe
                0x0000000080019734      0x12c /usr/local/xenon/usr/lib/libxenon.a(tcp_out.o)
                0x0000000080019734                tcp_zero_window_probe
 .text.udp_input
                0x0000000080019860      0x388 /usr/local/xenon/usr/lib/libxenon.a(udp.o)
                0x0000000080019860                udp_input
 .text.udp_bind
                0x0000000080019be8      0x134 /usr/local/xenon/usr/lib/libxenon.a(udp.o)
                0x0000000080019be8                udp_bind
 .text.udp_sendto_if
                0x0000000080019d1c      0x1ac /usr/local/xenon/usr/lib/libxenon.a(udp.o)
                0x0000000080019d1c                udp_sendto_if
 .text.udp_sendto
                0x0000000080019ec8       0x78 /usr/local/xenon/usr/lib/libxenon.a(udp.o)
                0x0000000080019ec8                udp_sendto
 .text.udp_connect
                0x0000000080019f40       0xa8 /usr/local/xenon/usr/lib/libxenon.a(udp.o)
                0x0000000080019f40                udp_connect
 .text.udp_recv
                0x0000000080019fe8        0xc /usr/local/xenon/usr/lib/libxenon.a(udp.o)
                0x0000000080019fe8                udp_recv
 .text.udp_remove
                0x0000000080019ff4       0x50 /usr/local/xenon/usr/lib/libxenon.a(udp.o)
                0x0000000080019ff4                udp_remove
 .text.udp_new  0x000000008001a044       0x44 /usr/local/xenon/usr/lib/libxenon.a(udp.o)
                0x000000008001a044                udp_new
 .text.etharp_send_ip
                0x000000008001a088       0x70 /usr/local/xenon/usr/lib/libxenon.a(etharp.o)
 .text.free_etharp_q
                0x000000008001a0f8       0xbc /usr/local/xenon/usr/lib/libxenon.a(etharp.o)
 .text.find_entry
                0x000000008001a1b4      0x264 /usr/local/xenon/usr/lib/libxenon.a(etharp.o)
 .text.update_arp_entry
                0x000000008001a418      0x12c /usr/local/xenon/usr/lib/libxenon.a(etharp.o)
 .text.etharp_ip_input
                0x000000008001a544       0x78 /usr/local/xenon/usr/lib/libxenon.a(etharp.o)
                0x000000008001a544                etharp_ip_input
 .text.etharp_arp_input
                0x000000008001a5bc      0x218 /usr/local/xenon/usr/lib/libxenon.a(etharp.o)
                0x000000008001a5bc                etharp_arp_input
 .text.etharp_request
                0x000000008001a7d4      0x174 /usr/local/xenon/usr/lib/libxenon.a(etharp.o)
                0x000000008001a7d4                etharp_request
 .text.etharp_query
                0x000000008001a948      0x2b8 /usr/local/xenon/usr/lib/libxenon.a(etharp.o)
                0x000000008001a948                etharp_query
 .text.etharp_output
                0x000000008001ac00      0x180 /usr/local/xenon/usr/lib/libxenon.a(etharp.o)
                0x000000008001ac00                etharp_output
 .text.dhcp_set_state
                0x000000008001ad80       0x24 /usr/local/xenon/usr/lib/libxenon.a(dhcp.o)
 .text.dhcp_check
                0x000000008001ada4       0x54 /usr/local/xenon/usr/lib/libxenon.a(dhcp.o)
 .text.dhcp_bind
                0x000000008001adf8      0x190 /usr/local/xenon/usr/lib/libxenon.a(dhcp.o)
 .text.dhcp_option
                0x000000008001af88       0x68 /usr/local/xenon/usr/lib/libxenon.a(dhcp.o)
 .text.dhcp_option_byte
                0x000000008001aff0       0x50 /usr/local/xenon/usr/lib/libxenon.a(dhcp.o)
 .text.dhcp_option_trailer
                0x000000008001b040      0x104 /usr/local/xenon/usr/lib/libxenon.a(dhcp.o)
 .text.dhcp_option_short
                0x000000008001b144       0x68 /usr/local/xenon/usr/lib/libxenon.a(dhcp.o)
 .text.dhcp_option_long
                0x000000008001b1ac       0x98 /usr/local/xenon/usr/lib/libxenon.a(dhcp.o)
 .text.dhcp_create_msg
                0x000000008001b244      0x2b0 /usr/local/xenon/usr/lib/libxenon.a(dhcp.o)
 .text.dhcp_delete_msg
                0x000000008001b4f4       0xac /usr/local/xenon/usr/lib/libxenon.a(dhcp.o)
 .text.dhcp_reboot
                0x000000008001b5a0       0xf8 /usr/local/xenon/usr/lib/libxenon.a(dhcp.o)
 .text.dhcp_discover
                0x000000008001b698      0x144 /usr/local/xenon/usr/lib/libxenon.a(dhcp.o)
 .text.dhcp_select
                0x000000008001b7dc      0x1dc /usr/local/xenon/usr/lib/libxenon.a(dhcp.o)
 .text.dhcp_rebind
                0x000000008001b9b8      0x150 /usr/local/xenon/usr/lib/libxenon.a(dhcp.o)
 .text.dhcp_recv
                0x000000008001bb08      0x8b4 /usr/local/xenon/usr/lib/libxenon.a(dhcp.o)
 .text.dhcp_arp_reply
                0x000000008001c3bc      0x100 /usr/local/xenon/usr/lib/libxenon.a(dhcp.o)
                0x000000008001c3bc                dhcp_arp_reply
 .text.dhcp_renew
                0x000000008001c4bc      0x14c /usr/local/xenon/usr/lib/libxenon.a(dhcp.o)
                0x000000008001c4bc                dhcp_renew
 .text.dhcp_coarse_tmr
                0x000000008001c608       0xb4 /usr/local/xenon/usr/lib/libxenon.a(dhcp.o)
                0x000000008001c608                dhcp_coarse_tmr
 .text.dhcp_release
                0x000000008001c6bc      0x114 /usr/local/xenon/usr/lib/libxenon.a(dhcp.o)
                0x000000008001c6bc                dhcp_release
 .text.dhcp_fine_tmr
                0x000000008001c7d0      0x12c /usr/local/xenon/usr/lib/libxenon.a(dhcp.o)
                0x000000008001c7d0                dhcp_fine_tmr
 .text.dhcp_stop
                0x000000008001c8fc       0xc0 /usr/local/xenon/usr/lib/libxenon.a(dhcp.o)
                0x000000008001c8fc                dhcp_stop
 .text.dhcp_start
                0x000000008001c9bc      0x198 /usr/local/xenon/usr/lib/libxenon.a(dhcp.o)
                0x000000008001c9bc                dhcp_start
 .text.raw_input
                0x000000008001cb54       0xe8 /usr/local/xenon/usr/lib/libxenon.a(raw.o)
                0x000000008001cb54                raw_input
 .text.tcp_timer_needed
                0x000000008001cc3c        0x4 /usr/local/xenon/usr/lib/libxenon.a(timers.o)
                0x000000008001cc3c                tcp_timer_needed
 .text.phy_read
                0x000000008001cc40       0x88 /usr/local/xenon/usr/lib/libxenon.a(enet.o)
 .text.enet_linkoutput
                0x000000008001ccc8      0x124 /usr/local/xenon/usr/lib/libxenon.a(enet.o)
 .text.enet_init
                0x000000008001cdec      0x568 /usr/local/xenon/usr/lib/libxenon.a(enet.o)
                0x000000008001cdec                enet_init
 .text.enet_poll
                0x000000008001d354      0x26c /usr/local/xenon/usr/lib/libxenon.a(enet.o)
                0x000000008001d354                enet_poll
 .text.enet_quiesce
                0x000000008001d5c0       0x38 /usr/local/xenon/usr/lib/libxenon.a(enet.o)
                0x000000008001d5c0                enet_quiesce
 .text.mftb     0x000000008001d5f8       0x1c /usr/local/xenon/usr/lib/libxenon.a(network.o)
 .text.network_poll
                0x000000008001d614       0xf0 /usr/local/xenon/usr/lib/libxenon.a(network.o)
                0x000000008001d614                network_poll
 .text.network_init
                0x000000008001d704      0x220 /usr/local/xenon/usr/lib/libxenon.a(network.o)
                0x000000008001d704                network_init
 .text.network_print_config
                0x000000008001d924       0x90 /usr/local/xenon/usr/lib/libxenon.a(network.o)
                0x000000008001d924                network_print_config
 .text.elf_setArgcArgv
                0x000000008001d9b4       0xf0 /usr/local/xenon/usr/lib/libxenon.a(elf.o)
                0x000000008001d9b4                elf_setArgcArgv
 .text.elf_runFromMemory
                0x000000008001daa4       0xd4 /usr/local/xenon/usr/lib/libxenon.a(elf.o)
                0x000000008001daa4                elf_runFromMemory
 .text.kernel_prepare_initrd
                0x000000008001db78       0x80 /usr/local/xenon/usr/lib/libxenon.a(elf.o)
                0x000000008001db78                kernel_prepare_initrd
 .text.kernel_relocate_initrd
                0x000000008001dbf8       0x9c /usr/local/xenon/usr/lib/libxenon.a(elf.o)
                0x000000008001dbf8                kernel_relocate_initrd
 .text.elf_runWithDeviceTree
                0x000000008001dc94      0x250 /usr/local/xenon/usr/lib/libxenon.a(elf.o)
                0x000000008001dc94                elf_runWithDeviceTree
 .text.kernel_reset_initrd
                0x000000008001dee4       0x44 /usr/local/xenon/usr/lib/libxenon.a(elf.o)
                0x000000008001dee4                kernel_reset_initrd
 .text.kernel_build_cmdline
                0x000000008001df28       0xb4 /usr/local/xenon/usr/lib/libxenon.a(elf.o)
                0x000000008001df28                kernel_build_cmdline
 .text.fdt32_to_cpu
                0x000000008001dfdc        0xc /usr/local/xenon/usr/lib/libxenon.a(fdt_ro.o)
 .text.fdt64_to_cpu
                0x000000008001dfe8       0x14 /usr/local/xenon/usr/lib/libxenon.a(fdt_ro.o)
 .text._nextprop
                0x000000008001dffc       0x6c /usr/local/xenon/usr/lib/libxenon.a(fdt_ro.o)
 .text.fdt_string
                0x000000008001e068       0x34 /usr/local/xenon/usr/lib/libxenon.a(fdt_ro.o)
                0x000000008001e068                fdt_string
 .text.fdt_num_mem_rsv
                0x000000008001e09c       0x5c /usr/local/xenon/usr/lib/libxenon.a(fdt_ro.o)
                0x000000008001e09c                fdt_num_mem_rsv
 .text.fdt_subnode_offset_namelen
                0x000000008001e0f8       0xf4 /usr/local/xenon/usr/lib/libxenon.a(fdt_ro.o)
                0x000000008001e0f8                fdt_subnode_offset_namelen
 .text.fdt_first_property_offset
                0x000000008001e1ec       0x44 /usr/local/xenon/usr/lib/libxenon.a(fdt_ro.o)
                0x000000008001e1ec                fdt_first_property_offset
 .text.fdt_next_property_offset
                0x000000008001e230       0x44 /usr/local/xenon/usr/lib/libxenon.a(fdt_ro.o)
                0x000000008001e230                fdt_next_property_offset
 .text.fdt_get_property_by_offset
                0x000000008001e274       0x74 /usr/local/xenon/usr/lib/libxenon.a(fdt_ro.o)
                0x000000008001e274                fdt_get_property_by_offset
 .text.fdt_get_property_namelen
                0x000000008001e2e8       0xc8 /usr/local/xenon/usr/lib/libxenon.a(fdt_ro.o)
                0x000000008001e2e8                fdt_get_property_namelen
 .text.fdt_get_property
                0x000000008001e3b0       0x58 /usr/local/xenon/usr/lib/libxenon.a(fdt_ro.o)
                0x000000008001e3b0                fdt_get_property
 .text.fdt_getprop_namelen
                0x000000008001e408       0x34 /usr/local/xenon/usr/lib/libxenon.a(fdt_ro.o)
                0x000000008001e408                fdt_getprop_namelen
 .text.fdt_get_alias_namelen
                0x000000008001e43c       0x6c /usr/local/xenon/usr/lib/libxenon.a(fdt_ro.o)
                0x000000008001e43c                fdt_get_alias_namelen
 .text.fdt_path_offset
                0x000000008001e4a8      0x108 /usr/local/xenon/usr/lib/libxenon.a(fdt_ro.o)
                0x000000008001e4a8                fdt_path_offset
 .text.fdt32_to_cpu
                0x000000008001e5b0        0xc /usr/local/xenon/usr/lib/libxenon.a(fdt_rw.o)
 .text._fdt_blocks_misordered
                0x000000008001e5bc       0xa0 /usr/local/xenon/usr/lib/libxenon.a(fdt_rw.o)
 .text._fdt_rw_check_header
                0x000000008001e65c       0x84 /usr/local/xenon/usr/lib/libxenon.a(fdt_rw.o)
 .text._fdt_packblocks
                0x000000008001e6e0       0xcc /usr/local/xenon/usr/lib/libxenon.a(fdt_rw.o)
 .text._fdt_splice
                0x000000008001e7ac       0xa0 /usr/local/xenon/usr/lib/libxenon.a(fdt_rw.o)
 .text._fdt_splice_struct
                0x000000008001e84c       0x64 /usr/local/xenon/usr/lib/libxenon.a(fdt_rw.o)
 .text._fdt_splice_mem_rsv
                0x000000008001e8b0       0x70 /usr/local/xenon/usr/lib/libxenon.a(fdt_rw.o)
 .text.fdt_add_mem_rsv
                0x000000008001e920       0x98 /usr/local/xenon/usr/lib/libxenon.a(fdt_rw.o)
                0x000000008001e920                fdt_add_mem_rsv
 .text.fdt_setprop
                0x000000008001e9b8      0x1cc /usr/local/xenon/usr/lib/libxenon.a(fdt_rw.o)
                0x000000008001e9b8                fdt_setprop
 .text.fdt_open_into
                0x000000008001eb84      0x1bc /usr/local/xenon/usr/lib/libxenon.a(fdt_rw.o)
                0x000000008001eb84                fdt_open_into
 .text.fdt_pack
                0x000000008001ed40       0x7c /usr/local/xenon/usr/lib/libxenon.a(fdt_rw.o)
                0x000000008001ed40                fdt_pack
 .text.print_key
                0x000000008001edbc       0x7c /usr/local/xenon/usr/lib/libxenon.a(xb360.o)
                0x000000008001edbc                print_key
 .text.cpu_get_key
                0x000000008001ee38       0x7c /usr/local/xenon/usr/lib/libxenon.a(xb360.o)
                0x000000008001ee38                cpu_get_key
 .text.kv_get_key
                0x000000008001eeb4       0x74 /usr/local/xenon/usr/lib/libxenon.a(xb360.o)
                0x000000008001eeb4                kv_get_key
 .text.updateXeLL
                0x000000008001ef28      0x35c /usr/local/xenon/usr/lib/libxenon.a(xb360.o)
                0x000000008001ef28                updateXeLL
 .text.xenon_get_DVE
                0x000000008001f284       0x38 /usr/local/xenon/usr/lib/libxenon.a(xb360.o)
                0x000000008001f284                xenon_get_DVE
 .text.xenon_get_PCIBridgeRevisionID
                0x000000008001f2bc       0x2c /usr/local/xenon/usr/lib/libxenon.a(xb360.o)
                0x000000008001f2bc                xenon_get_PCIBridgeRevisionID
 .text.xenon_get_XenosID
                0x000000008001f2e8       0x28 /usr/local/xenon/usr/lib/libxenon.a(xb360.o)
                0x000000008001f2e8                xenon_get_XenosID
 .text.xenon_get_console_type
                0x000000008001f310       0xcc /usr/local/xenon/usr/lib/libxenon.a(xb360.o)
                0x000000008001f310                xenon_get_console_type
 .text.xenon_logical_nand_data_ok
                0x000000008001f3dc       0x1c /usr/local/xenon/usr/lib/libxenon.a(xb360.o)
                0x000000008001f3dc                xenon_logical_nand_data_ok
 .text.xenon_get_logical_nand_data
                0x000000008001f3f8       0x50 /usr/local/xenon/usr/lib/libxenon.a(xb360.o)
                0x000000008001f3f8                xenon_get_logical_nand_data
 .text.get_virtual_cpukey
                0x000000008001f448       0x88 /usr/local/xenon/usr/lib/libxenon.a(xb360.o)
                0x000000008001f448                get_virtual_cpukey
 .text.xenon_get_kv_size
                0x000000008001f4d0       0x40 /usr/local/xenon/usr/lib/libxenon.a(xb360.o)
                0x000000008001f4d0                xenon_get_kv_size
 .text.xenon_get_kv_offset
                0x000000008001f510       0x40 /usr/local/xenon/usr/lib/libxenon.a(xb360.o)
                0x000000008001f510                xenon_get_kv_offset
 .text.kv_read  0x000000008001f550      0x1a0 /usr/local/xenon/usr/lib/libxenon.a(xb360.o)
                0x000000008001f550                kv_read
 .text.kv_get_dvd_key
                0x000000008001f6f0      0x128 /usr/local/xenon/usr/lib/libxenon.a(xb360.o)
                0x000000008001f6f0                kv_get_dvd_key
 .text.print_cpu_dvd_keys
                0x000000008001f818       0xcc /usr/local/xenon/usr/lib/libxenon.a(xb360.o)
                0x000000008001f818                print_cpu_dvd_keys
 .text.kfree    0x000000008001f8e4       0xb8 /usr/local/xenon/usr/lib/libxenon.a(lib_malloc.o)
                0x000000008001f8e4                kfree
 .text.lib_outofmemory
                0x000000008001f99c        0xc /usr/local/xenon/usr/lib/libxenon.a(lib_malloc.o)
                0x000000008001f99c                lib_outofmemory
 .text.kmalloc  0x000000008001f9a8      0x144 /usr/local/xenon/usr/lib/libxenon.a(lib_malloc.o)
                0x000000008001f9a8                kmalloc
 .text.kmem_init
                0x000000008001faec       0x70 /usr/local/xenon/usr/lib/libxenon.a(lib_malloc.o)
                0x000000008001faec                kmem_init
 .text.read32   0x000000008001fb5c        0x8 /usr/local/xenon/usr/lib/libxenon.a(io.o)
                0x000000008001fb5c                read32
 .text.read32n  0x000000008001fb64        0x8 /usr/local/xenon/usr/lib/libxenon.a(io.o)
                0x000000008001fb64                read32n
 .text.write32  0x000000008001fb6c        0x8 /usr/local/xenon/usr/lib/libxenon.a(io.o)
                0x000000008001fb6c                write32
 .text.write32n
                0x000000008001fb74        0x8 /usr/local/xenon/usr/lib/libxenon.a(io.o)
                0x000000008001fb74                write32n
 .text.dummy_attach
                0x000000008001fb7c        0x8 /usr/local/xenon/usr/lib/libxenon.a(dummy.o)
 .text.dummy_detach
                0x000000008001fb84        0x8 /usr/local/xenon/usr/lib/libxenon.a(dummy.o)
 .text._ohci_allocept
                0x000000008001fb8c       0x64 /usr/local/xenon/usr/lib/libxenon.a(ohci.o)
 .text._ohci_allocxfer
                0x000000008001fbf0       0x5c /usr/local/xenon/usr/lib/libxenon.a(ohci.o)
 .text.ohci_delete
                0x000000008001fc4c        0x4 /usr/local/xenon/usr/lib/libxenon.a(ohci.o)
 .text.ohci_ept_setaddr
                0x000000008001fc50       0x38 /usr/local/xenon/usr/lib/libxenon.a(ohci.o)
 .text.ohci_ept_setmps
                0x000000008001fc88       0x44 /usr/local/xenon/usr/lib/libxenon.a(ohci.o)
 .text._ohci_queueept
                0x000000008001fccc       0x5c /usr/local/xenon/usr/lib/libxenon.a(ohci.o)
 .text.ohci_ept_create
                0x000000008001fd28      0x148 /usr/local/xenon/usr/lib/libxenon.a(ohci.o)
 .text.ohci_ept_cleartoggle
                0x000000008001fe70       0x48 /usr/local/xenon/usr/lib/libxenon.a(ohci.o)
 .text.ohci_stop
                0x000000008001feb8       0x14 /usr/local/xenon/usr/lib/libxenon.a(ohci.o)
 .text.ohci_ept_delete
                0x000000008001fecc      0x1fc /usr/local/xenon/usr/lib/libxenon.a(ohci.o)
 .text.ohci_start
                0x00000000800200c8      0x1a4 /usr/local/xenon/usr/lib/libxenon.a(ohci.o)
 .text.ohci_roothub_strdscr
                0x000000008002026c       0x6c /usr/local/xenon/usr/lib/libxenon.a(ohci.o)
 .text.ohci_intr
                0x00000000800202d8      0x20c /usr/local/xenon/usr/lib/libxenon.a(ohci.o)
 .text._ohci_dma_alloc
                0x00000000800204e4       0x50 /usr/local/xenon/usr/lib/libxenon.a(ohci.o)
 .text.ohci_create
                0x0000000080020534      0x2b4 /usr/local/xenon/usr/lib/libxenon.a(ohci.o)
 .text.ohci_xfer
                0x00000000800207e8      0x7e0 /usr/local/xenon/usr/lib/libxenon.a(ohci.o)
 .text.getstringmaybe
                0x0000000080020fc8       0x70 /usr/local/xenon/usr/lib/libxenon.a(usbdebug.o)
 .text.usb_dbg_dumpportstatus
                0x0000000080021038      0x27c /usr/local/xenon/usr/lib/libxenon.a(usbdebug.o)
                0x0000000080021038                usb_dbg_dumpportstatus
 .text.usb_dbg_dumpdescriptors
                0x00000000800212b4      0x680 /usr/local/xenon/usr/lib/libxenon.a(usbdebug.o)
                0x00000000800212b4                usb_dbg_dumpdescriptors
 .text.ehci_maligned
                0x0000000080021934       0x9c /usr/local/xenon/usr/lib/libxenon.a(usb_os.o)
                0x0000000080021934                ehci_maligned
 .text.ehci_virt_to_dma
                0x00000000800219d0        0x8 /usr/local/xenon/usr/lib/libxenon.a(usb_os.o)
                0x00000000800219d0                ehci_virt_to_dma
 .text.ehci_dma_map_to
                0x00000000800219d8       0x28 /usr/local/xenon/usr/lib/libxenon.a(usb_os.o)
                0x00000000800219d8                ehci_dma_map_to
 .text.ehci_dma_map_from
                0x0000000080021a00       0x28 /usr/local/xenon/usr/lib/libxenon.a(usb_os.o)
                0x0000000080021a00                ehci_dma_map_from
 .text.ehci_dma_map_bidir
                0x0000000080021a28       0x28 /usr/local/xenon/usr/lib/libxenon.a(usb_os.o)
                0x0000000080021a28                ehci_dma_map_bidir
 .text.ehci_dma_unmap_to
                0x0000000080021a50        0x8 /usr/local/xenon/usr/lib/libxenon.a(usb_os.o)
                0x0000000080021a50                ehci_dma_unmap_to
 .text.ehci_dma_unmap_from
                0x0000000080021a58        0x8 /usr/local/xenon/usr/lib/libxenon.a(usb_os.o)
                0x0000000080021a58                ehci_dma_unmap_from
 .text.ehci_dma_unmap_bidir
                0x0000000080021a60        0x8 /usr/local/xenon/usr/lib/libxenon.a(usb_os.o)
                0x0000000080021a60                ehci_dma_unmap_bidir
 .text.ehci_usleep
                0x0000000080021a68        0x4 /usr/local/xenon/usr/lib/libxenon.a(usb_os.o)
                0x0000000080021a68                ehci_usleep
 .text.ehci_msleep
                0x0000000080021a6c        0x4 /usr/local/xenon/usr/lib/libxenon.a(usb_os.o)
                0x0000000080021a6c                ehci_msleep
 .text.USB_Alloc
                0x0000000080021a70        0x4 /usr/local/xenon/usr/lib/libxenon.a(usb_os.o)
                0x0000000080021a70                USB_Alloc
 .text.USB_Free
                0x0000000080021a74        0x4 /usr/local/xenon/usr/lib/libxenon.a(usb_os.o)
                0x0000000080021a74                USB_Free
 .text.xenon_gpio_control
                0x0000000080021a78       0x7c /usr/local/xenon/usr/lib/libxenon.a(xenon_gpio.o)
                0x0000000080021a78                xenon_gpio_control
 .text.xenon_gpio_set_oe
                0x0000000080021af4       0x54 /usr/local/xenon/usr/lib/libxenon.a(xenon_gpio.o)
                0x0000000080021af4                xenon_gpio_set_oe
 .text.xenon_gpio_set
                0x0000000080021b48       0x54 /usr/local/xenon/usr/lib/libxenon.a(xenon_gpio.o)
                0x0000000080021b48                xenon_gpio_set
 .text          0x0000000080021b9c       0x3c /usr/local/xenon/usr/lib/libxenon.a(cpusleep.o)
                0x0000000080021b9c                cpusleep
 .text.lwip_init
                0x0000000080021bd8       0x2c /usr/local/xenon/usr/lib/libxenon.a(init.o)
                0x0000000080021bd8                lwip_init
 .text.unlikely.tcp_oos_insert_segment
                0x0000000080021c04       0xdc /usr/local/xenon/usr/lib/libxenon.a(tcp_in.o)
 .text.unlikely.tcp_receive
                0x0000000080021ce0      0xe04 /usr/local/xenon/usr/lib/libxenon.a(tcp_in.o)
 .text.tcp_parseopt.isra.0
                0x0000000080022ae4       0xbc /usr/local/xenon/usr/lib/libxenon.a(tcp_in.o)
 .text.tcp_input
                0x0000000080022ba0      0xeb0 /usr/local/xenon/usr/lib/libxenon.a(tcp_in.o)
                0x0000000080022ba0                tcp_input
 .text.lwip_standard_chksum
                0x0000000080023a50       0xb0 /usr/local/xenon/usr/lib/libxenon.a(inet_chksum.o)
 .text.inet_chksum_pseudo
                0x0000000080023b00       0xec /usr/local/xenon/usr/lib/libxenon.a(inet_chksum.o)
                0x0000000080023b00                inet_chksum_pseudo
 .text.inet_chksum
                0x0000000080023bec       0x28 /usr/local/xenon/usr/lib/libxenon.a(inet_chksum.o)
                0x0000000080023bec                inet_chksum
 .text.inet_chksum_pbuf
                0x0000000080023c14       0x94 /usr/local/xenon/usr/lib/libxenon.a(inet_chksum.o)
                0x0000000080023c14                inet_chksum_pbuf
 .text.dns_parse_name
                0x0000000080023ca8       0x28 /usr/local/xenon/usr/lib/libxenon.a(dns.o)
 .text.dns_recv
                0x0000000080023cd0      0x22c /usr/local/xenon/usr/lib/libxenon.a(dns.o)
 .text.dns_setserver
                0x0000000080023efc       0x40 /usr/local/xenon/usr/lib/libxenon.a(dns.o)
                0x0000000080023efc                dns_setserver
 .text.dns_init
                0x0000000080023f3c       0x94 /usr/local/xenon/usr/lib/libxenon.a(dns.o)
                0x0000000080023f3c                dns_init
 .text.memp_init
                0x0000000080023fd0       0xb4 /usr/local/xenon/usr/lib/libxenon.a(memp.o)
                0x0000000080023fd0                memp_init
 .text.memp_malloc
                0x0000000080024084       0xdc /usr/local/xenon/usr/lib/libxenon.a(memp.o)
                0x0000000080024084                memp_malloc
 .text.memp_free
                0x0000000080024160       0x7c /usr/local/xenon/usr/lib/libxenon.a(memp.o)
                0x0000000080024160                memp_free
 .text.icmp_send_response.isra.0
                0x00000000800241dc       0xf0 /usr/local/xenon/usr/lib/libxenon.a(icmp.o)
 .text.icmp_input
                0x00000000800242cc      0x38c /usr/local/xenon/usr/lib/libxenon.a(icmp.o)
                0x00000000800242cc                icmp_input
 .text.icmp_dest_unreach
                0x0000000080024658       0x10 /usr/local/xenon/usr/lib/libxenon.a(icmp.o)
                0x0000000080024658                icmp_dest_unreach
 .text.icmp_time_exceeded
                0x0000000080024668       0x10 /usr/local/xenon/usr/lib/libxenon.a(icmp.o)
                0x0000000080024668                icmp_time_exceeded
 .text.fdt32_to_cpu
                0x0000000080024678        0xc /usr/local/xenon/usr/lib/libxenon.a(fdt.o)
 .text.fdt_check_header
                0x0000000080024684       0x8c /usr/local/xenon/usr/lib/libxenon.a(fdt.o)
                0x0000000080024684                fdt_check_header
 .text.fdt_offset_ptr
                0x0000000080024710       0x74 /usr/local/xenon/usr/lib/libxenon.a(fdt.o)
                0x0000000080024710                fdt_offset_ptr
 .text.fdt_next_tag
                0x0000000080024784      0x10c /usr/local/xenon/usr/lib/libxenon.a(fdt.o)
                0x0000000080024784                fdt_next_tag
 .text._fdt_check_node_offset
                0x0000000080024890       0x50 /usr/local/xenon/usr/lib/libxenon.a(fdt.o)
                0x0000000080024890                _fdt_check_node_offset
 .text._fdt_check_prop_offset
                0x00000000800248e0       0x50 /usr/local/xenon/usr/lib/libxenon.a(fdt.o)
                0x00000000800248e0                _fdt_check_prop_offset
 .text.fdt_next_node
                0x0000000080024930       0xe4 /usr/local/xenon/usr/lib/libxenon.a(fdt.o)
                0x0000000080024930                fdt_next_node
 .text._fdt_find_string
                0x0000000080024a14       0x6c /usr/local/xenon/usr/lib/libxenon.a(fdt.o)
                0x0000000080024a14                _fdt_find_string
 .text.fdt_move
                0x0000000080024a80       0x60 /usr/local/xenon/usr/lib/libxenon.a(fdt.o)
                0x0000000080024a80                fdt_move
 .text.HMAC_SHA1_Init
                0x0000000080024ae0       0x5c /usr/local/xenon/usr/lib/libxenon.a(hmac_sha1.o)
                0x0000000080024ae0                HMAC_SHA1_Init
 .text.HMAC_SHA1_UpdateKey
                0x0000000080024b3c       0xc0 /usr/local/xenon/usr/lib/libxenon.a(hmac_sha1.o)
                0x0000000080024b3c                HMAC_SHA1_UpdateKey
 .text.HMAC_SHA1_EndKey
                0x0000000080024bfc       0xb0 /usr/local/xenon/usr/lib/libxenon.a(hmac_sha1.o)
                0x0000000080024bfc                HMAC_SHA1_EndKey
 .text.HMAC_SHA1_StartMessage
                0x0000000080024cac       0x48 /usr/local/xenon/usr/lib/libxenon.a(hmac_sha1.o)
                0x0000000080024cac                HMAC_SHA1_StartMessage
 .text.HMAC_SHA1_UpdateMessage
                0x0000000080024cf4        0x8 /usr/local/xenon/usr/lib/libxenon.a(hmac_sha1.o)
                0x0000000080024cf4                HMAC_SHA1_UpdateMessage
 .text.HMAC_SHA1_EndMessage
                0x0000000080024cfc       0x68 /usr/local/xenon/usr/lib/libxenon.a(hmac_sha1.o)
                0x0000000080024cfc                HMAC_SHA1_EndMessage
 .text.HMAC_SHA1_Done
                0x0000000080024d64       0x58 /usr/local/xenon/usr/lib/libxenon.a(hmac_sha1.o)
                0x0000000080024d64                HMAC_SHA1_Done
 .text.HMAC_SHA1
                0x0000000080024dbc       0x84 /usr/local/xenon/usr/lib/libxenon.a(hmac_sha1.o)
                0x0000000080024dbc                HMAC_SHA1
 .text.rc4_init
                0x0000000080024e40       0x58 /usr/local/xenon/usr/lib/libxenon.a(rc4.o)
                0x0000000080024e40                rc4_init
 .text.rc4_crypt
                0x0000000080024e98       0x6c /usr/local/xenon/usr/lib/libxenon.a(rc4.o)
                0x0000000080024e98                rc4_crypt
 .text.SHA1_Transform
                0x0000000080024f04     0x111c /usr/local/xenon/usr/lib/libxenon.a(sha1.o)
                0x0000000080024f04                SHA1_Transform
 .text.SHA1_Init
                0x0000000080026020       0x4c /usr/local/xenon/usr/lib/libxenon.a(sha1.o)
                0x0000000080026020                SHA1_Init
 .text.SHA1_Update
                0x000000008002606c       0xe0 /usr/local/xenon/usr/lib/libxenon.a(sha1.o)
                0x000000008002606c                SHA1_Update
 .text.SHA1_Final
                0x000000008002614c      0x104 /usr/local/xenon/usr/lib/libxenon.a(sha1.o)
                0x000000008002614c                SHA1_Final
 .text.q_enqueue
                0x0000000080026250       0x18 /usr/local/xenon/usr/lib/libxenon.a(lib_queue.o)
                0x0000000080026250                q_enqueue
 .text.q_deqnext
                0x0000000080026268       0x30 /usr/local/xenon/usr/lib/libxenon.a(lib_queue.o)
                0x0000000080026268                q_deqnext
 .text          0x0000000080026298      0x4ec /usr/local/xenon/usr/lib/libfat.a(libfat.o)
                0x0000000080026298                fatMount
                0x00000000800263d0                fatMountSimple
                0x00000000800263e0                fatUnmount
                0x0000000080026458                fatInit
                0x0000000080026610                fatInitDefault
                0x000000008002661c                fatGetVolumeLabel
 .text          0x0000000080026784      0xa48 /usr/local/xenon/usr/lib/libfat.a(partition.o)
                0x00000000800267ec                FindFirstValidPartition_buf
                0x00000000800269e0                FindFirstValidPartition
                0x0000000080026a34                _FAT_partition_getPartitionFromPath
                0x0000000080026a68                _FAT_partition_createFSinfo
                0x0000000080026b70                _FAT_partition_readFSinfo
                0x0000000080026c70                _FAT_partition_constructor_buf
                0x0000000080026fd4                _FAT_partition_constructor
                0x0000000080027040                _FAT_partition_writeFSinfo
                0x000000008002714c                _FAT_partition_destructor
 .text          0x00000000800271cc      0x7b8 /usr/local/xenon/usr/lib/libfat.a(cache.o)
                0x0000000080027330                _FAT_cache_constructor
                0x0000000080027408                _FAT_cache_readSectors
                0x00000000800274ac                _FAT_cache_readPartialSector
                0x0000000080027530                _FAT_cache_readLittleEndianValue
                0x00000000800275cc                _FAT_cache_writePartialSector
                0x0000000080027658                _FAT_cache_writeLittleEndianValue
                0x00000000800276d8                _FAT_cache_eraseWritePartialSector
                0x000000008002777c                _FAT_cache_writeSectors
                0x0000000080027828                _FAT_cache_flush
                0x00000000800278b8                _FAT_cache_destructor
                0x0000000080027920                _FAT_cache_invalidate
 .text          0x0000000080027984     0x1afc /usr/local/xenon/usr/lib/libfat.a(directory.o)
                0x0000000080027dcc                _FAT_directory_entryGetCluster
                0x0000000080027e24                _FAT_directory_getNextEntry
                0x00000000800280a8                _FAT_directory_getFirstEntry
                0x00000000800281a4                _FAT_directory_getRootEntry
                0x0000000080028250                _FAT_directory_getVolumeLabel
                0x0000000080028350                _FAT_directory_entryFromPosition
                0x00000000800284fc                _FAT_directory_entryFromPath
                0x00000000800287b4                _FAT_directory_removeEntry
                0x00000000800288ac                _FAT_directory_addEntry
                0x00000000800292b8                _FAT_directory_chdir
                0x0000000080029320                _FAT_directory_entryStat
 .text          0x0000000080029480       0x30 /usr/local/xenon/usr/lib/libfat.a(disc.o)
 .text          0x00000000800294b0      0xc90 /usr/local/xenon/usr/lib/libfat.a(fatdir.o)
                0x00000000800294b0                _FAT_stat_r
                0x000000008002957c                _FAT_link_r
                0x000000008002958c                _FAT_unlink_r
                0x0000000080029780                _FAT_chdir_r
                0x0000000080029828                _FAT_rename_r
                0x0000000080029a70                _FAT_mkdir_r
                0x0000000080029dc0                _FAT_statvfs_r
                0x0000000080029ea8                _FAT_diropen_r
                0x0000000080029fbc                _FAT_dirreset_r
                0x000000008002a034                _FAT_dirnext_r
                0x000000008002a0fc                _FAT_dirclose_r
 .text          0x000000008002a140     0x1994 /usr/local/xenon/usr/lib/libfat.a(fatfile.o)
                0x000000008002a520                _FAT_findEntry
                0x000000008002a5a8                FAT_getAttr
                0x000000008002a5e0                FAT_setAttr
                0x000000008002a618                _FAT_open_r
                0x000000008002aa28                _FAT_syncToDisc
                0x000000008002ab80                _FAT_close_r
                0x000000008002ac48                _FAT_read_r
                0x000000008002b044                _FAT_write_r
                0x000000008002b5c4                _FAT_seek_r
                0x000000008002b7a0                _FAT_fstat_r
                0x000000008002b868                _FAT_ftruncate_r
                0x000000008002ba60                _FAT_fsync_r
 .text          0x000000008002bad4      0x760 /usr/local/xenon/usr/lib/libfat.a(file_allocation_table.o)
                0x000000008002bca4                _FAT_fat_nextCluster
                0x000000008002be44                _FAT_fat_linkFreeCluster
                0x000000008002bf2c                _FAT_fat_linkFreeClusterCleared
                0x000000008002bff0                _FAT_fat_clearLinks
                0x000000008002c0b8                _FAT_fat_trimChain
                0x000000008002c170                _FAT_fat_lastCluster
                0x000000008002c1dc                _FAT_fat_freeClusterCount
 .text          0x000000008002c234      0x15c /usr/local/xenon/usr/lib/libfat.a(filetime.o)
                0x000000008002c234                _FAT_filetime_getTimeFromRTC
                0x000000008002c2b0                _FAT_filetime_getDateFromRTC
                0x000000008002c32c                _FAT_filetime_to_time_t
 .text          0x000000008002c390       0x10 /usr/local/xenon/usr/lib/libfat.a(lock.o)
                0x000000008002c390                _FAT_lock_init
                0x000000008002c394                _FAT_lock_deinit
                0x000000008002c398                _FAT_lock
                0x000000008002c39c                _FAT_unlock
 .text          0x000000008002c3a0      0x880 /usr/local/xenon/usr/lib/libext2fs.a(ext2.o)
                0x000000008002c3a0                ext2Mount
                0x000000008002c640                ext2Unmount
                0x000000008002c6d0                ext2GetVolumeName
                0x000000008002c738                ext2SetVolumeName
                0x000000008002c830                ext2FindPartitions
 .text          0x000000008002cc20     0x1a44 /usr/local/xenon/usr/lib/libext2fs.a(ext2_internal.o)
                0x000000008002ce58                ext2GetDevOpTab
                0x000000008002ce68                ext2AddDevice
                0x000000008002cfd0                ext2RemoveDevice
                0x000000008002d0b8                ext2GetDevice
                0x000000008002d168                ext2GetVolume
                0x000000008002d1b8                ext2InitVolume
                0x000000008002d220                ext2CloseEntry
                0x000000008002d2b0                ext2Sync
                0x000000008002d380                ext2DeinitVolume
                0x000000008002d440                ext2UpdateTimes
                0x000000008002d4f0                ext2Stat
                0x000000008002d650                ext2RealPath
                0x000000008002d6b0                ext2OpenEntry
                0x000000008002d7c8                ext2Unlink
                0x000000008002db80                ext2Link
                0x000000008002df28                ext2Create
 *fill*         0x000000008002e664        0x4 00
 .text          0x000000008002e668      0x30c /usr/local/xenon/usr/lib/libext2fs.a(freefs.o)
                0x000000008002e668                ext2fs_u32_list_free
                0x000000008002e6d8                ext2fs_badblocks_list_free
                0x000000008002e6e0                ext2fs_free_dblist
                0x000000008002e780                ext2fs_free
 *fill*         0x000000008002e974        0x4 00
 .text          0x000000008002e978      0xda8 /usr/local/xenon/usr/lib/libext2fs.a(gekko_io.o)
 .text          0x000000008002f720     0x14a0 /usr/local/xenon/usr/lib/libext2fs.a(inode.o)
                0x000000008002f948                ext2fs_flush_icache
                0x000000008002f998                ext2fs_open_inode_scan
                0x000000008002fc00                ext2fs_close_inode_scan
                0x000000008002fc80                ext2fs_set_inode_callback
                0x000000008002fca8                ext2fs_inode_scan_flags
                0x000000008002fce8                ext2fs_inode_scan_goto_blockgroup
                0x000000008002fd08                ext2fs_get_next_inode_full
                0x0000000080030110                ext2fs_get_next_inode
                0x0000000080030118                ext2fs_read_inode_full
                0x00000000800304c0                ext2fs_read_inode
                0x00000000800304c8                ext2fs_write_inode_full
                0x00000000800308a8                ext2fs_write_inode
                0x00000000800308b0                ext2fs_write_new_inode
                0x0000000080030a30                ext2fs_get_blocks
                0x0000000080030b00                ext2fs_check_directory
 .text          0x0000000080030bc0      0x2ec /usr/local/xenon/usr/lib/libext2fs.a(io_manager.o)
                0x0000000080030bc0                io_channel_set_options
                0x0000000080030d30                io_channel_write_byte
                0x0000000080030d78                io_channel_read_blk64
                0x0000000080030de8                io_channel_write_blk64
                0x0000000080030e58                io_channel_discard
 *fill*         0x0000000080030eac        0x4 00
 .text          0x0000000080030eb0      0x340 /usr/local/xenon/usr/lib/libext2fs.a(link.o)
                0x0000000080031098                ext2fs_link
 .text          0x00000000800311f0      0x344 /usr/local/xenon/usr/lib/libext2fs.a(mkdir.o)
                0x00000000800311f0                ext2fs_mkdir
 *fill*         0x0000000080031534        0x4 00
 .text          0x0000000080031538      0x5fc /usr/local/xenon/usr/lib/libext2fs.a(namei.o)
                0x00000000800318c0                ext2fs_namei
                0x00000000800319a0                ext2fs_namei_follow
                0x0000000080031a80                ext2fs_follow_link
 *fill*         0x0000000080031b34        0x4 00
 .text          0x0000000080031b38      0x164 /usr/local/xenon/usr/lib/libext2fs.a(newdir.o)
                0x0000000080031b38                ext2fs_new_dir_block
 *fill*         0x0000000080031c9c        0x4 00
 .text          0x0000000080031ca0      0xc78 /usr/local/xenon/usr/lib/libext2fs.a(openfs.o)
                0x0000000080031ca0                ext2fs_descriptor_block_loc2
                0x0000000080031dc0                ext2fs_descriptor_block_loc
                0x0000000080031df0                ext2fs_open2
                0x0000000080032810                ext2fs_open
                0x0000000080032840                ext2fs_get_data_io
                0x0000000080032898                ext2fs_set_data_io
                0x00000000800328d8                ext2fs_rewrite_to_io
 .text          0x0000000080032918      0x7c8 /usr/local/xenon/usr/lib/libext2fs.a(punch.o)
                0x0000000080032b88                ext2fs_punch
 .text          0x00000000800330e0      0x1c4 /usr/local/xenon/usr/lib/libext2fs.a(read_bb.o)
                0x0000000080033188                ext2fs_read_bb_inode
 *fill*         0x00000000800332a4        0x4 00
 .text          0x00000000800332a8      0xba0 /usr/local/xenon/usr/lib/libext2fs.a(rw_bitmaps.o)
                0x0000000080033690                ext2fs_write_bitmaps
                0x0000000080033dc8                ext2fs_read_inode_bitmap
                0x0000000080033dd8                ext2fs_read_block_bitmap
                0x0000000080033de8                ext2fs_write_inode_bitmap
                0x0000000080033df8                ext2fs_write_block_bitmap
                0x0000000080033e08                ext2fs_read_bitmaps
 .text          0x0000000080033e48      0xc40 /usr/local/xenon/usr/lib/libext2fs.a(swapfs.o)
                0x0000000080033e48                ext2fs_swap_super
                0x0000000080034230                ext2fs_swap_group_desc2
                0x0000000080034408                ext2fs_swap_group_desc
                0x0000000080034418                ext2fs_swap_ext_attr_header
                0x0000000080034470                ext2fs_swap_ext_attr_entry
                0x00000000800344b0                ext2fs_swap_ext_attr
                0x0000000080034578                ext2fs_swap_inode_full
                0x0000000080034a48                ext2fs_swap_inode
                0x0000000080034a50                ext2fs_swap_mmp
 .text          0x0000000080034a88      0x20c /usr/local/xenon/usr/lib/libext2fs.a(unlink.o)
                0x0000000080034b98                ext2fs_unlink
 *fill*         0x0000000080034c94        0x4 00
 .text          0x0000000080034c98       0xd4 /usr/local/xenon/usr/lib/libext2fs.a(valid_blk.o)
                0x0000000080034c98                ext2fs_inode_has_valid_blocks2
                0x0000000080034d60                ext2fs_inode_has_valid_blocks
 *fill*         0x0000000080034d6c        0x4 00
 .text          0x0000000080034d70      0xb78 /usr/local/xenon/usr/lib/libext2fs.a(alloc.o)
                0x0000000080034ff0                ext2fs_new_inode
                0x00000000800352a8                ext2fs_new_block2
                0x0000000080035498                ext2fs_new_block
                0x00000000800354e8                ext2fs_alloc_block2
                0x0000000080035678                ext2fs_alloc_block
                0x00000000800356c8                ext2fs_get_free_blocks2
                0x0000000080035858                ext2fs_get_free_blocks
                0x00000000800358b8                ext2fs_set_alloc_block_callback
 .text          0x00000000800358e8      0x340 /usr/local/xenon/usr/lib/libext2fs.a(alloc_stats.o)
                0x00000000800358e8                ext2fs_inode_alloc_stats2
                0x0000000080035a90                ext2fs_inode_alloc_stats
                0x0000000080035a98                ext2fs_block_alloc_stats2
                0x0000000080035be8                ext2fs_block_alloc_stats
                0x0000000080035bf8                ext2fs_set_block_alloc_stats_callback
 .text          0x0000000080035c28      0x730 /usr/local/xenon/usr/lib/libext2fs.a(badblocks.o)
                0x0000000080035d60                ext2fs_u32_list_create
                0x0000000080035d78                ext2fs_badblocks_list_create
                0x0000000080035d90                ext2fs_u32_copy
                0x0000000080035df0                ext2fs_badblocks_copy
                0x0000000080035df8                ext2fs_u32_list_add
                0x0000000080035fa8                ext2fs_badblocks_list_add
                0x0000000080035fb0                ext2fs_u32_list_find
                0x00000000800360a0                ext2fs_u32_list_test
                0x00000000800360c8                ext2fs_badblocks_list_test
                0x00000000800360d0                ext2fs_u32_list_del
                0x0000000080036180                ext2fs_badblocks_list_del
                0x0000000080036188                ext2fs_u32_list_iterate_begin
                0x0000000080036210                ext2fs_badblocks_list_iterate_begin
                0x0000000080036218                ext2fs_u32_list_iterate
                0x0000000080036290                ext2fs_badblocks_list_iterate
                0x0000000080036298                ext2fs_u32_list_iterate_end
                0x00000000800362c0                ext2fs_badblocks_list_iterate_end
                0x00000000800362c8                ext2fs_u32_list_equal
                0x0000000080036348                ext2fs_badblocks_equal
                0x0000000080036350                ext2fs_u32_list_count
 .text          0x0000000080036358      0x59c /usr/local/xenon/usr/lib/libext2fs.a(bitmaps.o)
                0x0000000080036358                ext2fs_free_inode_bitmap
                0x0000000080036360                ext2fs_free_block_bitmap
                0x0000000080036368                ext2fs_copy_bitmap
                0x0000000080036370                ext2fs_set_bitmap_padding
                0x0000000080036378                ext2fs_allocate_inode_bitmap
                0x0000000080036450                ext2fs_allocate_block_bitmap
                0x00000000800365a8                ext2fs_allocate_subcluster_bitmap
                0x00000000800366b8                ext2fs_get_bitmap_granularity
                0x00000000800366e0                ext2fs_fudge_inode_bitmap_end
                0x0000000080036730                ext2fs_fudge_block_bitmap_end
                0x0000000080036750                ext2fs_fudge_block_bitmap_end2
                0x0000000080036768                ext2fs_clear_inode_bitmap
                0x0000000080036770                ext2fs_clear_block_bitmap
                0x0000000080036778                ext2fs_resize_inode_bitmap
                0x0000000080036798                ext2fs_resize_inode_bitmap2
                0x00000000800367c0                ext2fs_resize_block_bitmap
                0x00000000800367e0                ext2fs_resize_block_bitmap2
                0x0000000080036808                ext2fs_compare_block_bitmap
                0x0000000080036820                ext2fs_compare_inode_bitmap
                0x0000000080036838                ext2fs_set_inode_bitmap_range
                0x0000000080036858                ext2fs_set_inode_bitmap_range2
                0x0000000080036868                ext2fs_get_inode_bitmap_range
                0x0000000080036888                ext2fs_get_inode_bitmap_range2
                0x0000000080036898                ext2fs_set_block_bitmap_range
                0x00000000800368b8                ext2fs_set_block_bitmap_range2
                0x00000000800368c8                ext2fs_get_block_bitmap_range
                0x00000000800368e8                ext2fs_get_block_bitmap_range2
 *fill*         0x00000000800368f4        0x4 00
 .text          0x00000000800368f8       0xf8 /usr/local/xenon/usr/lib/libext2fs.a(bitops.o)
                0x00000000800368f8                ext2fs_set_bit
                0x0000000080036920                ext2fs_clear_bit
                0x0000000080036948                ext2fs_test_bit
                0x0000000080036968                ext2fs_warn_bitmap
                0x0000000080036970                ext2fs_set_bit64
                0x00000000800369a0                ext2fs_clear_bit64
                0x00000000800369d0                ext2fs_test_bit64
 .text          0x00000000800369f0      0xb20 /usr/local/xenon/usr/lib/libext2fs.a(blknum.o)
                0x00000000800369f0                ext2fs_group_of_blk2
                0x0000000080036a10                ext2fs_group_first_block2
                0x0000000080036a38                ext2fs_group_last_block2
                0x0000000080036ab8                ext2fs_group_blocks_count
                0x0000000080036b28                ext2fs_inode_data_blocks2
                0x0000000080036b78                ext2fs_inode_i_blocks
                0x0000000080036bb0                ext2fs_blocks_count
                0x0000000080036bf8                ext2fs_blocks_count_set
                0x0000000080036c20                ext2fs_blocks_count_add
                0x0000000080036c68                ext2fs_r_blocks_count
                0x0000000080036cb0                ext2fs_r_blocks_count_set
                0x0000000080036cd8                ext2fs_r_blocks_count_add
                0x0000000080036d20                ext2fs_free_blocks_count
                0x0000000080036d68                ext2fs_free_blocks_count_set
                0x0000000080036d90                ext2fs_free_blocks_count_add
                0x0000000080036dd8                ext2fs_group_desc
                0x0000000080036e08                ext2fs_block_bitmap_loc
                0x0000000080036e68                ext2fs_block_bitmap_loc_set
                0x0000000080036ec8                ext2fs_inode_bitmap_loc
                0x0000000080036f28                ext2fs_inode_bitmap_loc_set
                0x0000000080036f88                ext2fs_inode_table_loc
                0x0000000080036fe8                ext2fs_inode_table_loc_set
                0x0000000080037048                ext2fs_bg_free_blocks_count
                0x00000000800370a0                ext2fs_bg_free_blocks_count_set
                0x0000000080037100                ext2fs_bg_free_inodes_count
                0x0000000080037158                ext2fs_bg_free_inodes_count_set
                0x00000000800371b8                ext2fs_bg_used_dirs_count
                0x0000000080037210                ext2fs_bg_used_dirs_count_set
                0x0000000080037270                ext2fs_bg_itable_unused
                0x00000000800372c8                ext2fs_bg_itable_unused_set
                0x0000000080037328                ext2fs_bg_flags
                0x0000000080037360                ext2fs_bg_flags_zap
                0x0000000080037390                ext2fs_bg_flags_test
                0x00000000800373d0                ext2fs_bg_flags_set
                0x0000000080037408                ext2fs_bg_flags_clear
                0x0000000080037440                ext2fs_bg_checksum
                0x0000000080037478                ext2fs_bg_checksum_set
                0x00000000800374a8                ext2fs_file_acl_block
                0x00000000800374e0                ext2fs_file_acl_block_set
 .text          0x0000000080037510     0x130c /usr/local/xenon/usr/lib/libext2fs.a(block.o)
                0x0000000080037da0                ext2fs_block_iterate3
                0x00000000800387a8                ext2fs_block_iterate2
                0x00000000800387e0                ext2fs_block_iterate
 *fill*         0x000000008003881c        0x4 00
 .text          0x0000000080038820      0xb68 /usr/local/xenon/usr/lib/libext2fs.a(closefs.o)
                0x0000000080038878                ext2fs_bg_has_super
                0x0000000080038910                ext2fs_super_and_bgd_loc2
                0x0000000080038af8                ext2fs_super_and_bgd_loc
                0x0000000080038c00                ext2fs_update_dynamic_rev
                0x0000000080038c30                ext2fs_flush2
                0x00000000800391e8                ext2fs_flush
                0x00000000800391f0                ext2fs_close2
                0x0000000080039380                ext2fs_close
 .text          0x0000000080039388      0x514 /usr/local/xenon/usr/lib/libext2fs.a(csum.o)
                0x00000000800394f0                ext2fs_group_desc_csum_verify
                0x0000000080039580                ext2fs_group_desc_csum_set
                0x00000000800395f8                ext2fs_set_gdt_csum
 *fill*         0x000000008003989c        0x4 00
 .text          0x00000000800398a0      0x3c4 /usr/local/xenon/usr/lib/libext2fs.a(dirblock.o)
                0x00000000800398a0                ext2fs_read_dir_block3
                0x0000000080039a20                ext2fs_read_dir_block2
                0x0000000080039a38                ext2fs_read_dir_block
                0x0000000080039a50                ext2fs_write_dir_block3
                0x0000000080039c38                ext2fs_write_dir_block2
                0x0000000080039c50                ext2fs_write_dir_block
 *fill*         0x0000000080039c64        0x4 00
 .text          0x0000000080039c68      0x650 /usr/local/xenon/usr/lib/libext2fs.a(dir_iterate.o)
                0x0000000080039c88                ext2fs_process_dir_block
                0x000000008003a050                ext2fs_get_rec_len
                0x000000008003a0a0                ext2fs_set_rec_len
                0x000000008003a130                ext2fs_dir_iterate2
                0x000000008003a280                ext2fs_dir_iterate
 .text          0x000000008003a2b8      0xc70 /usr/local/xenon/usr/lib/libext2fs.a(disc_cache.o)
                0x000000008003a468                cache_constructor
                0x000000008003a5e8                cache_readSectors
                0x000000008003a6e0                cache_readPartialSector
                0x000000008003a798                cache_readLittleEndianValue
                0x000000008003a898                cache_writePartialSector
                0x000000008003a968                cache_writeLittleEndianValue
                0x000000008003a9f8                cache_eraseWritePartialSector
                0x000000008003ab00                cache_writeSectors
                0x000000008003ad00                cache_flush
                0x000000008003adf8                cache_destructor
                0x000000008003aea8                cache_invalidate
 .text          0x000000008003af28      0x358 /usr/local/xenon/usr/lib/libext2fs.a(expanddir.o)
                0x000000008003b148                ext2fs_expand_dir
 .text          0x000000008003b280      0xdfc /usr/local/xenon/usr/lib/libext2fs.a(ext2dir.o)
                0x000000008003b408                ext2CloseDir
                0x000000008003b4a0                ext2_stat_r
                0x000000008003b618                ext2_link_r
                0x000000008003b6c8                ext2_unlink_r
                0x000000008003b760                ext2_chdir_r
                0x000000008003b830                ext2_rename_r
                0x000000008003b988                ext2_mkdir_r
                0x000000008003ba28                ext2_statvfs_r
                0x000000008003bc08                ext2_diropen_r
                0x000000008003bdb8                ext2_dirreset_r
                0x000000008003be48                ext2_dirnext_r
                0x000000008003bfb0                ext2_dirclose_r
 *fill*         0x000000008003c07c        0x4 00
 .text          0x000000008003c080      0x990 /usr/local/xenon/usr/lib/libext2fs.a(ext2file.o)
                0x000000008003c080                ext2CloseFile
                0x000000008003c168                ext2_open_r
                0x000000008003c440                ext2_close_r
                0x000000008003c4f0                ext2_write_r
                0x000000008003c688                ext2_read_r
                0x000000008003c7b0                ext2_seek_r
                0x000000008003c828                ext2_fstat_r
                0x000000008003c8e0                ext2_ftruncate_r
                0x000000008003c9b0                ext2_fsync_r
 .text          0x000000008003ca10     0x2210 /usr/local/xenon/usr/lib/libext2fs.a(extent.o)
                0x000000008003ca90                ext2fs_extent_header_verify
                0x000000008003cb10                ext2fs_extent_free
                0x000000008003cbf0                ext2fs_extent_open2
                0x000000008003ceb0                ext2fs_extent_open
                0x000000008003cec0                ext2fs_extent_get
                0x000000008003d730                ext2fs_extent_goto
                0x000000008003d740                ext2fs_extent_replace
                0x000000008003d898                ext2fs_extent_delete
                0x000000008003da70                ext2fs_extent_get_info
                0x000000008003e150                ext2fs_extent_insert
                0x000000008003e310                ext2fs_extent_set_bmap
 .text.unlikely
                0x000000008003ec20      0x160 /usr/local/xenon/usr/lib/libext2fs.a(extent.o)
 .text          0x000000008003ed80      0xb04 /usr/local/xenon/usr/lib/libext2fs.a(fileio.o)
                0x000000008003eeb0                ext2fs_file_open2
                0x000000008003f040                ext2fs_file_open
                0x000000008003f058                ext2fs_file_get_fs
                0x000000008003f078                ext2fs_file_get_inode
                0x000000008003f098                ext2fs_file_flush
                0x000000008003f210                ext2fs_file_close
                0x000000008003f290                ext2fs_file_read
                0x000000008003f470                ext2fs_file_write
                0x000000008003f608                ext2fs_file_llseek
                0x000000008003f6a0                ext2fs_file_lseek
                0x000000008003f6f0                ext2fs_file_get_lsize
                0x000000008003f730                ext2fs_file_get_size
                0x000000008003f778                ext2fs_file_set_size2
                0x000000008003f878                ext2fs_file_set_size
 *fill*         0x000000008003f884        0x4 00
 .text          0x000000008003f888     0x12c4 /usr/local/xenon/usr/lib/libext2fs.a(gen_bitmap64.o)
                0x000000008003f888                ext2fs_alloc_generic_bmap
                0x000000008003fa18                ext2fs_free_generic_bmap
                0x000000008003fae0                ext2fs_copy_generic_bmap
                0x000000008003fcc8                ext2fs_resize_generic_bmap
                0x000000008003fd50                ext2fs_fudge_generic_bmap_end
                0x000000008003fe38                ext2fs_get_generic_bmap_start
                0x000000008003fee8                ext2fs_get_generic_bmap_end
                0x000000008003ff98                ext2fs_clear_generic_bmap
                0x0000000080040028                ext2fs_mark_generic_bmap
                0x0000000080040100                ext2fs_unmark_generic_bmap
                0x00000000800401d8                ext2fs_test_generic_bmap
                0x00000000800402b0                ext2fs_set_generic_bmap_range
                0x0000000080040380                ext2fs_get_generic_bmap_range
                0x0000000080040450                ext2fs_compare_generic_bmap
                0x00000000800405b8                ext2fs_set_generic_bmap_padding
                0x0000000080040610                ext2fs_test_block_bitmap_range2
                0x0000000080040730                ext2fs_mark_block_bitmap_range2
                0x0000000080040878                ext2fs_unmark_block_bitmap_range2
                0x00000000800409c0                ext2fs_warn_bitmap32
                0x00000000800409c8                ext2fs_convert_subcluster_bitmap
 *fill*         0x0000000080040b4c        0x4 00
 .text          0x0000000080040b50     0x1010 /usr/local/xenon/usr/lib/libext2fs.a(gen_bitmap.o)
                0x0000000080040b50                ext2fs_warn_bitmap2
                0x0000000080040b58                ext2fs_make_generic_bitmap
                0x0000000080040d50                ext2fs_allocate_generic_bitmap
                0x0000000080040d88                ext2fs_copy_generic_bitmap
                0x0000000080040db0                ext2fs_free_generic_bitmap
                0x0000000080040e50                ext2fs_test_generic_bitmap
                0x0000000080040f28                ext2fs_mark_generic_bitmap
                0x0000000080041008                ext2fs_unmark_generic_bitmap
                0x00000000800410e8                ext2fs_get_generic_bitmap_start
                0x0000000080041188                ext2fs_get_generic_bitmap_end
                0x0000000080041228                ext2fs_clear_generic_bitmap
                0x00000000800412e0                ext2fs_fudge_generic_bitmap_end
                0x0000000080041328                ext2fs_resize_generic_bitmap
                0x0000000080041488                ext2fs_compare_generic_bitmap
                0x00000000800415c8                ext2fs_set_generic_bitmap_padding
                0x0000000080041650                ext2fs_get_generic_bitmap_range
                0x00000000800416d8                ext2fs_set_generic_bitmap_range
                0x0000000080041760                ext2fs_mem_is_zero
                0x0000000080041920                ext2fs_test_block_bitmap_range
                0x00000000800419b8                ext2fs_test_inode_bitmap_range
                0x0000000080041a50                ext2fs_mark_block_bitmap_range
                0x0000000080041ad8                ext2fs_unmark_block_bitmap_range
 .text          0x0000000080041b60      0x224 /usr/local/xenon/usr/lib/libext2fs.a(i_block.o)
                0x0000000080041b60                ext2fs_iblk_add_blocks
                0x0000000080041c30                ext2fs_iblk_sub_blocks
                0x0000000080041cb8                ext2fs_iblk_set
 *fill*         0x0000000080041d84        0x4 00
 .text          0x0000000080041d88      0x130 /usr/local/xenon/usr/lib/libext2fs.a(ind_block.o)
                0x0000000080041d88                ext2fs_read_ind_block
                0x0000000080041e58                ext2fs_write_ind_block
 .text          0x0000000080041eb8      0x774 /usr/local/xenon/usr/lib/libext2fs.a(inline.o)
                0x0000000080041eb8                ext2fs_fast_set_bit
                0x0000000080041ed8                ext2fs_fast_clear_bit
                0x0000000080041ef8                ext2fs_fast_set_bit64
                0x0000000080041f20                ext2fs_fast_clear_bit64
                0x0000000080041f48                ext2fs_swab16
                0x0000000080041f58                ext2fs_swab32
                0x0000000080041f70                ext2fs_swab64
                0x0000000080041fa8                ext2fs_mark_block_bitmap
                0x0000000080041fb0                ext2fs_unmark_block_bitmap
                0x0000000080041fb8                ext2fs_test_block_bitmap
                0x0000000080041fc0                ext2fs_mark_inode_bitmap
                0x0000000080041fc8                ext2fs_unmark_inode_bitmap
                0x0000000080041fd0                ext2fs_test_inode_bitmap
                0x0000000080041fd8                ext2fs_fast_mark_block_bitmap
                0x0000000080041fe0                ext2fs_fast_unmark_block_bitmap
                0x0000000080041fe8                ext2fs_fast_test_block_bitmap
                0x0000000080041ff0                ext2fs_fast_mark_inode_bitmap
                0x0000000080041ff8                ext2fs_fast_unmark_inode_bitmap
                0x0000000080042000                ext2fs_fast_test_inode_bitmap
                0x0000000080042008                ext2fs_get_block_bitmap_start
                0x0000000080042010                ext2fs_get_inode_bitmap_start
                0x0000000080042018                ext2fs_get_block_bitmap_end
                0x0000000080042020                ext2fs_get_inode_bitmap_end
                0x0000000080042028                ext2fs_fast_test_block_bitmap_range
                0x0000000080042030                ext2fs_fast_mark_block_bitmap_range
                0x0000000080042038                ext2fs_fast_unmark_block_bitmap_range
                0x0000000080042040                ext2fs_mark_block_bitmap2
                0x0000000080042050                ext2fs_unmark_block_bitmap2
                0x0000000080042060                ext2fs_test_block_bitmap2
                0x0000000080042070                ext2fs_mark_inode_bitmap2
                0x0000000080042080                ext2fs_unmark_inode_bitmap2
                0x0000000080042090                ext2fs_test_inode_bitmap2
                0x00000000800420a0                ext2fs_fast_mark_block_bitmap2
                0x00000000800420b0                ext2fs_fast_unmark_block_bitmap2
                0x00000000800420c0                ext2fs_fast_test_block_bitmap2
                0x00000000800420d0                ext2fs_fast_mark_inode_bitmap2
                0x00000000800420e0                ext2fs_fast_unmark_inode_bitmap2
                0x00000000800420f0                ext2fs_fast_test_inode_bitmap2
                0x0000000080042100                ext2fs_get_block_bitmap_start2
                0x0000000080042130                ext2fs_get_inode_bitmap_start2
                0x0000000080042158                ext2fs_get_block_bitmap_end2
                0x0000000080042188                ext2fs_get_inode_bitmap_end2
                0x00000000800421b0                ext2fs_fast_test_block_bitmap_range2
                0x00000000800421c0                ext2fs_fast_mark_block_bitmap_range2
                0x00000000800421d0                ext2fs_fast_unmark_block_bitmap_range2
                0x00000000800421e0                ext2fs_get_mem
                0x0000000080042240                ext2fs_get_memzero
                0x00000000800422c8                ext2fs_get_array
                0x0000000080042300                ext2fs_get_arrayzero
                0x0000000080042378                ext2fs_free_mem
                0x00000000800423b8                ext2fs_resize_mem
                0x0000000080042408                ext2fs_mark_super_dirty
                0x0000000080042418                ext2fs_mark_changed
                0x0000000080042428                ext2fs_test_changed
                0x0000000080042438                ext2fs_mark_valid
                0x0000000080042448                ext2fs_unmark_valid
                0x0000000080042460                ext2fs_test_valid
                0x0000000080042470                ext2fs_mark_ib_dirty
                0x0000000080042480                ext2fs_mark_bb_dirty
                0x0000000080042490                ext2fs_test_ib_dirty
                0x00000000800424a0                ext2fs_test_bb_dirty
                0x00000000800424b0                ext2fs_group_of_blk
                0x00000000800424c0                ext2fs_group_of_ino
                0x00000000800424d8                ext2fs_group_first_block
                0x0000000080042500                ext2fs_group_last_block
                0x0000000080042528                ext2fs_inode_data_blocks
                0x0000000080042550                ext2fs_div_ceil
                0x0000000080042570                ext2fs_div64_ceil
                0x00000000800425a0                ext2fs_open_file
                0x00000000800425b8                ext2fs_stat
                0x00000000800425c0                ext2fs_fstat
                0x00000000800425c8                ext2fs_get_memalign
 *fill*         0x000000008004262c        0x4 00
 .text          0x0000000080042630      0x120 /usr/local/xenon/usr/lib/libext2fs.a(lookup.o)
                0x00000000800426c0                ext2fs_lookup
 .text          0x0000000080042750      0x9a8 /usr/local/xenon/usr/lib/libext2fs.a(mmp.o)
                0x0000000080042750                sleep
                0x0000000080042758                ext2fs_mmp_read
                0x0000000080042900                ext2fs_mmp_write
                0x0000000080042ad0                ext2fs_mmp_new_seq
                0x0000000080042b68                ext2fs_mmp_clear
                0x0000000080042b90                ext2fs_mmp_init
                0x0000000080042c80                ext2fs_mmp_start
                0x0000000080042f08                ext2fs_mmp_stop
                0x0000000080043000                ext2fs_mmp_update
 .text          0x00000000800430f8      0x2e4 /usr/local/xenon/usr/lib/libext2fs.a(progress.o)
                0x00000000800430f8                ext2fs_numeric_progress_init
                0x0000000080043238                ext2fs_numeric_progress_update
                0x00000000800432e8                ext2fs_numeric_progress_close
 *fill*         0x00000000800433dc        0x4 00
 .text          0x00000000800433e0      0x654 /usr/local/xenon/usr/lib/libext2fs.a(blkmap64_ba.o)
 *fill*         0x0000000080043a34        0x4 00
 .text          0x0000000080043a38     0x1008 /usr/local/xenon/usr/lib/libext2fs.a(bmap.o)
                0x0000000080043df8                ext2fs_bmap2
                0x00000000800449b8                ext2fs_bmap
 .text          0x0000000080044a40       0x38 /usr/local/xenon/usr/lib/libext2fs.a(crc16.o)
                0x0000000080044a40                ext2fs_crc16
 .text          0x0000000080044a78       0x5c /usr/local/xenon/usr/lib/libext2fs.a(llseek.o)
                0x0000000080044a78                ext2fs_llseek
 *fill*         0x0000000080044ad4        0x4 00
 .text          0x0000000080044ad8      0x7a4 /usr/local/xenon/usr/lib/libxtaf.a(xtaf.o)
                0x0000000080044b68                xfat_get_next_cluster
                0x0000000080044bf8                xtaf_parse_entry
                0x0000000080044cf8                xtaf_check_filename
                0x0000000080044d70                xtaf_directory_entryFromPath
                0x0000000080044f08                xtaf_parse
                0x00000000800450b0                xtaf_get_dir
                0x0000000080045268                XTAFMount
 *fill*         0x000000008004527c        0x4 00
 .text          0x0000000080045280      0x518 /usr/local/xenon/usr/lib/libxtaf.a(xtaf_partition.o)
                0x0000000080045280                print_partition_information
                0x0000000080045290                xtaf_init_fs
                0x0000000080045350                check_devkit_hdd
                0x00000000800454a0                xtaf_mount
                0x00000000800456a0                xtaf_init
 .text          0x0000000080045798       0xc4 /usr/local/xenon/usr/lib/libxtaf.a(xtaf_util.o)
                0x0000000080045798                XTAFError
                0x0000000080045840                _XTAF_mem_allocate
                0x0000000080045848                _XTAF_mem_align
                0x0000000080045858                _XTAF_mem_free
 *fill*         0x000000008004585c        0x4 00
 .text          0x0000000080045860      0xb28 /usr/local/xenon/usr/lib/libxtaf.a(cache.o)
                0x0000000080045a40                _XTAF_cache_constructor
                0x0000000080045b70                _XTAF_cache_readSectors
                0x0000000080045c68                _XTAF_cache_readPartialSector
                0x0000000080045d20                _XTAF_cache_readLittleEndianValue
                0x0000000080045e20                _XTAF_cache_writePartialSector
                0x0000000080045ef0                _XTAF_cache_writeLittleEndianValue
                0x0000000080045f80                _XTAF_cache_eraseWritePartialSector
                0x0000000080046088                _XTAF_cache_writeSectors
                0x00000000800461a0                _XTAF_cache_flush
                0x0000000080046290                _XTAF_cache_destructor
                0x0000000080046318                _XTAF_cache_invalidate
 .text          0x0000000080046388      0x278 /usr/local/xenon/usr/lib/libxtaf.a(xtaf_dir.o)
                0x0000000080046388                xtaf_diropen_r
                0x00000000800464f0                xtaf_dirnext_r
                0x00000000800465f8                xtaf_dirclose_r
 .text          0x0000000080046600      0xa20 /usr/local/xenon/usr/lib/libxtaf.a(xtaf_file.o)
                0x0000000080046600                xtaf_build_time
                0x0000000080046668                xtaf_seek_r
                0x00000000800468a0                xtaf_fstat_r
                0x0000000080046958                xtaf_open_r
                0x0000000080046b10                xtaf_close_r
                0x0000000080046b38                xtaf_stat_r
                0x0000000080046bb8                xtaf_link_r
                0x0000000080046bc8                xtaf_read_r
 .text          0x0000000080047020      0x1bc /usr/local/xenon/xenon/lib/32/libm.a(lib_a-s_ceil.o)
                0x0000000080047024                ceil
 *fill*         0x00000000800471dc        0x4 00
 .text          0x00000000800471e0      0x1d0 /usr/local/xenon/xenon/lib/32/libm.a(lib_a-s_floor.o)
                0x00000000800471e4                floor
 .text          0x00000000800473b0       0x4c /usr/local/xenon/lib/gcc/xenon/4.7.1/32/libgcc.a(crtsavgpr.o)
                0x00000000800473b0                _savegpr_14
                0x00000000800473b4                _savegpr_15
                0x00000000800473b8                _savegpr_16
                0x00000000800473bc                _savegpr_17
                0x00000000800473c0                _savegpr_18
                0x00000000800473c4                _savegpr_19
                0x00000000800473c8                _savegpr_20
                0x00000000800473cc                _savegpr_21
                0x00000000800473d0                _savegpr_22
                0x00000000800473d4                _savegpr_23
                0x00000000800473d8                _savegpr_24
                0x00000000800473dc                _savegpr_25
                0x00000000800473e0                _savegpr_26
                0x00000000800473e4                _savegpr_27
                0x00000000800473e8                _savegpr_28
                0x00000000800473ec                _savegpr_29
                0x00000000800473f0                _savegpr_30
                0x00000000800473f4                _savegpr_31
 .text          0x00000000800473fc       0x58 /usr/local/xenon/lib/gcc/xenon/4.7.1/32/libgcc.a(crtresxgpr.o)
                0x00000000800473fc                _restgpr_14_x
                0x0000000080047400                _restgpr_15_x
                0x0000000080047404                _restgpr_16_x
                0x0000000080047408                _restgpr_17_x
                0x000000008004740c                _restgpr_18_x
                0x0000000080047410                _restgpr_19_x
                0x0000000080047414                _restgpr_20_x
                0x0000000080047418                _restgpr_21_x
                0x000000008004741c                _restgpr_22_x
                0x0000000080047420                _restgpr_23_x
                0x0000000080047424                _restgpr_24_x
                0x0000000080047428                _restgpr_25_x
                0x000000008004742c                _restgpr_26_x
                0x0000000080047430                _restgpr_27_x
                0x0000000080047434                _restgpr_28_x
                0x0000000080047438                _restgpr_29_x
                0x000000008004743c                _restgpr_30_x
                0x0000000080047440                _restgpr_31_x
 *fill*         0x0000000080047454        0x4 00
 .text          0x0000000080047458     0x1a74 /usr/local/xenon/lib/gcc/xenon/4.7.1/32/libgcc.a(unwind-dw2-fde-dip.o)
                0x0000000080048974                __register_frame_info_bases
                0x00000000800489e8                __register_frame_info
                0x00000000800489f8                __register_frame
                0x0000000080048a5c                __register_frame_info_table_bases
                0x0000000080048ac0                __register_frame_info_table
                0x0000000080048ad0                __register_frame_table
                0x0000000080048b0c                __deregister_frame_info_bases
                0x0000000080048c78                __deregister_frame_info
                0x0000000080048c80                __deregister_frame
                0x0000000080048cb4                _Unwind_Find_FDE
 *fill*         0x0000000080048ecc        0x4 00
 .text          0x0000000080048ed0       0x88 /usr/local/xenon/xenon/lib/32/libc.a(lib_a-assert.o)
                0x0000000080048ed4                __assert_func
                0x0000000080048f40                __assert
 .text          0x0000000080048f58       0x1c /usr/local/xenon/xenon/lib/32/libc.a(lib_a-atoi.o)
                0x0000000080048f58                atoi
                0x0000000080048f68                _atoi_r
 *fill*         0x0000000080048f74        0x4 00
 .text          0x0000000080048f78       0x48 /usr/local/xenon/xenon/lib/32/libc.a(lib_a-calloc.o)
                0x0000000080048f7c                calloc
 .text          0x0000000080048fc0       0xd0 /usr/local/xenon/xenon/lib/32/libc.a(lib_a-callocr.o)
                0x0000000080048fc0                _calloc_r
 .text          0x0000000080049090       0x40 /usr/local/xenon/xenon/lib/32/libc.a(lib_a-errno.o)
                0x0000000080049094                __errno
 .text          0x00000000800490d0       0x58 /usr/local/xenon/xenon/lib/32/libc.a(lib_a-exit.o)
                0x00000000800490d4                exit
 .text          0x0000000080049128      0x19c /usr/local/xenon/xenon/lib/32/libc.a(lib_a-fclose.o)
                0x0000000080049128                _fclose_r
                0x0000000080049284                fclose
 *fill*         0x00000000800492c4        0x4 00
 .text          0x00000000800492c8      0x3e0 /usr/local/xenon/xenon/lib/32/libc.a(lib_a-fflush.o)
                0x00000000800492c8                __sflush_r
                0x00000000800495c0                _fflush_r
                0x000000008004963c                fflush
 .text          0x00000000800496a8      0x460 /usr/local/xenon/xenon/lib/32/libc.a(lib_a-findfp.o)
                0x00000000800496bc                _cleanup_r
                0x0000000080049798                __sfmoreglue
                0x000000008004981c                _cleanup
                0x0000000080049858                __sfp_lock_acquire
                0x0000000080049860                __sfp_lock_release
                0x0000000080049868                __sinit_lock_acquire
                0x0000000080049870                __sinit_lock_release
                0x000000008004987c                __sinit
                0x0000000080049924                __sfp
                0x0000000080049a7c                __fp_lock_all
                0x0000000080049ac4                __fp_unlock_all
 .text          0x0000000080049b08      0x130 /usr/local/xenon/xenon/lib/32/libc.a(lib_a-fiprintf.o)
                0x0000000080049b08                _fiprintf_r
                0x0000000080049b8c                fiprintf
 .text          0x0000000080049c38      0x1b0 /usr/local/xenon/xenon/lib/32/libc.a(lib_a-fopen.o)
                0x0000000080049c3c                _fopen_r
                0x0000000080049da4                fopen
 .text          0x0000000080049de8      0x130 /usr/local/xenon/xenon/lib/32/libc.a(lib_a-fprintf.o)
                0x0000000080049de8                _fprintf_r
                0x0000000080049e6c                fprintf
 .text          0x0000000080049f18      0x108 /usr/local/xenon/xenon/lib/32/libc.a(lib_a-fputs.o)
                0x0000000080049f18                _fputs_r
                0x0000000080049fdc                fputs
 .text          0x000000008004a020      0x30c /usr/local/xenon/xenon/lib/32/libc.a(lib_a-fread.o)
                0x000000008004a020                _fread_r
                0x000000008004a2d4                fread
 *fill*         0x000000008004a32c        0x4 00
 .text          0x000000008004a330      0x464 /usr/local/xenon/xenon/lib/32/libc.a(lib_a-freer.o)
                0x000000008004a334                _malloc_trim_r
                0x000000008004a494                _free_r
 *fill*         0x000000008004a794        0x4 00
 .text          0x000000008004a798      0x5f0 /usr/local/xenon/xenon/lib/32/libc.a(lib_a-fseek.o)
                0x000000008004a79c                _fseek_r
                0x000000008004ad3c                fseek
 .text          0x000000008004ad88       0x9c /usr/local/xenon/xenon/lib/32/libc.a(lib_a-fstatr.o)
                0x000000008004ad8c                _fstat_r
 *fill*         0x000000008004ae24        0x4 00
 .text          0x000000008004ae28      0x1a4 /usr/local/xenon/xenon/lib/32/libc.a(lib_a-ftell.o)
                0x000000008004ae28                _ftell_r
                0x000000008004af8c                ftell
 *fill*         0x000000008004afcc        0x4 00
 .text          0x000000008004afd0      0x5a4 /usr/local/xenon/xenon/lib/32/libc.a(lib_a-fvwrite.o)
                0x000000008004afd0                __sfvwrite_r
 *fill*         0x000000008004b574        0x4 00
 .text          0x000000008004b578      0x210 /usr/local/xenon/xenon/lib/32/libc.a(lib_a-fwalk.o)
                0x000000008004b578                _fwalk
                0x000000008004b678                _fwalk_reent
 .text          0x000000008004b788       0x94 /usr/local/xenon/xenon/lib/32/libc.a(lib_a-getenv.o)
                0x000000008004b78c                _findenv
                0x000000008004b7d4                getenv
 *fill*         0x000000008004b81c        0x4 00
 .text          0x000000008004b820      0x194 /usr/local/xenon/xenon/lib/32/libc.a(lib_a-getenv_r.o)
                0x000000008004b824                _findenv_r
                0x000000008004b990                _getenv_r
 *fill*         0x000000008004b9b4        0x4 00
 .text          0x000000008004b9b8        0x8 /usr/local/xenon/xenon/lib/32/libc.a(lib_a-lcltime_r.o)
                0x000000008004b9b8                localtime_r
 .text          0x000000008004b9c0      0x250 /usr/local/xenon/xenon/lib/32/libc.a(lib_a-locale.o)
                0x000000008004b9c4                _setlocale_r
                0x000000008004ba84                __locale_charset
                0x000000008004bac4                __locale_mb_cur_max
                0x000000008004bb04                __locale_msgcharset
                0x000000008004bb40                __locale_cjk_lang
                0x000000008004bb4c                _localeconv_r
                0x000000008004bb8c                setlocale
                0x000000008004bbd4                localeconv
 .text          0x000000008004bc10      0x210 /usr/local/xenon/xenon/lib/32/libc.a(lib_a-makebuf.o)
                0x000000008004bc14                __smakebuf_r
 .text          0x000000008004be20       0x48 /usr/local/xenon/xenon/lib/32/libc.a(lib_a-malign.o)
                0x000000008004be24                memalign
 .text          0x000000008004be68      0x208 /usr/local/xenon/xenon/lib/32/libc.a(lib_a-malignr.o)
                0x000000008004be68                _memalign_r
 .text          0x000000008004c070       0x8c /usr/local/xenon/xenon/lib/32/libc.a(lib_a-malloc.o)
                0x000000008004c074                malloc
                0x000000008004c0bc                free
 *fill*         0x000000008004c0fc        0x4 00
 .text          0x000000008004c100      0x918 /usr/local/xenon/xenon/lib/32/libc.a(lib_a-mallocr.o)
                0x000000008004c104                _malloc_r
 .text          0x000000008004ca18      0x1f8 /usr/local/xenon/xenon/lib/32/libc.a(lib_a-mbrtowc.o)
                0x000000008004ca1c                _mbrtowc_r
                0x000000008004cb04                mbrtowc
 .text          0x000000008004cc10       0x74 /usr/local/xenon/xenon/lib/32/libc.a(lib_a-mbsrtowcs.o)
                0x000000008004cc10                _mbsrtowcs_r
                0x000000008004cc2c                mbsrtowcs
 *fill*         0x000000008004cc84        0x4 00
 .text          0x000000008004cc88       0xec /usr/local/xenon/xenon/lib/32/libc.a(lib_a-mbtowc_r.o)
                0x000000008004cc88                __ascii_mbtowc
                0x000000008004ccec                _mbtowc_r
 *fill*         0x000000008004cd74        0x4 00
 .text          0x000000008004cd78      0x120 /usr/local/xenon/xenon/lib/32/libc.a(lib_a-memchr.o)
                0x000000008004cd78                memchr
 .text          0x000000008004ce98       0xc0 /usr/local/xenon/xenon/lib/32/libc.a(lib_a-memcmp.o)
                0x000000008004ce98                memcmp
 .text          0x000000008004cf58      0x118 /usr/local/xenon/xenon/lib/32/libc.a(lib_a-memcpy.o)
                0x000000008004cf58                memcpy
 .text          0x000000008004d070      0x178 /usr/local/xenon/xenon/lib/32/libc.a(lib_a-memmove.o)
                0x000000008004d070                memmove
 .text          0x000000008004d1e8      0x144 /usr/local/xenon/xenon/lib/32/libc.a(lib_a-memset.o)
                0x000000008004d1e8                memset
 *fill*         0x000000008004d32c        0x4 00
 .text          0x000000008004d330      0x90c /usr/local/xenon/xenon/lib/32/libc.a(lib_a-mktime.o)
                0x000000008004d6b4                mktime
 *fill*         0x000000008004dc3c        0x4 00
 .text          0x000000008004dc40      0x8f4 /usr/local/xenon/xenon/lib/32/libc.a(lib_a-mktm_r.o)
                0x000000008004dc44                __tzcalc_limits
                0x000000008004df24                _mktm_r
 *fill*         0x000000008004e534        0x4 00
 .text          0x000000008004e538       0xa4 /usr/local/xenon/xenon/lib/32/libc.a(lib_a-openr.o)
                0x000000008004e53c                _open_r
 *fill*         0x000000008004e5dc        0x4 00
 .text          0x000000008004e5e0      0x138 /usr/local/xenon/xenon/lib/32/libc.a(lib_a-printf.o)
                0x000000008004e5e0                _printf_r
                0x000000008004e66c                printf
 .text          0x000000008004e718       0x50 /usr/local/xenon/xenon/lib/32/libc.a(lib_a-putchar.o)
                0x000000008004e718                _putchar_r
                0x000000008004e724                putchar
 .text          0x000000008004e768      0x21c /usr/local/xenon/xenon/lib/32/libc.a(lib_a-putc.o)
                0x000000008004e768                _putc_r
                0x000000008004e854                putc
 *fill*         0x000000008004e984        0x4 00
 .text          0x000000008004e988      0x12c /usr/local/xenon/xenon/lib/32/libc.a(lib_a-puts.o)
                0x000000008004e98c                _puts_r
                0x000000008004ea74                puts
 *fill*         0x000000008004eab4        0x4 00
 .text          0x000000008004eab8       0xd4 /usr/local/xenon/xenon/lib/32/libc.a(lib_a-rand.o)
                0x000000008004eabc                srand
                0x000000008004eb0c                rand
 *fill*         0x000000008004eb8c        0x4 00
 .text          0x000000008004eb90       0x48 /usr/local/xenon/xenon/lib/32/libc.a(lib_a-realloc.o)
                0x000000008004eb94                realloc
 .text          0x000000008004ebd8      0x6f0 /usr/local/xenon/xenon/lib/32/libc.a(lib_a-reallocr.o)
                0x000000008004ebdc                _realloc_r
 .text          0x000000008004f2c8      0x2f8 /usr/local/xenon/xenon/lib/32/libc.a(lib_a-refill.o)
                0x000000008004f2f4                __srefill_r
 .text          0x000000008004f5c0       0x94 /usr/local/xenon/xenon/lib/32/libc.a(lib_a-sbrkr.o)
                0x000000008004f5c4                _sbrk_r
 *fill*         0x000000008004f654        0x4 00
 .text          0x000000008004f658       0x14 /usr/local/xenon/xenon/lib/32/libc.a(lib_a-setbuf.o)
                0x000000008004f658                setbuf
 .text          0x000000008004f66c      0x250 /usr/local/xenon/xenon/lib/32/libc.a(lib_a-setjmp.o)
                0x000000008004f66c                setjmp
                0x000000008004f790                longjmp
 *fill*         0x000000008004f8bc        0x4 00
 .text          0x000000008004f8c0      0x244 /usr/local/xenon/xenon/lib/32/libc.a(lib_a-setvbuf.o)
                0x000000008004f8c4                setvbuf
 *fill*         0x000000008004fb04        0x4 00
 .text          0x000000008004fb08      0x240 /usr/local/xenon/xenon/lib/32/libc.a(lib_a-snprintf.o)
                0x000000008004fb08                _snprintf_r
                0x000000008004fc1c                snprintf
 .text          0x000000008004fd48      0x1a8 /usr/local/xenon/xenon/lib/32/libc.a(lib_a-sprintf.o)
                0x000000008004fd48                _sprintf_r
                0x000000008004fe0c                sprintf
 .text          0x000000008004fef0      0x194 /usr/local/xenon/xenon/lib/32/libc.a(lib_a-stdio.o)
                0x000000008004fef0                __sread
                0x000000008004ff58                __seofread
                0x000000008004ff60                __swrite
                0x0000000080050008                __sseek
                0x0000000080050078                __sclose
 *fill*         0x0000000080050084        0x4 00
 .text          0x0000000080050088       0xac /usr/local/xenon/xenon/lib/32/libc.a(lib_a-strcat.o)
                0x0000000080050088                strcat
 *fill*         0x0000000080050134        0x4 00
 .text          0x0000000080050138      0x1b0 /usr/local/xenon/xenon/lib/32/libc.a(lib_a-strchr.o)
                0x0000000080050138                strchr
 .text          0x00000000800502e8       0xe8 /usr/local/xenon/xenon/lib/32/libc.a(lib_a-strcmp.o)
                0x00000000800502e8                strcmp
 .text          0x00000000800503d0       0xa8 /usr/local/xenon/xenon/lib/32/libc.a(lib_a-strcpy.o)
                0x00000000800503d0                strcpy
 .text          0x0000000080050478       0x44 /usr/local/xenon/xenon/lib/32/libc.a(lib_a-strdup.o)
                0x000000008005047c                strdup
 *fill*         0x00000000800504bc        0x4 00
 .text          0x00000000800504c0       0x78 /usr/local/xenon/xenon/lib/32/libc.a(lib_a-strdup_r.o)
                0x00000000800504c0                _strdup_r
 .text          0x0000000080050538       0xec /usr/local/xenon/xenon/lib/32/libc.a(lib_a-strlcat.o)
                0x0000000080050538                strlcat
 *fill*         0x0000000080050624        0x4 00
 .text          0x0000000080050628       0x88 /usr/local/xenon/xenon/lib/32/libc.a(lib_a-strlcpy.o)
                0x0000000080050628                strlcpy
 .text          0x00000000800506b0       0xbc /usr/local/xenon/xenon/lib/32/libc.a(lib_a-strlen.o)
                0x00000000800506b0                strlen
 *fill*         0x000000008005076c        0x4 00
 .text          0x0000000080050770       0xd4 /usr/local/xenon/xenon/lib/32/libc.a(lib_a-strncasecmp.o)
                0x0000000080050774                strncasecmp
 *fill*         0x0000000080050844        0x4 00
 .text          0x0000000080050848      0x170 /usr/local/xenon/xenon/lib/32/libc.a(lib_a-strncmp.o)
                0x0000000080050848                strncmp
 .text          0x00000000800509b8      0x104 /usr/local/xenon/xenon/lib/32/libc.a(lib_a-strncpy.o)
                0x00000000800509b8                strncpy
 *fill*         0x0000000080050abc        0x4 00
 .text          0x0000000080050ac0       0x64 /usr/local/xenon/xenon/lib/32/libc.a(lib_a-strnlen.o)
                0x0000000080050ac0                strnlen
 *fill*         0x0000000080050b24        0x4 00
 .text          0x0000000080050b28       0xa4 /usr/local/xenon/xenon/lib/32/libc.a(lib_a-strpbrk.o)
                0x0000000080050b28                strpbrk
 *fill*         0x0000000080050bcc        0x4 00
 .text          0x0000000080050bd0       0x88 /usr/local/xenon/xenon/lib/32/libc.a(lib_a-strrchr.o)
                0x0000000080050bd0                strrchr
 .text          0x0000000080050c58       0x48 /usr/local/xenon/xenon/lib/32/libc.a(lib_a-strtok.o)
                0x0000000080050c5c                strtok
 .text          0x0000000080050ca0      0x100 /usr/local/xenon/xenon/lib/32/libc.a(lib_a-strtok_r.o)
                0x0000000080050ca0                __strtok_r
                0x0000000080050d98                strtok_r
 .text          0x0000000080050da0      0x2d0 /usr/local/xenon/xenon/lib/32/libc.a(lib_a-strtol.o)
                0x0000000080050da4                _strtol_r
                0x0000000080051024                strtol
 .text          0x0000000080051070       0x50 /usr/local/xenon/xenon/lib/32/libc.a(lib_a-strtoull.o)
                0x0000000080051074                strtoull
 .text          0x00000000800510c0      0x3a4 /usr/local/xenon/xenon/lib/32/libc.a(lib_a-strtoull_r.o)
                0x00000000800510c4                _strtoull_r
 *fill*         0x0000000080051464        0x4 00
 .text          0x0000000080051468     0x2190 /usr/local/xenon/xenon/lib/32/libc.a(lib_a-svfprintf.o)
                0x000000008005146c                _svfprintf_r
 .text          0x00000000800535f8      0x10c /usr/local/xenon/xenon/lib/32/libc.a(lib_a-system.o)
                0x00000000800535fc                _system_r
                0x00000000800536c4                system
 *fill*         0x0000000080053704        0x4 00
 .text          0x0000000080053708       0x78 /usr/local/xenon/xenon/lib/32/libc.a(lib_a-time.o)
                0x000000008005370c                time
 .text          0x0000000080053780       0x78 /usr/local/xenon/xenon/lib/32/libc.a(lib_a-towlower.o)
                0x0000000080053784                towlower
 .text          0x00000000800537f8       0x78 /usr/local/xenon/xenon/lib/32/libc.a(lib_a-towupper.o)
                0x00000000800537fc                towupper
 .text          0x0000000080053870        0xc /usr/local/xenon/xenon/lib/32/libc.a(lib_a-tzlock.o)
                0x0000000080053870                __tz_lock
                0x0000000080053878                __tz_unlock
 *fill*         0x000000008005387c        0x4 00
 .text          0x0000000080053880     0x15d0 /usr/local/xenon/xenon/lib/32/libc.a(lib_a-vfiprintf.o)
                0x0000000080053880                __sprint_r
                0x00000000800539cc                _vfiprintf_r
                0x0000000080054e04                vfiprintf
 .text          0x0000000080054e50     0x22b8 /usr/local/xenon/xenon/lib/32/libc.a(lib_a-vfprintf.o)
                0x0000000080054e54                _vfprintf_r
                0x00000000800570bc                vfprintf
 .text          0x0000000080057108       0xb0 /usr/local/xenon/xenon/lib/32/libc.a(lib_a-vsprintf.o)
                0x0000000080057108                _vsprintf_r
                0x000000008005716c                vsprintf
 .text          0x00000000800571b8      0x1f8 /usr/local/xenon/xenon/lib/32/libc.a(lib_a-wbuf.o)
                0x00000000800571b8                __swbuf_r
                0x000000008005736c                __swbuf
 .text          0x00000000800573b0      0x1d4 /usr/local/xenon/xenon/lib/32/libc.a(lib_a-wcrtomb.o)
                0x00000000800573b4                _wcrtomb_r
                0x000000008005748c                wcrtomb
 *fill*         0x0000000080057584        0x4 00
 .text          0x0000000080057588       0xcc /usr/local/xenon/xenon/lib/32/libc.a(lib_a-wctob.o)
                0x000000008005758c                wctob
 *fill*         0x0000000080057654        0x4 00
 .text          0x0000000080057658       0xc4 /usr/local/xenon/xenon/lib/32/libc.a(lib_a-wctomb_r.o)
                0x0000000080057658                __ascii_wctomb
                0x000000008005769c                _wctomb_r
 *fill*         0x000000008005771c        0x4 00
 .text          0x0000000080057720       0x9c /usr/local/xenon/xenon/lib/32/libc.a(lib_a-writer.o)
                0x0000000080057724                _write_r
 *fill*         0x00000000800577bc        0x4 00
 .text          0x00000000800577c0      0x1e0 /usr/local/xenon/xenon/lib/32/libc.a(lib_a-wsetup.o)
                0x00000000800577c4                __swsetup_r
 .text          0x00000000800579a0      0x20c /usr/local/xenon/xenon/lib/32/libc.a(lib_a-__call_atexit.o)
                0x00000000800579a4                __call_exitprocs
 *fill*         0x0000000080057bac        0x4 00
 .text          0x0000000080057bb0       0x94 /usr/local/xenon/xenon/lib/32/libc.a(lib_a-closer.o)
                0x0000000080057bb4                _close_r
 *fill*         0x0000000080057c44        0x4 00
 .text          0x0000000080057c48       0x5c /usr/local/xenon/xenon/lib/32/libc.a(lib_a-div.o)
                0x0000000080057c48                div
 *fill*         0x0000000080057ca4        0x4 00
 .text          0x0000000080057ca8     0x1464 /usr/local/xenon/xenon/lib/32/libc.a(lib_a-dtoa.o)
                0x0000000080057ec4                _dtoa_r
 *fill*         0x000000008005910c        0x4 00
 .text          0x0000000080059110        0xc /usr/local/xenon/xenon/lib/32/libc.a(lib_a-envlock.o)
                0x0000000080059110                __env_lock
                0x0000000080059118                __env_unlock
 *fill*         0x000000008005911c        0x4 00
 .text          0x0000000080059120      0x1cc /usr/local/xenon/xenon/lib/32/libc.a(lib_a-execr.o)
                0x0000000080059124                _execve_r
                0x00000000800591c4                _fork_r
                0x000000008005925c                _wait_r
 *fill*         0x00000000800592ec        0x4 00
 .text          0x00000000800592f0       0xa0 /usr/local/xenon/xenon/lib/32/libc.a(lib_a-flags.o)
                0x00000000800592f0                __sflags
 .text          0x0000000080059390      0x288 /usr/local/xenon/xenon/lib/32/libc.a(lib_a-fputwc.o)
                0x0000000080059390                _fputwc_r
                0x000000008005959c                fputwc
 .text          0x0000000080059618       0x9c /usr/local/xenon/xenon/lib/32/libc.a(lib_a-gettimeofdayr.o)
                0x000000008005961c                _gettimeofday_r
 *fill*         0x00000000800596b4        0x4 00
 .text          0x00000000800596b8       0x3c /usr/local/xenon/xenon/lib/32/libc.a(lib_a-gettzinfo.o)
                0x00000000800596bc                __gettzinfo
 *fill*         0x00000000800596f4        0x4 00
 .text          0x00000000800596f8       0x94 /usr/local/xenon/xenon/lib/32/libc.a(lib_a-isattyr.o)
                0x00000000800596fc                _isatty_r
 *fill*         0x000000008005978c        0x4 00
 .text          0x0000000080059790       0x9c /usr/local/xenon/xenon/lib/32/libc.a(lib_a-lseekr.o)
                0x0000000080059794                _lseek_r
 *fill*         0x000000008005982c        0x4 00
 .text          0x0000000080059830      0x22c /usr/local/xenon/xenon/lib/32/libc.a(lib_a-mbsnrtowcs.o)
                0x0000000080059830                _mbsnrtowcs_r
                0x00000000800599fc                mbsnrtowcs
 *fill*         0x0000000080059a5c        0x4 00
 .text          0x0000000080059a60     0x12c0 /usr/local/xenon/xenon/lib/32/libc.a(lib_a-mprec.o)
                0x0000000080059a60                _Balloc
                0x0000000080059b28                _Bfree
                0x0000000080059b50                __multadd
                0x0000000080059c78                __s2b
                0x0000000080059dc8                __hi0bits
                0x0000000080059e40                __lo0bits
                0x0000000080059f20                __i2b
                0x0000000080059f60                __multiply
                0x000000008005a1b4                __pow5mult
                0x000000008005a308                __lshift
                0x000000008005a480                __mcmp
                0x000000008005a4e0                __mdiff
                0x000000008005a6c8                __ulp
                0x000000008005a760                __b2d
                0x000000008005a8f0                __d2b
                0x000000008005aa90                __ratio
                0x000000008005ab7c                _mprec_log10
                0x000000008005abf8                __copybits
                0x000000008005ac80                __any_on
 .text          0x000000008005ad20       0x9c /usr/local/xenon/xenon/lib/32/libc.a(lib_a-readr.o)
                0x000000008005ad24                _read_r
 *fill*         0x000000008005adbc        0x4 00
 .text          0x000000008005adc0       0xc4 /usr/local/xenon/xenon/lib/32/libc.a(lib_a-s_fpclassify.o)
                0x000000008005adc0                __fpclassifyd
 *fill*         0x000000008005ae84        0x4 00
 .text          0x000000008005ae88     0x1624 /usr/local/xenon/xenon/lib/32/libc.a(lib_a-svfiprintf.o)
                0x000000008005ae88                __ssprint_r
                0x000000008005b16c                _svfiprintf_r
 *fill*         0x000000008005c4ac        0x4 00
 .text          0x000000008005c4b0      0x434 /usr/local/xenon/lib/gcc/xenon/4.7.1/32/libgcc.a(_udivdi3.o)
                0x000000008005c4b0                __udivdi3
 *fill*         0x000000008005c8e4        0x4 00
 .text          0x000000008005c8e8      0x3b0 /usr/local/xenon/lib/gcc/xenon/4.7.1/32/libgcc.a(_umoddi3.o)
                0x000000008005c8e8                __umoddi3

.glink          0x000000008005cc98        0x0
 .glink         0x0000000000000000        0x0 /usr/local/xenon/lib/gcc/xenon/4.7.1/../../../../xenon/lib/../lib/crt1.o

.elfldr         0x000000008005cc98      0x814
                0x000000008005cc98                elfldr_start = .
 *(.elfldr)
 .elfldr        0x000000008005cc98      0x730 /usr/local/xenon/usr/lib/libxenon.a(elf.o)
 .elfldr        0x000000008005d3c8       0xe4 /usr/local/xenon/usr/lib/libxenon.a(elf_run.o)
                0x000000008005d3c8                elf_hold_thread
                0x000000008005d3f4                elf_run
                0x000000008005d4a8                elf_secondary_hold_addr
                0x000000008005d4ac                elfldr_end = .

.data           0x000000008005d4b0     0x9120
 *(.data*)
 .data.filelist
                0x000000008005d4b0       0x38 file.o
                0x000000008005d4b0                filelist
 .data.http_handler
                0x000000008005d4e8      0x118 httpd.o
                0x000000008005d4e8                http_handler
 .data.INDEX_HTML
                0x000000008005d600      0x380 httpd_index.o
                0x000000008005d600                INDEX_HTML
 .data.oldvideomode.4209
                0x000000008005d980        0x4 kbootconf.o
 .data.virgin.2070
                0x000000008005d984        0x4 puff.o
 .data          0x000000008005d988      0x7e6 device_tree_include.o
                0x000000008005d988                dt_blob_start
                0x000000008005e16e                dt_blob_end
 *fill*         0x000000008005e16e        0x2 00
 .data.xenon_ata_ops
                0x000000008005e170       0x24 /usr/local/xenon/usr/lib/libxenon.a(ata.o)
                0x000000008005e170                xenon_ata_ops
 .data.xenon_atapi_ops
                0x000000008005e194       0x24 /usr/local/xenon/usr/lib/libxenon.a(ata.o)
                0x000000008005e194                xenon_atapi_ops
 .data._current_working_directory
                0x000000008005e1b8      0x400 /usr/local/xenon/usr/lib/libxenon.a(newlib.o)
 .data.devoptab_list
                0x000000008005e5b8       0x40 /usr/local/xenon/usr/lib/libxenon.a(newlib.o)
                0x000000008005e5b8                devoptab_list
 .data.defaultDevice
                0x000000008005e5f8        0x4 /usr/local/xenon/usr/lib/libxenon.a(newlib.o)
 .data.__syscalls
                0x000000008005e5fc       0x24 /usr/local/xenon/usr/lib/libxenon.a(xenon_syscalls.o)
                0x000000008005e5fc                __syscalls
 .data.lockowner
                0x000000008005e620        0x4 /usr/local/xenon/usr/lib/libxenon.a(xenon_syscalls.o)
 .data.usbctrl_driver
                0x000000008005e624        0xc /usr/local/xenon/usr/lib/libxenon.a(usbctrl.o)
                0x000000008005e624                usbctrl_driver
 .data.usb_drivers
                0x000000008005e630       0xa0 /usr/local/xenon/usr/lib/libxenon.a(usbdevs.o)
                0x000000008005e630                usb_drivers
 .data.usbhid_driver
                0x000000008005e6d0        0xc /usr/local/xenon/usr/lib/libxenon.a(usbhid.o)
                0x000000008005e6d0                usbhid_driver
 .data.usbhid_scantable
                0x000000008005e6dc      0x650 /usr/local/xenon/usr/lib/libxenon.a(usbhid.o)
 .data.usbhub_driver
                0x000000008005ed2c        0xc /usr/local/xenon/usr/lib/libxenon.a(usbhub.o)
                0x000000008005ed2c                usbhub_driver
 .data.usbroothub_driver
                0x000000008005ed38        0xc /usr/local/xenon/usr/lib/libxenon.a(usbhub.o)
                0x000000008005ed38                usbroothub_driver
 .data.usb2mass_ops_1
                0x000000008005ed44       0x24 /usr/local/xenon/usr/lib/libxenon.a(tinyehci.o)
                0x000000008005ed44                usb2mass_ops_1
 .data.usb2mass_ops_0
                0x000000008005ed68       0x24 /usr/local/xenon/usr/lib/libxenon.a(tinyehci.o)
                0x000000008005ed68                usb2mass_ops_0
 .data.usb2mass_ops_2
                0x000000008005ed8c       0x24 /usr/local/xenon/usr/lib/libxenon.a(tinyehci.o)
                0x000000008005ed8c                usb2mass_ops_2
 .data.first_access
                0x000000008005edb0        0x4 /usr/local/xenon/usr/lib/libxenon.a(tinyehci.o)
 *fill*         0x000000008005edb4        0x4 00
 .data.smc_snd.2463
                0x000000008005edb8       0x20 /usr/local/xenon/usr/lib/libxenon.a(sound.o)
 .data.ana_vga_1440x900
                0x000000008005edd8      0x400 /usr/local/xenon/usr/lib/libxenon.a(xenos.o)
                0x000000008005edd8                ana_vga_1440x900
 .data.ana_vga_640x480_corona
                0x000000008005f1d8      0x400 /usr/local/xenon/usr/lib/libxenon.a(xenos.o)
                0x000000008005f1d8                ana_vga_640x480_corona
 .data.ana_yuv_720p_corona
                0x000000008005f5d8      0x400 /usr/local/xenon/usr/lib/libxenon.a(xenos.o)
                0x000000008005f5d8                ana_yuv_720p_corona
 .data.ana_vga_1360x768
                0x000000008005f9d8      0x400 /usr/local/xenon/usr/lib/libxenon.a(xenos.o)
                0x000000008005f9d8                ana_vga_1360x768
 .data.ana_ntsc_corona
                0x000000008005fdd8      0x400 /usr/local/xenon/usr/lib/libxenon.a(xenos.o)
                0x000000008005fdd8                ana_ntsc_corona
 .data.xenos_modes_corona
                0x00000000800601d8      0x30c /usr/local/xenon/usr/lib/libxenon.a(xenos.o)
                0x00000000800601d8                xenos_modes_corona
 .data.ana_pal60
                0x00000000800604e4      0x400 /usr/local/xenon/usr/lib/libxenon.a(xenos.o)
                0x00000000800604e4                ana_pal60
 .data.ana_hdmi_720p_corona
                0x00000000800608e4      0x400 /usr/local/xenon/usr/lib/libxenon.a(xenos.o)
                0x00000000800608e4                ana_hdmi_720p_corona
 .data.ana_yuv_480p_corona
                0x0000000080060ce4      0x400 /usr/local/xenon/usr/lib/libxenon.a(xenos.o)
                0x0000000080060ce4                ana_yuv_480p_corona
 .data.ana_vga_1280x720_corona
                0x00000000800610e4      0x400 /usr/local/xenon/usr/lib/libxenon.a(xenos.o)
                0x00000000800610e4                ana_vga_1280x720_corona
 .data.ana_ntsc
                0x00000000800614e4      0x400 /usr/local/xenon/usr/lib/libxenon.a(xenos.o)
                0x00000000800614e4                ana_ntsc
 .data.ana_vga_1280x768
                0x00000000800618e4      0x400 /usr/local/xenon/usr/lib/libxenon.a(xenos.o)
                0x00000000800618e4                ana_vga_1280x768
 .data.ana_vga_1280x1024_corona
                0x0000000080061ce4      0x400 /usr/local/xenon/usr/lib/libxenon.a(xenos.o)
                0x0000000080061ce4                ana_vga_1280x1024_corona
 .data.ana_vga_640x480
                0x00000000800620e4      0x400 /usr/local/xenon/usr/lib/libxenon.a(xenos.o)
                0x00000000800620e4                ana_vga_640x480
 .data.ana_pal50_corona
                0x00000000800624e4      0x400 /usr/local/xenon/usr/lib/libxenon.a(xenos.o)
                0x00000000800624e4                ana_pal50_corona
 .data.xenos_modes
                0x00000000800628e4      0x30c /usr/local/xenon/usr/lib/libxenon.a(xenos.o)
                0x00000000800628e4                xenos_modes
 .data.ana_pal50
                0x0000000080062bf0      0x400 /usr/local/xenon/usr/lib/libxenon.a(xenos.o)
                0x0000000080062bf0                ana_pal50
 .data.ana_vga_1440x900_corona
                0x0000000080062ff0      0x400 /usr/local/xenon/usr/lib/libxenon.a(xenos.o)
                0x0000000080062ff0                ana_vga_1440x900_corona
 .data.ana_vga_1024x768_corona
                0x00000000800633f0      0x400 /usr/local/xenon/usr/lib/libxenon.a(xenos.o)
                0x00000000800633f0                ana_vga_1024x768_corona
 .data.ana_hdmi_720p
                0x00000000800637f0      0x400 /usr/local/xenon/usr/lib/libxenon.a(xenos.o)
                0x00000000800637f0                ana_hdmi_720p
 .data.ana_yuv_720p
                0x0000000080063bf0      0x400 /usr/local/xenon/usr/lib/libxenon.a(xenos.o)
                0x0000000080063bf0                ana_yuv_720p
 .data.ana_vga_1360x768_corona
                0x0000000080063ff0      0x400 /usr/local/xenon/usr/lib/libxenon.a(xenos.o)
                0x0000000080063ff0                ana_vga_1360x768_corona
 .data.ana_vga_1280x720
                0x00000000800643f0      0x400 /usr/local/xenon/usr/lib/libxenon.a(xenos.o)
                0x00000000800643f0                ana_vga_1280x720
 .data.ana_vga_1024x768
                0x00000000800647f0      0x400 /usr/local/xenon/usr/lib/libxenon.a(xenos.o)
                0x00000000800647f0                ana_vga_1024x768
 .data.ana_pal60_corona
                0x0000000080064bf0      0x400 /usr/local/xenon/usr/lib/libxenon.a(xenos.o)
                0x0000000080064bf0                ana_pal60_corona
 .data.ana_vga_1280x768_corona
                0x0000000080064ff0      0x400 /usr/local/xenon/usr/lib/libxenon.a(xenos.o)
                0x0000000080064ff0                ana_vga_1280x768_corona
 .data.ana_vga_1280x1024
                0x00000000800653f0      0x400 /usr/local/xenon/usr/lib/libxenon.a(xenos.o)
                0x00000000800653f0                ana_vga_1280x1024
 .data.ana_yuv_480p
                0x00000000800657f0      0x400 /usr/local/xenon/usr/lib/libxenon.a(xenos.o)
                0x00000000800657f0                ana_yuv_480p
 .data.port.3799
                0x0000000080065bf0        0x2 /usr/local/xenon/usr/lib/libxenon.a(tcp.o)
 *fill*         0x0000000080065bf2        0x2 00
 .data.iss.3948
                0x0000000080065bf4        0x4 /usr/local/xenon/usr/lib/libxenon.a(tcp.o)
 .data.xid.3885
                0x0000000080065bf8        0x4 /usr/local/xenon/usr/lib/libxenon.a(dhcp.o)
 .data.dummy_driver
                0x0000000080065bfc        0xc /usr/local/xenon/usr/lib/libxenon.a(dummy.o)
                0x0000000080065bfc                dummy_driver
 .data.ohci_driver
                0x0000000080065c08       0x2c /usr/local/xenon/usr/lib/libxenon.a(ohci.o)
                0x0000000080065c08                ohci_driver
 .data          0x0000000080065c34       0x38 /usr/local/xenon/usr/lib/libext2fs.a(blkmap64_ba.o)
                0x0000000080065c34                ext2fs_blkmap64_bitarray
 *fill*         0x0000000080065c6c        0x4 00
 .data          0x0000000080065c70       0x78 /usr/local/xenon/usr/lib/libxtaf.a(xtaf_partition.o)
                0x0000000080065c70                partition_table
 .data.rel.local
                0x0000000080065ce8      0x428 /usr/local/xenon/xenon/lib/32/libc.a(lib_a-impure.o)
 .data          0x0000000080066110       0x40 /usr/local/xenon/xenon/lib/32/libc.a(lib_a-locale.o)
 .data.rel.local
                0x0000000080066150       0x38 /usr/local/xenon/xenon/lib/32/libc.a(lib_a-locale.o)
 .data.rel      0x0000000080066188      0x408 /usr/local/xenon/xenon/lib/32/libc.a(lib_a-mallocr.o)
                0x0000000080066188                __malloc_av_
 .data          0x0000000080066590       0x40 /usr/local/xenon/xenon/lib/32/libc.a(lib_a-gettzinfo.o)

.got2           0x00000000800665d0      0x2e8
 .got2          0x00000000800665d0        0x8 /usr/local/xenon/xenon/lib/32/libm.a(lib_a-s_ceil.o)
 .got2          0x00000000800665d8        0x8 /usr/local/xenon/xenon/lib/32/libm.a(lib_a-s_floor.o)
 .got2          0x00000000800665e0       0x14 /usr/local/xenon/lib/gcc/xenon/4.7.1/32/libgcc.a(unwind-dw2-fde-dip.o)
 .got2          0x00000000800665f4       0x10 /usr/local/xenon/xenon/lib/32/libc.a(lib_a-assert.o)
 .got2          0x0000000080066604        0x4 /usr/local/xenon/xenon/lib/32/libc.a(lib_a-calloc.o)
 .got2          0x0000000080066608        0x4 /usr/local/xenon/xenon/lib/32/libc.a(lib_a-errno.o)
 .got2          0x000000008006660c        0x4 /usr/local/xenon/xenon/lib/32/libc.a(lib_a-exit.o)
 .got2          0x0000000080066610        0x4 /usr/local/xenon/xenon/lib/32/libc.a(lib_a-fclose.o)
 .got2          0x0000000080066614        0xc /usr/local/xenon/xenon/lib/32/libc.a(lib_a-fflush.o)
 .got2          0x0000000080066620       0x28 /usr/local/xenon/xenon/lib/32/libc.a(lib_a-findfp.o)
 .got2          0x0000000080066648        0x4 /usr/local/xenon/xenon/lib/32/libc.a(lib_a-fiprintf.o)
 .got2          0x000000008006664c       0x14 /usr/local/xenon/xenon/lib/32/libc.a(lib_a-fopen.o)
 .got2          0x0000000080066660        0x4 /usr/local/xenon/xenon/lib/32/libc.a(lib_a-fprintf.o)
 .got2          0x0000000080066664        0x4 /usr/local/xenon/xenon/lib/32/libc.a(lib_a-fputs.o)
 .got2          0x0000000080066668        0x4 /usr/local/xenon/xenon/lib/32/libc.a(lib_a-fread.o)
 .got2          0x000000008006666c       0x18 /usr/local/xenon/xenon/lib/32/libc.a(lib_a-freer.o)
 .got2          0x0000000080066684        0x8 /usr/local/xenon/xenon/lib/32/libc.a(lib_a-fseek.o)
 .got2          0x000000008006668c        0x4 /usr/local/xenon/xenon/lib/32/libc.a(lib_a-fstatr.o)
 .got2          0x0000000080066690        0x4 /usr/local/xenon/xenon/lib/32/libc.a(lib_a-ftell.o)
 .got2          0x0000000080066694        0x4 /usr/local/xenon/xenon/lib/32/libc.a(lib_a-getenv.o)
 .got2          0x0000000080066698        0x4 /usr/local/xenon/xenon/lib/32/libc.a(lib_a-getenv_r.o)
 .got2          0x000000008006669c       0x1c /usr/local/xenon/xenon/lib/32/libc.a(lib_a-locale.o)
 .got2          0x00000000800666b8        0x8 /usr/local/xenon/xenon/lib/32/libc.a(lib_a-makebuf.o)
 .got2          0x00000000800666c0        0x4 /usr/local/xenon/xenon/lib/32/libc.a(lib_a-malign.o)
 .got2          0x00000000800666c4        0x4 /usr/local/xenon/xenon/lib/32/libc.a(lib_a-malloc.o)
 .got2          0x00000000800666c8       0x18 /usr/local/xenon/xenon/lib/32/libc.a(lib_a-mallocr.o)
 .got2          0x00000000800666e0        0xc /usr/local/xenon/xenon/lib/32/libc.a(lib_a-mbrtowc.o)
 .got2          0x00000000800666ec        0x4 /usr/local/xenon/xenon/lib/32/libc.a(lib_a-mbsrtowcs.o)
 .got2          0x00000000800666f0        0x4 /usr/local/xenon/xenon/lib/32/libc.a(lib_a-mbtowc_r.o)
 .got2          0x00000000800666f4        0x8 /usr/local/xenon/xenon/lib/32/libc.a(lib_a-mktime.o)
 .got2          0x00000000800666fc        0x8 /usr/local/xenon/xenon/lib/32/libc.a(lib_a-mktm_r.o)
 .got2          0x0000000080066704        0x4 /usr/local/xenon/xenon/lib/32/libc.a(lib_a-openr.o)
 .got2          0x0000000080066708        0x4 /usr/local/xenon/xenon/lib/32/libc.a(lib_a-printf.o)
 .got2          0x000000008006670c        0x4 /usr/local/xenon/xenon/lib/32/libc.a(lib_a-putchar.o)
 .got2          0x0000000080066710        0x4 /usr/local/xenon/xenon/lib/32/libc.a(lib_a-putc.o)
 .got2          0x0000000080066714        0x8 /usr/local/xenon/xenon/lib/32/libc.a(lib_a-puts.o)
 .got2          0x000000008006671c        0x4 /usr/local/xenon/xenon/lib/32/libc.a(lib_a-rand.o)
 .got2          0x0000000080066720        0x4 /usr/local/xenon/xenon/lib/32/libc.a(lib_a-realloc.o)
 .got2          0x0000000080066724        0x4 /usr/local/xenon/xenon/lib/32/libc.a(lib_a-reallocr.o)
 .got2          0x0000000080066728        0x8 /usr/local/xenon/xenon/lib/32/libc.a(lib_a-refill.o)
 .got2          0x0000000080066730        0x4 /usr/local/xenon/xenon/lib/32/libc.a(lib_a-sbrkr.o)
 .got2          0x0000000080066734        0x8 /usr/local/xenon/xenon/lib/32/libc.a(lib_a-setvbuf.o)
 .got2          0x000000008006673c        0x4 /usr/local/xenon/xenon/lib/32/libc.a(lib_a-snprintf.o)
 .got2          0x0000000080066740        0x4 /usr/local/xenon/xenon/lib/32/libc.a(lib_a-sprintf.o)
 .got2          0x0000000080066744        0x4 /usr/local/xenon/xenon/lib/32/libc.a(lib_a-strdup.o)
 .got2          0x0000000080066748        0x4 /usr/local/xenon/xenon/lib/32/libc.a(lib_a-strncasecmp.o)
 .got2          0x000000008006674c        0x4 /usr/local/xenon/xenon/lib/32/libc.a(lib_a-strtok.o)
 .got2          0x0000000080066750        0x8 /usr/local/xenon/xenon/lib/32/libc.a(lib_a-strtol.o)
 .got2          0x0000000080066758        0x4 /usr/local/xenon/xenon/lib/32/libc.a(lib_a-strtoull.o)
 .got2          0x000000008006675c        0x4 /usr/local/xenon/xenon/lib/32/libc.a(lib_a-strtoull_r.o)
 .got2          0x0000000080066760       0x30 /usr/local/xenon/xenon/lib/32/libc.a(lib_a-svfprintf.o)
 .got2          0x0000000080066790       0x14 /usr/local/xenon/xenon/lib/32/libc.a(lib_a-system.o)
 .got2          0x00000000800667a4        0x4 /usr/local/xenon/xenon/lib/32/libc.a(lib_a-time.o)
 .got2          0x00000000800667a8        0x4 /usr/local/xenon/xenon/lib/32/libc.a(lib_a-towlower.o)
 .got2          0x00000000800667ac        0x4 /usr/local/xenon/xenon/lib/32/libc.a(lib_a-towupper.o)
 .got2          0x00000000800667b0       0x1c /usr/local/xenon/xenon/lib/32/libc.a(lib_a-vfiprintf.o)
 .got2          0x00000000800667cc       0x34 /usr/local/xenon/xenon/lib/32/libc.a(lib_a-vfprintf.o)
 .got2          0x0000000080066800        0x4 /usr/local/xenon/xenon/lib/32/libc.a(lib_a-vsprintf.o)
 .got2          0x0000000080066804        0x4 /usr/local/xenon/xenon/lib/32/libc.a(lib_a-wbuf.o)
 .got2          0x0000000080066808        0x8 /usr/local/xenon/xenon/lib/32/libc.a(lib_a-wcrtomb.o)
 .got2          0x0000000080066810        0x8 /usr/local/xenon/xenon/lib/32/libc.a(lib_a-wctob.o)
 .got2          0x0000000080066818        0x4 /usr/local/xenon/xenon/lib/32/libc.a(lib_a-wctomb_r.o)
 .got2          0x000000008006681c        0x4 /usr/local/xenon/xenon/lib/32/libc.a(lib_a-writer.o)
 .got2          0x0000000080066820        0x4 /usr/local/xenon/xenon/lib/32/libc.a(lib_a-wsetup.o)
 .got2          0x0000000080066824        0x8 /usr/local/xenon/xenon/lib/32/libc.a(lib_a-__call_atexit.o)
 .got2          0x000000008006682c        0x4 /usr/local/xenon/xenon/lib/32/libc.a(lib_a-closer.o)
 .got2          0x0000000080066830       0x40 /usr/local/xenon/xenon/lib/32/libc.a(lib_a-dtoa.o)
 .got2          0x0000000080066870        0x4 /usr/local/xenon/xenon/lib/32/libc.a(lib_a-execr.o)
 .got2          0x0000000080066874        0x4 /usr/local/xenon/xenon/lib/32/libc.a(lib_a-fputwc.o)
 .got2          0x0000000080066878        0x4 /usr/local/xenon/xenon/lib/32/libc.a(lib_a-gettimeofdayr.o)
 .got2          0x000000008006687c        0x4 /usr/local/xenon/xenon/lib/32/libc.a(lib_a-gettzinfo.o)
 .got2          0x0000000080066880        0x4 /usr/local/xenon/xenon/lib/32/libc.a(lib_a-isattyr.o)
 .got2          0x0000000080066884        0x4 /usr/local/xenon/xenon/lib/32/libc.a(lib_a-lseekr.o)
 .got2          0x0000000080066888        0x4 /usr/local/xenon/xenon/lib/32/libc.a(lib_a-mbsnrtowcs.o)
 .got2          0x000000008006688c       0x10 /usr/local/xenon/xenon/lib/32/libc.a(lib_a-mprec.o)
 .got2          0x000000008006689c        0x4 /usr/local/xenon/xenon/lib/32/libc.a(lib_a-readr.o)
 .got2          0x00000000800668a0       0x18 /usr/local/xenon/xenon/lib/32/libc.a(lib_a-svfiprintf.o)

.sdata          0x00000000800668b8       0x64
 *(.sdata*)
 .sdata.elfhdr  0x00000000800668b8        0x4 file.o
                0x00000000800668b8                elfhdr
 .sdata         0x00000000800668bc        0x4 /usr/local/xenon/usr/lib/libxenon.a(startup_from_xell.o)
                0x00000000800668bc                __system_argv
 .sdata.console_color
                0x00000000800668c0        0x8 /usr/local/xenon/usr/lib/libxenon.a(console.o)
                0x00000000800668c0                console_color
 .sdata.DIRECTORY_PARENT
                0x00000000800668c8        0x3 /usr/local/xenon/usr/lib/libxenon.a(newlib.o)
                0x00000000800668c8                DIRECTORY_PARENT
 *fill*         0x00000000800668cb        0x1 00
 .sdata.usb_timeout
                0x00000000800668cc        0x4 /usr/local/xenon/usr/lib/libxenon.a(tinyehci.o)
                0x00000000800668cc                usb_timeout
 .sdata.xenon_smc_last_ir
                0x00000000800668d0        0x4 /usr/local/xenon/usr/lib/libxenon.a(xenon_smc.o)
                0x00000000800668d0                xenon_smc_last_ir
 *fill*         0x00000000800668d4        0x4 00
 .sdata.tcp_persist_backoff
                0x00000000800668d8        0x7 /usr/local/xenon/usr/lib/libxenon.a(tcp.o)
                0x00000000800668d8                tcp_persist_backoff
 *fill*         0x00000000800668df        0x1 00
 .sdata.ip_addr_any
                0x00000000800668e0        0x4 /usr/local/xenon/usr/lib/libxenon.a(ip_addr.o)
                0x00000000800668e0                ip_addr_any
 .sdata.ip_addr_broadcast
                0x00000000800668e4        0x4 /usr/local/xenon/usr/lib/libxenon.a(ip_addr.o)
                0x00000000800668e4                ip_addr_broadcast
 .sdata.ethbroadcast
                0x00000000800668e8        0x6 /usr/local/xenon/usr/lib/libxenon.a(etharp.o)
                0x00000000800668e8                ethbroadcast
 .sdata.ethzero
                0x00000000800668ee        0x6 /usr/local/xenon/usr/lib/libxenon.a(etharp.o)
                0x00000000800668ee                ethzero
 .sdata         0x00000000800668f4        0x4 /usr/local/xenon/usr/lib/libext2fs.a(gekko_io.o)
                0x00000000800668f4                gekko_io_manager
 .sdata         0x00000000800668f8        0x4 /usr/local/xenon/xenon/lib/32/libc.a(lib_a-ctype_.o)
                0x00000000800668f8                __ctype_ptr__
 .sdata         0x00000000800668fc        0x8 /usr/local/xenon/xenon/lib/32/libc.a(lib_a-impure.o)
                0x00000000800668fc                _global_impure_ptr
                0x0000000080066900                _impure_ptr
 .sdata         0x0000000080066904        0x4 /usr/local/xenon/xenon/lib/32/libc.a(lib_a-locale.o)
                0x0000000080066904                __mb_cur_max
 .sdata         0x0000000080066908        0x8 /usr/local/xenon/xenon/lib/32/libc.a(lib_a-mallocr.o)
                0x0000000080066908                __malloc_sbrk_base
                0x000000008006690c                __malloc_trim_threshold
 .sdata         0x0000000080066910        0x4 /usr/local/xenon/xenon/lib/32/libc.a(lib_a-mbtowc_r.o)
                0x0000000080066910                __mbtowc
 .sdata         0x0000000080066914        0x4 /usr/local/xenon/xenon/lib/32/libc.a(lib_a-wctomb_r.o)
                0x0000000080066914                __wctomb
 .sdata         0x0000000080066918        0x4 /usr/local/xenon/xenon/lib/32/libc.a(lib_a-environ.o)
                0x0000000080066918                environ

.rodata         0x0000000080066920     0x78d4
 *(.rodata*)
 .rodata.str1.1
                0x0000000080066920      0x1a8 file.o
                                        0x1aa (size before relaxing)
 .rodata.str1.1
                0x0000000080066ac8       0x9b log.o
 .rodata.str1.1
                0x0000000080066b63      0x6d3 main.o
 *fill*         0x0000000080067236        0x2 00
 .rodata.AddPartition
                0x0000000080067238       0x14 mount.o
 .rodata.FindPartitions
                0x000000008006724c       0x14 mount.o
 .rodata.str1.1
                0x0000000080067260       0x55 mount.o
 *fill*         0x00000000800672b5        0x3 00
 .rodata.FAT_SIG
                0x00000000800672b8        0x3 mount.o
 *fill*         0x00000000800672bb        0x1 00
 .rodata.prefix
                0x00000000800672bc       0x14 mount.o
 .rodata.tftp_recv
                0x00000000800672d0       0x18 tftp.o
 .rodata.str1.1
                0x00000000800672e8      0x2bd tftp.o
                                        0x2be (size before relaxing)
 *fill*         0x00000000800675a5        0x3 00
 .rodata.httpd_handle_server
                0x00000000800675a8       0x14 httpd.o
 .rodata.CSWTCH.45
                0x00000000800675bc        0x8 httpd.o
 .rodata.str1.1
                0x00000000800675c4      0x2a4 httpd.o
                                        0x2ab (size before relaxing)
 .rodata.str1.1
                0x0000000080067868       0x56 httpd_flash.o
                                         0x99 (size before relaxing)
 *fill*         0x00000000800678be        0x2 00
 .rodata.response_fuse_do_header
                0x00000000800678c0       0x14 httpd_fuse.o
 .rodata.str1.1
                0x00000000800678d4       0xcb httpd_fuse.o
                                        0x108 (size before relaxing)
 .rodata.str1.1
                0x000000008006799f     0x1408 httpd_index.o
                                       0x1474 (size before relaxing)
 *fill*         0x0000000080068da7        0x1 00
 .rodata.response_keyvault_do_header
                0x0000000080068da8       0x14 httpd_keyvault.o
 .rodata.str1.1
                0x0000000080068dbc       0x61 httpd_keyvault.o
                                         0xd2 (size before relaxing)
 *fill*         0x0000000080068e1d        0x3 00
 .rodata.cst4   0x0000000080068e20        0xc kbootconf.o
 .rodata.str1.1
                0x0000000080068e2c      0x284 kbootconf.o
                                        0x29a (size before relaxing)
 .rodata.dists.2060
                0x00000000800690b0       0x3c puff.o
 .rodata.dext.2061
                0x00000000800690ec       0x3c puff.o
 .rodata.order.2109
                0x0000000080069128       0x26 puff.o
 .rodata.lext.2059
                0x000000008006914e       0x3a puff.o
 .rodata.lens.2058
                0x0000000080069188       0x3a puff.o
 .rodata.str1.1
                0x00000000800691c2       0x38 /usr/local/xenon/usr/lib/libxenon.a(console.o)
 *fill*         0x00000000800691fa        0x6 00
 .rodata.fontdata_8x16
                0x0000000080069200     0x1000 /usr/local/xenon/usr/lib/libxenon.a(console.o)
                0x0000000080069200                fontdata_8x16
 .rodata        0x000000008006a200       0x2c /usr/local/xenon/usr/lib/libxenon.a(ata.o)
 *fill*         0x000000008006a22c        0x4 00
 .rodata.__FUNCTION__.3418
                0x000000008006a230       0x13 /usr/local/xenon/usr/lib/libxenon.a(ata.o)
 .rodata.str1.1
                0x000000008006a243      0x262 /usr/local/xenon/usr/lib/libxenon.a(ata.o)
 .rodata.str1.1
                0x000000008006a4a5       0x88 /usr/local/xenon/usr/lib/libxenon.a(iso9660.o)
                                         0x91 (size before relaxing)
 *fill*         0x000000008006a52d        0x3 00
 .rodata.dotab_iso9660
                0x000000008006a530       0x64 /usr/local/xenon/usr/lib/libxenon.a(iso9660.o)
 .rodata.str1.1
                0x000000008006a594       0x43 /usr/local/xenon/usr/lib/libxenon.a(newlib.o)
                                         0x4a (size before relaxing)
 *fill*         0x000000008006a5d7        0x1 00
 .rodata.dotab_stdnull
                0x000000008006a5d8       0x64 /usr/local/xenon/usr/lib/libxenon.a(newlib.o)
                0x000000008006a5d8                dotab_stdnull
 .rodata.console_optab
                0x000000008006a63c       0x64 /usr/local/xenon/usr/lib/libxenon.a(newlib.o)
                0x000000008006a63c                console_optab
 .rodata.__FUNCTION__.4098
                0x000000008006a6a0       0x12 /usr/local/xenon/usr/lib/libxenon.a(xenon_syscalls.o)
 .rodata.str1.1
                0x000000008006a6b2       0xbd /usr/local/xenon/usr/lib/libxenon.a(xenon_syscalls.o)
 *fill*         0x000000008006a76f        0x1 00
 .rodata.__FUNCTION__.4104
                0x000000008006a770       0x14 /usr/local/xenon/usr/lib/libxenon.a(xenon_syscalls.o)
 .rodata.str1.1
                0x000000008006a784       0xf7 /usr/local/xenon/usr/lib/libxenon.a(c_except.o)
                                         0xfb (size before relaxing)
 .rodata.str1.1
                0x000000008006a87b       0xcb /usr/local/xenon/usr/lib/libxenon.a(usbctrl.o)
 .rodata.str1.1
                0x000000008006a946      0x100 /usr/local/xenon/usr/lib/libxenon.a(usbd.o)
 .rodata.str1.1
                0x000000008006aa46       0x5a /usr/local/xenon/usr/lib/libxenon.a(usbdevs.o)
 .rodata.str1.1
                0x000000008006aaa0       0x47 /usr/local/xenon/usr/lib/libxenon.a(usbhid.o)
                                         0x4a (size before relaxing)
 *fill*         0x000000008006aae7        0x1 00
 .rodata.usbhid_devtypes
                0x000000008006aae8        0xc /usr/local/xenon/usr/lib/libxenon.a(usbhid.o)
 .rodata.str1.1
                0x000000008006aaf4      0x24a /usr/local/xenon/usr/lib/libxenon.a(usbhub.o)
 .rodata.str1.1
                0x000000008006ad3e       0xcf /usr/local/xenon/usr/lib/libxenon.a(usbmain.o)
 .rodata.str1.1
                0x000000008006ae0d       0x9a /usr/local/xenon/usr/lib/libxenon.a(tinyehci.o)
 .rodata.str1.1
                0x000000008006aea7      0x127 /usr/local/xenon/usr/lib/libxenon.a(xenon_smc.o)
 .rodata.str1.1
                0x000000008006afce      0x14e /usr/local/xenon/usr/lib/libxenon.a(xenon_power.o)
 .rodata.str1.1
                0x000000008006b11c      0x4a2 /usr/local/xenon/usr/lib/libxenon.a(xenon_sfcx.o)
                                        0x4d8 (size before relaxing)
 *fill*         0x000000008006b5be        0x2 00
 .rodata        0x000000008006b5c0        0x6 /usr/local/xenon/usr/lib/libxenon.a(xenon_config.o)
 .rodata.str1.1
                0x000000008006b5c6       0x40 /usr/local/xenon/usr/lib/libxenon.a(xenon_config.o)
 *fill*         0x000000008006b606        0x2 00
 .rodata        0x000000008006b608      0x140 /usr/local/xenon/usr/lib/libxenon.a(xenos.o)
 .rodata.str1.1
                0x000000008006b748      0x2ee /usr/local/xenon/usr/lib/libxenon.a(xenos.o)
 *fill*         0x000000008006ba36        0x2 00
 .rodata.__FUNCTION__.3940
                0x000000008006ba38       0x12 /usr/local/xenon/usr/lib/libxenon.a(xenos.o)
 *fill*         0x000000008006ba4a        0x6 00
 .rodata.CSWTCH.46
                0x000000008006ba50        0x4 /usr/local/xenon/usr/lib/libxenon.a(xenos.o)
 *fill*         0x000000008006ba54        0x4 00
 .rodata.edid_header
                0x000000008006ba58        0x8 /usr/local/xenon/usr/lib/libxenon.a(xenos_edid.o)
 .rodata.str1.1
                0x000000008006ba60      0x106 /usr/local/xenon/usr/lib/libxenon.a(xenos_edid.o)
 .rodata.str1.1
                0x000000008006bb66       0x1e /usr/local/xenon/usr/lib/libxenon.a(mem.o)
                                         0x2e (size before relaxing)
 .rodata.str1.1
                0x000000008006bb84       0x20 /usr/local/xenon/usr/lib/libxenon.a(netif.o)
                                         0x30 (size before relaxing)
 .rodata.str1.1
                0x000000008006bba4       0x1f /usr/local/xenon/usr/lib/libxenon.a(pbuf.o)
                                         0x2f (size before relaxing)
 *fill*         0x000000008006bbc3        0x1 00
 .rodata.tcp_close_shutdown
                0x000000008006bbc4       0x20 /usr/local/xenon/usr/lib/libxenon.a(tcp.o)
 .rodata.tcp_pcb_lists
                0x000000008006bbe4       0x10 /usr/local/xenon/usr/lib/libxenon.a(tcp.o)
                0x000000008006bbe4                tcp_pcb_lists
 *fill*         0x000000008006bbf4        0x4 00
 .rodata.tcp_backoff
                0x000000008006bbf8        0xd /usr/local/xenon/usr/lib/libxenon.a(tcp.o)
                0x000000008006bbf8                tcp_backoff
 .rodata.str1.1
                0x000000008006bc05       0x86 /usr/local/xenon/usr/lib/libxenon.a(tcp.o)
                                         0x96 (size before relaxing)
 *fill*         0x000000008006bc8b        0x1 00
 .rodata.ipaddr_aton
                0x000000008006bc8c       0x14 /usr/local/xenon/usr/lib/libxenon.a(ip_addr.o)
 .rodata.str1.1
                0x000000008006bca0       0x27 /usr/local/xenon/usr/lib/libxenon.a(ip_addr.o)
                                         0x37 (size before relaxing)
 .rodata.str1.1
                0x000000008006bcc7       0x22 /usr/local/xenon/usr/lib/libxenon.a(ip.o)
                                         0x32 (size before relaxing)
 .rodata.str1.1
                0x000000008006bce9       0x27 /usr/local/xenon/usr/lib/libxenon.a(ip_frag.o)
                                         0x37 (size before relaxing)
 .rodata.str1.1
                0x000000008006bd10       0x22 /usr/local/xenon/usr/lib/libxenon.a(tcp_out.o)
                                         0x32 (size before relaxing)
 .rodata.str1.1
                0x000000008006bd32       0x1e /usr/local/xenon/usr/lib/libxenon.a(udp.o)
                                         0x2e (size before relaxing)
 .rodata.str1.1
                0x000000008006bd50       0x22 /usr/local/xenon/usr/lib/libxenon.a(etharp.o)
                                         0x32 (size before relaxing)
 .rodata.str1.1
                0x000000008006bd72       0x1f /usr/local/xenon/usr/lib/libxenon.a(dhcp.o)
                                         0x2f (size before relaxing)
 .rodata.str1.1
                0x000000008006bd91       0x6a /usr/local/xenon/usr/lib/libxenon.a(enet.o)
 .rodata.str1.1
                0x000000008006bdfb       0xc2 /usr/local/xenon/usr/lib/libxenon.a(network.o)
                                         0xd1 (size before relaxing)
 .rodata        0x000000008006bebd        0x2 /usr/local/xenon/usr/lib/libxenon.a(elf.o)
 .rodata.str1.1
                0x000000008006bebf      0x246 /usr/local/xenon/usr/lib/libxenon.a(elf.o)
                                        0x248 (size before relaxing)
 .rodata.str1.1
                0x000000008006c105       0x22 /usr/local/xenon/usr/lib/libxenon.a(fdt_ro.o)
                                         0x2a (size before relaxing)
 .rodata.str1.1
                0x000000008006c127      0x44a /usr/local/xenon/usr/lib/libxenon.a(xb360.o)
                                        0x45b (size before relaxing)
 *fill*         0x000000008006c571        0x3 00
 .rodata.xelloffsets
                0x000000008006c574       0x18 /usr/local/xenon/usr/lib/libxenon.a(xb360.o)
 .rodata.kvlookup
                0x000000008006c58c      0x2ac /usr/local/xenon/usr/lib/libxenon.a(xb360.o)
 .rodata.str1.1
                0x000000008006c838       0x4b /usr/local/xenon/usr/lib/libxenon.a(lib_malloc.o)
 .rodata.str1.1
                0x000000008006c883        0xd /usr/local/xenon/usr/lib/libxenon.a(dummy.o)
 .rodata.ohci_xfer
                0x000000008006c890       0x50 /usr/local/xenon/usr/lib/libxenon.a(ohci.o)
 .rodata.ohci_root_ifdsc
                0x000000008006c8e0        0x9 /usr/local/xenon/usr/lib/libxenon.a(ohci.o)
 *fill*         0x000000008006c8e9        0x3 00
 .rodata.ohci_revbits
                0x000000008006c8ec       0x80 /usr/local/xenon/usr/lib/libxenon.a(ohci.o)
 .rodata.ohci_root_cfgdsc
                0x000000008006c96c        0x9 /usr/local/xenon/usr/lib/libxenon.a(ohci.o)
 .rodata.str1.1
                0x000000008006c975        0x8 /usr/local/xenon/usr/lib/libxenon.a(ohci.o)
                                         0x11 (size before relaxing)
 .rodata.ohci_root_devdsc
                0x000000008006c97d       0x12 /usr/local/xenon/usr/lib/libxenon.a(ohci.o)
 .rodata.ohci_root_hubdsc
                0x000000008006c98f       0x47 /usr/local/xenon/usr/lib/libxenon.a(ohci.o)
 .rodata.ohci_root_epdsc
                0x000000008006c9d6        0x7 /usr/local/xenon/usr/lib/libxenon.a(ohci.o)
 *fill*         0x000000008006c9dd        0x3 00
 .rodata.eptattribs.3592
                0x000000008006c9e0       0x10 /usr/local/xenon/usr/lib/libxenon.a(usbdebug.o)
 .rodata.str1.1
                0x000000008006c9f0      0x61a /usr/local/xenon/usr/lib/libxenon.a(usbdebug.o)
                                        0x672 (size before relaxing)
 *fill*         0x000000008006d00a        0x2 00
 .rodata        0x000000008006d00c       0x24 /usr/local/xenon/usr/lib/libxenon.a(xenon_gpio.o)
 .rodata.tcp_input
                0x000000008006d030       0x20 /usr/local/xenon/usr/lib/libxenon.a(tcp_in.o)
 .rodata.str1.1
                0x000000008006d050       0x21 /usr/local/xenon/usr/lib/libxenon.a(tcp_in.o)
                                         0x31 (size before relaxing)
 .rodata.str1.1
                0x000000008006d071       0x2d /usr/local/xenon/usr/lib/libxenon.a(dns.o)
                                         0x3d (size before relaxing)
 .rodata.memp_num
                0x000000008006d09e       0x14 /usr/local/xenon/usr/lib/libxenon.a(memp.o)
 .rodata.str1.1
                0x000000008006d0b2       0x1f /usr/local/xenon/usr/lib/libxenon.a(memp.o)
                                         0x2f (size before relaxing)
 *fill*         0x000000008006d0d1        0x1 00
 .rodata.memp_sizes
                0x000000008006d0d2       0x14 /usr/local/xenon/usr/lib/libxenon.a(memp.o)
 .rodata.str1.1
                0x000000008006d0e6       0x24 /usr/local/xenon/usr/lib/libxenon.a(icmp.o)
                                         0x34 (size before relaxing)
 *fill*         0x000000008006d10a        0x2 00
 .rodata.fdt_next_tag
                0x000000008006d10c       0x24 /usr/local/xenon/usr/lib/libxenon.a(fdt.o)
 .rodata        0x000000008006d130        0x2 /usr/local/xenon/usr/lib/libxenon.a(sha1.o)
 .rodata.str1.1
                0x000000008006d132        0x2 /usr/local/xenon/usr/lib/libxenon.a(sha1.o)
 .rodata        0x000000008006d134       0x64 /usr/local/xenon/usr/lib/libfat.a(libfat.o)
 .rodata.str1.1
                0x000000008006d198       0x1b /usr/local/xenon/usr/lib/libfat.a(libfat.o)
                                         0x20 (size before relaxing)
 *fill*         0x000000008006d1b3        0x5 00
 .rodata        0x000000008006d1b8       0x14 /usr/local/xenon/usr/lib/libfat.a(partition.o)
 *fill*         0x000000008006d1cc        0x4 00
 .rodata        0x000000008006d1d0       0x5a /usr/local/xenon/usr/lib/libfat.a(directory.o)
 .rodata.str1.1
                0x0000000000000000       0x1b /usr/local/xenon/usr/lib/libfat.a(directory.o)
                                          0x5 (size before relaxing)
 *fill*         0x000000008006d22a        0x2 00
 .rodata        0x000000008006d22c       0x28 /usr/local/xenon/usr/lib/libfat.a(disc.o)
                0x000000008006d22c                _FAT_disc_interfaces
 .rodata.str1.1
                0x0000000000000000       0x10 /usr/local/xenon/usr/lib/libfat.a(disc.o)
 .rodata.str1.1
                0x000000008006d254        0x5 /usr/local/xenon/usr/lib/libfat.a(fatdir.o)
 *fill*         0x000000008006d259        0x3 00
 .rodata        0x000000008006d25c       0x64 /usr/local/xenon/usr/lib/libext2fs.a(ext2_internal.o)
 .rodata.str1.8
                0x000000008006d2c0        0xb /usr/local/xenon/usr/lib/libext2fs.a(ext2_internal.o)
 *fill*         0x000000008006d2cb        0x1 00
 .rodata        0x000000008006d2cc       0x78 /usr/local/xenon/usr/lib/libext2fs.a(gekko_io.o)
                0x000000008006d2cc                struct_gekko_io_manager
 *fill*         0x000000008006d344        0x4 00
 .rodata.str1.8
                0x000000008006d348       0x1b /usr/local/xenon/usr/lib/libext2fs.a(gekko_io.o)
 *fill*         0x000000008006d363        0x5 00
 .rodata.str1.8
                0x000000008006d368       0x2a /usr/local/xenon/usr/lib/libext2fs.a(rw_bitmaps.o)
 *fill*         0x000000008006d392        0x6 00
 .rodata        0x000000008006d398       0x17 /usr/local/xenon/usr/lib/libext2fs.a(csum.o)
 *fill*         0x000000008006d3af        0x1 00
 .rodata.str1.8
                0x000000008006d3b0       0x1e /usr/local/xenon/usr/lib/libext2fs.a(csum.o)
 *fill*         0x000000008006d3ce        0x2 00
 .rodata.str1.8
                0x000000008006d3d0        0xa /usr/local/xenon/usr/lib/libext2fs.a(ext2dir.o)
 *fill*         0x000000008006d3da        0x2 00
 .rodata        0x000000008006d3dc       0x38 /usr/local/xenon/usr/lib/libext2fs.a(extent.o)
 *fill*         0x000000008006d414        0x4 00
 .rodata.str1.8
                0x000000008006d418       0x19 /usr/local/xenon/usr/lib/libext2fs.a(gen_bitmap64.o)
 *fill*         0x000000008006d431        0x7 00
 .rodata        0x000000008006d438       0xbc /usr/local/xenon/usr/lib/libext2fs.a(gen_bitmap.o)
 *fill*         0x000000008006d4f4        0x4 00
 .rodata.str1.8
                0x000000008006d4f8        0xd /usr/local/xenon/usr/lib/libext2fs.a(mmp.o)
 *fill*         0x000000008006d505        0x3 00
 .rodata.str1.8
                0x000000008006d508       0x2d /usr/local/xenon/usr/lib/libext2fs.a(progress.o)
 *fill*         0x000000008006d535        0x1 00
 .rodata        0x000000008006d536      0x200 /usr/local/xenon/usr/lib/libext2fs.a(crc16.o)
 *fill*         0x000000008006d736        0x2 00
 .rodata        0x000000008006d738       0x64 /usr/local/xenon/usr/lib/libxtaf.a(xtaf_partition.o)
 *fill*         0x000000008006d79c        0x4 00
 .rodata.str1.8
                0x000000008006d7a0       0x15 /usr/local/xenon/usr/lib/libxtaf.a(xtaf_partition.o)
 *fill*         0x000000008006d7b5        0x3 00
 .rodata.str1.8
                0x000000008006d7b8        0x8 /usr/local/xenon/usr/lib/libxtaf.a(xtaf_util.o)
                                          0x6 (size before relaxing)
 .rodata.cst4   0x000000008006d7c0        0x4 /usr/local/xenon/xenon/lib/32/libm.a(lib_a-s_ceil.o)
 *fill*         0x000000008006d7c4        0x4 00
 .rodata.cst8   0x000000008006d7c8        0x8 /usr/local/xenon/xenon/lib/32/libm.a(lib_a-s_ceil.o)
 .rodata.cst4   0x0000000000000000        0x4 /usr/local/xenon/xenon/lib/32/libm.a(lib_a-s_floor.o)
 .rodata.cst8   0x0000000000000000        0x8 /usr/local/xenon/xenon/lib/32/libm.a(lib_a-s_floor.o)
 .rodata        0x000000008006d7d0       0x34 /usr/local/xenon/lib/gcc/xenon/4.7.1/32/libgcc.a(unwind-dw2-fde-dip.o)
 .rodata.str1.4
                0x000000008006d804       0x3f /usr/local/xenon/xenon/lib/32/libc.a(lib_a-assert.o)
                                         0x43 (size before relaxing)
 *fill*         0x000000008006d843        0x1 00
 .rodata        0x000000008006d844      0x101 /usr/local/xenon/xenon/lib/32/libc.a(lib_a-ctype_.o)
                0x000000008006d844                _ctype_
 *fill*         0x000000008006d945        0x3 00
 .rodata.str1.4
                0x000000008006d948        0x2 /usr/local/xenon/xenon/lib/32/libc.a(lib_a-impure.o)
 *fill*         0x000000008006d94a        0x2 00
 .rodata.str1.4
                0x000000008006d94c        0xa /usr/local/xenon/xenon/lib/32/libc.a(lib_a-locale.o)
                                         0x12 (size before relaxing)
 .rodata.str1.4
                0x0000000000000000        0x1 /usr/local/xenon/xenon/lib/32/libc.a(lib_a-mbrtowc.o)
 *fill*         0x000000008006d956        0x2 00
 .rodata        0x000000008006d958       0x60 /usr/local/xenon/xenon/lib/32/libc.a(lib_a-mktime.o)
 .rodata        0x000000008006d9b8       0x68 /usr/local/xenon/xenon/lib/32/libc.a(lib_a-mktm_r.o)
 .rodata.str1.4
                0x000000008006da20        0x2 /usr/local/xenon/xenon/lib/32/libc.a(lib_a-puts.o)
 *fill*         0x000000008006da22        0x2 00
 .rodata        0x000000008006da24      0x184 /usr/local/xenon/xenon/lib/32/libc.a(lib_a-svfprintf.o)
 .rodata.cst4   0x0000000000000000        0x4 /usr/local/xenon/xenon/lib/32/libc.a(lib_a-svfprintf.o)
 .rodata.str1.4
                0x000000008006dba8       0x42 /usr/local/xenon/xenon/lib/32/libc.a(lib_a-svfprintf.o)
 *fill*         0x000000008006dbea        0x2 00
 .rodata.str1.4
                0x000000008006dbec       0x10 /usr/local/xenon/xenon/lib/32/libc.a(lib_a-system.o)
 .rodata        0x000000008006dbfc      0x184 /usr/local/xenon/xenon/lib/32/libc.a(lib_a-vfiprintf.o)
 .rodata.str1.4
                0x0000000000000000       0x2f /usr/local/xenon/xenon/lib/32/libc.a(lib_a-vfiprintf.o)
 .rodata        0x000000008006dd80      0x184 /usr/local/xenon/xenon/lib/32/libc.a(lib_a-vfprintf.o)
 .rodata.cst4   0x0000000000000000        0x4 /usr/local/xenon/xenon/lib/32/libc.a(lib_a-vfprintf.o)
 .rodata.str1.4
                0x0000000000000000       0x42 /usr/local/xenon/xenon/lib/32/libc.a(lib_a-vfprintf.o)
 .rodata.cst4   0x000000008006df04       0x18 /usr/local/xenon/xenon/lib/32/libc.a(lib_a-dtoa.o)
                                         0x1c (size before relaxing)
 *fill*         0x000000008006df1c        0x4 00
 .rodata.cst8   0x000000008006df20       0x18 /usr/local/xenon/xenon/lib/32/libc.a(lib_a-dtoa.o)
 .rodata.str1.4
                0x000000008006df38       0x10 /usr/local/xenon/xenon/lib/32/libc.a(lib_a-dtoa.o)
                                         0x12 (size before relaxing)
 .rodata        0x000000008006df48      0x128 /usr/local/xenon/xenon/lib/32/libc.a(lib_a-mprec.o)
                0x000000008006df58                __mprec_tinytens
                0x000000008006df80                __mprec_bigtens
                0x000000008006dfa8                __mprec_tens
 .rodata.cst4   0x0000000000000000        0x8 /usr/local/xenon/xenon/lib/32/libc.a(lib_a-mprec.o)
 .rodata        0x000000008006e070      0x184 /usr/local/xenon/xenon/lib/32/libc.a(lib_a-svfiprintf.o)
 .rodata.str1.4
                0x0000000000000000       0x2f /usr/local/xenon/xenon/lib/32/libc.a(lib_a-svfiprintf.o)

.ctors          0x000000008006e1f4        0x0
                0x000000008006e1f4                __CTOR_LIST__ = .
 *(.ctors)
                0x000000008006e1f4                __CTOR_END__ = .

.dtors          0x000000008006e1f4        0x0
                0x000000008006e1f4                __DTOR_LIST__ = .
 *(.dtors)
                0x000000008006e1f4                __DTOR_END__ = .

.eh_frame_hdr   0x000000008006e1f4       0xec
 *(.eh_frame_hdr)
 .eh_frame_hdr  0x000000008006e1f4       0xec /usr/local/xenon/lib/gcc/xenon/4.7.1/32/libgcc.a(crtsavgpr.o)

.eh_frame       0x000000008006e2e0      0x5d4
                0x000000008006e2e0                PROVIDE (__eh_frame_start, .)
 *(.eh_frame)
 .eh_frame      0x0000000000000000        0x0 /usr/local/xenon/lib/gcc/xenon/4.7.1/../../../../xenon/lib/../lib/crt1.o
 .eh_frame      0x000000008006e2e0        0x0 /usr/local/xenon/lib/gcc/xenon/4.7.1/32/crtbegin.o
 .eh_frame      0x000000008006e2e0       0x28 /usr/local/xenon/lib/gcc/xenon/4.7.1/32/libgcc.a(crtsavgpr.o)
 .eh_frame      0x000000008006e308       0x7c /usr/local/xenon/lib/gcc/xenon/4.7.1/32/libgcc.a(crtresxgpr.o)
 .eh_frame      0x000000008006e384      0x4b8 /usr/local/xenon/lib/gcc/xenon/4.7.1/32/libgcc.a(unwind-dw2-fde-dip.o)
                                        0x4cc (size before relaxing)
 .eh_frame      0x000000008006e83c       0x3c /usr/local/xenon/lib/gcc/xenon/4.7.1/32/libgcc.a(_udivdi3.o)
                                         0x50 (size before relaxing)
 .eh_frame      0x000000008006e878       0x34 /usr/local/xenon/lib/gcc/xenon/4.7.1/32/libgcc.a(_umoddi3.o)
                                         0x48 (size before relaxing)
 .eh_frame      0x000000008006e8ac        0x4 /usr/local/xenon/lib/gcc/xenon/4.7.1/32/crtend.o
                0x000000008006e8b0        0x4 LONG 0x0

.rela.dyn       0x000000008006e8b4        0x0
 .rela.iplt     0x0000000000000000        0x0 /usr/local/xenon/lib/gcc/xenon/4.7.1/../../../../xenon/lib/../lib/crt1.o
 .rela.text.call_ctors
                0x0000000000000000        0x0 /usr/local/xenon/lib/gcc/xenon/4.7.1/../../../../xenon/lib/../lib/crt1.o
 .rela.text.c_register_frame
                0x0000000000000000        0x0 /usr/local/xenon/lib/gcc/xenon/4.7.1/../../../../xenon/lib/../lib/crt1.o
 .rela.text.__crtmain
                0x0000000000000000        0x0 /usr/local/xenon/lib/gcc/xenon/4.7.1/../../../../xenon/lib/../lib/crt1.o
 .rela.got2     0x0000000000000000        0x0 /usr/local/xenon/lib/gcc/xenon/4.7.1/../../../../xenon/lib/../lib/crt1.o
 .rela.text.launch_file
                0x0000000000000000        0x0 /usr/local/xenon/lib/gcc/xenon/4.7.1/../../../../xenon/lib/../lib/crt1.o
 .rela.text.fileloop
                0x0000000000000000        0x0 /usr/local/xenon/lib/gcc/xenon/4.7.1/../../../../xenon/lib/../lib/crt1.o
 .rela.text.LogInit
                0x0000000000000000        0x0 /usr/local/xenon/lib/gcc/xenon/4.7.1/../../../../xenon/lib/../lib/crt1.o
 .rela.text.synchronize_timebases
                0x0000000000000000        0x0 /usr/local/xenon/lib/gcc/xenon/4.7.1/../../../../xenon/lib/../lib/crt1.o
 .rela.text.startup.main
                0x0000000000000000        0x0 /usr/local/xenon/lib/gcc/xenon/4.7.1/../../../../xenon/lib/../lib/crt1.o
 .rela.text.AddPartition
                0x0000000000000000        0x0 /usr/local/xenon/lib/gcc/xenon/4.7.1/../../../../xenon/lib/../lib/crt1.o
 .rela.text.FindPartitions
                0x0000000000000000        0x0 /usr/local/xenon/lib/gcc/xenon/4.7.1/../../../../xenon/lib/../lib/crt1.o
 .rela.text.mount_all_devices
                0x0000000000000000        0x0 /usr/local/xenon/lib/gcc/xenon/4.7.1/../../../../xenon/lib/../lib/crt1.o
 .rela.text.findDevices
                0x0000000000000000        0x0 /usr/local/xenon/lib/gcc/xenon/4.7.1/../../../../xenon/lib/../lib/crt1.o
 .rela.text.do_tftp
                0x0000000000000000        0x0 /usr/local/xenon/lib/gcc/xenon/4.7.1/../../../../xenon/lib/../lib/crt1.o
 .rela.text.boot_server_name
                0x0000000000000000        0x0 /usr/local/xenon/lib/gcc/xenon/4.7.1/../../../../xenon/lib/../lib/crt1.o
 .rela.text.http_accept
                0x0000000000000000        0x0 /usr/local/xenon/lib/gcc/xenon/4.7.1/../../../../xenon/lib/../lib/crt1.o
 .rela.text.httpd_start
                0x0000000000000000        0x0 /usr/local/xenon/lib/gcc/xenon/4.7.1/../../../../xenon/lib/../lib/crt1.o
 .rela.data.http_handler
                0x0000000000000000        0x0 /usr/local/xenon/lib/gcc/xenon/4.7.1/../../../../xenon/lib/../lib/crt1.o
 .rela.text.response_flash_process_request
                0x0000000000000000        0x0 /usr/local/xenon/lib/gcc/xenon/4.7.1/../../../../xenon/lib/../lib/crt1.o
 .rela.text.response_flash_do_header
                0x0000000000000000        0x0 /usr/local/xenon/lib/gcc/xenon/4.7.1/../../../../xenon/lib/../lib/crt1.o
 .rela.text.response_flash_do_data
                0x0000000000000000        0x0 /usr/local/xenon/lib/gcc/xenon/4.7.1/../../../../xenon/lib/../lib/crt1.o
 .rela.text.response_fuse_process_request
                0x0000000000000000        0x0 /usr/local/xenon/lib/gcc/xenon/4.7.1/../../../../xenon/lib/../lib/crt1.o
 .rela.text.response_index_process_request
                0x0000000000000000        0x0 /usr/local/xenon/lib/gcc/xenon/4.7.1/../../../../xenon/lib/../lib/crt1.o
 .rela.text.response_index_do_data
                0x0000000000000000        0x0 /usr/local/xenon/lib/gcc/xenon/4.7.1/../../../../xenon/lib/../lib/crt1.o
 .rela.text.response_keyvault_process_request
                0x0000000000000000        0x0 /usr/local/xenon/lib/gcc/xenon/4.7.1/../../../../xenon/lib/../lib/crt1.o
 .rela.text.kboot_set_config
                0x0000000000000000        0x0 /usr/local/xenon/lib/gcc/xenon/4.7.1/../../../../xenon/lib/../lib/crt1.o
 .rela.text.kbootconf_parse
                0x0000000000000000        0x0 /usr/local/xenon/lib/gcc/xenon/4.7.1/../../../../xenon/lib/../lib/crt1.o
 .rela.text.try_kbootconf
                0x0000000000000000        0x0 /usr/local/xenon/lib/gcc/xenon/4.7.1/../../../../xenon/lib/../lib/crt1.o
 .rela.text.__check_argv
                0x0000000000000000        0x0 /usr/local/xenon/lib/gcc/xenon/4.7.1/../../../../xenon/lib/../lib/crt1.o
 .rela.text     0x0000000000000000        0x0 /usr/local/xenon/lib/gcc/xenon/4.7.1/../../../../xenon/lib/../lib/crt1.o
 .rela.text.console_init
                0x0000000000000000        0x0 /usr/local/xenon/lib/gcc/xenon/4.7.1/../../../../xenon/lib/../lib/crt1.o
 .rela.text.console_close
                0x0000000000000000        0x0 /usr/local/xenon/lib/gcc/xenon/4.7.1/../../../../xenon/lib/../lib/crt1.o
 .rela.text.ata_sectors
                0x0000000000000000        0x0 /usr/local/xenon/lib/gcc/xenon/4.7.1/../../../../xenon/lib/../lib/crt1.o
 .rela.text.atapi_sectors
                0x0000000000000000        0x0 /usr/local/xenon/lib/gcc/xenon/4.7.1/../../../../xenon/lib/../lib/crt1.o
 .rela.text.xenon_ata_setlba.constprop.9
                0x0000000000000000        0x0 /usr/local/xenon/lib/gcc/xenon/4.7.1/../../../../xenon/lib/../lib/crt1.o
 .rela.text.xenon_ata_setaddress.constprop.8
                0x0000000000000000        0x0 /usr/local/xenon/lib/gcc/xenon/4.7.1/../../../../xenon/lib/../lib/crt1.o
 .rela.text.ata_readsectors
                0x0000000000000000        0x0 /usr/local/xenon/lib/gcc/xenon/4.7.1/../../../../xenon/lib/../lib/crt1.o
 .rela.text.ata_writesectors
                0x0000000000000000        0x0 /usr/local/xenon/lib/gcc/xenon/4.7.1/../../../../xenon/lib/../lib/crt1.o
 .rela.text.atapi_readsectors
                0x0000000000000000        0x0 /usr/local/xenon/lib/gcc/xenon/4.7.1/../../../../xenon/lib/../lib/crt1.o
 .rela.text.xenon_atapi_set_modeb
                0x0000000000000000        0x0 /usr/local/xenon/lib/gcc/xenon/4.7.1/../../../../xenon/lib/../lib/crt1.o
 .rela.text.xenon_atapi_get_dvd_key_tsh943a
                0x0000000000000000        0x0 /usr/local/xenon/lib/gcc/xenon/4.7.1/../../../../xenon/lib/../lib/crt1.o
 .rela.text.xenon_atapi_set_dvd_key
                0x0000000000000000        0x0 /usr/local/xenon/lib/gcc/xenon/4.7.1/../../../../xenon/lib/../lib/crt1.o
 .rela.text.xenon_ata_init
                0x0000000000000000        0x0 /usr/local/xenon/lib/gcc/xenon/4.7.1/../../../../xenon/lib/../lib/crt1.o
 .rela.text.xenon_atapi_init
                0x0000000000000000        0x0 /usr/local/xenon/lib/gcc/xenon/4.7.1/../../../../xenon/lib/../lib/crt1.o
 .rela.text.find_object
                0x0000000000000000        0x0 /usr/local/xenon/lib/gcc/xenon/4.7.1/../../../../xenon/lib/../lib/crt1.o
 .rela.text.__dirreset
                0x0000000000000000        0x0 /usr/local/xenon/lib/gcc/xenon/4.7.1/../../../../xenon/lib/../lib/crt1.o
 .rela.text.__dirnext
                0x0000000000000000        0x0 /usr/local/xenon/lib/gcc/xenon/4.7.1/../../../../xenon/lib/../lib/crt1.o
 .rela.text.__libc_lock_init
                0x0000000000000000        0x0 /usr/local/xenon/lib/gcc/xenon/4.7.1/../../../../xenon/lib/../lib/crt1.o
 .rela.text.__libc_lock_close
                0x0000000000000000        0x0 /usr/local/xenon/lib/gcc/xenon/4.7.1/../../../../xenon/lib/../lib/crt1.o
 .rela.text.__libc_lock_release
                0x0000000000000000        0x0 /usr/local/xenon/lib/gcc/xenon/4.7.1/../../../../xenon/lib/../lib/crt1.o
 .rela.text.__libc_lock_acquire
                0x0000000000000000        0x0 /usr/local/xenon/lib/gcc/xenon/4.7.1/../../../../xenon/lib/../lib/crt1.o
 .rela.text.__malloc_lock
                0x0000000000000000        0x0 /usr/local/xenon/lib/gcc/xenon/4.7.1/../../../../xenon/lib/../lib/crt1.o
 .rela.text.__malloc_unlock
                0x0000000000000000        0x0 /usr/local/xenon/lib/gcc/xenon/4.7.1/../../../../xenon/lib/../lib/crt1.o
 .rela.text._exit
                0x0000000000000000        0x0 /usr/local/xenon/lib/gcc/xenon/4.7.1/../../../../xenon/lib/../lib/crt1.o
 .rela.text.sbrk
                0x0000000000000000        0x0 /usr/local/xenon/lib/gcc/xenon/4.7.1/../../../../xenon/lib/../lib/crt1.o
 .rela.text.execve
                0x0000000000000000        0x0 /usr/local/xenon/lib/gcc/xenon/4.7.1/../../../../xenon/lib/../lib/crt1.o
 .rela.text.execv
                0x0000000000000000        0x0 /usr/local/xenon/lib/gcc/xenon/4.7.1/../../../../xenon/lib/../lib/crt1.o
 .rela.text.execvp
                0x0000000000000000        0x0 /usr/local/xenon/lib/gcc/xenon/4.7.1/../../../../xenon/lib/../lib/crt1.o
 .rela.text.fork
                0x0000000000000000        0x0 /usr/local/xenon/lib/gcc/xenon/4.7.1/../../../../xenon/lib/../lib/crt1.o
 .rela.text.getpid
                0x0000000000000000        0x0 /usr/local/xenon/lib/gcc/xenon/4.7.1/../../../../xenon/lib/../lib/crt1.o
 .rela.text.getrusage
                0x0000000000000000        0x0 /usr/local/xenon/lib/gcc/xenon/4.7.1/../../../../xenon/lib/../lib/crt1.o
 .rela.text.gettimeofday
                0x0000000000000000        0x0 /usr/local/xenon/lib/gcc/xenon/4.7.1/../../../../xenon/lib/../lib/crt1.o
 .rela.text.kill
                0x0000000000000000        0x0 /usr/local/xenon/lib/gcc/xenon/4.7.1/../../../../xenon/lib/../lib/crt1.o
 .rela.text.FindDevice
                0x0000000000000000        0x0 /usr/local/xenon/lib/gcc/xenon/4.7.1/../../../../xenon/lib/../lib/crt1.o
 .rela.text.open
                0x0000000000000000        0x0 /usr/local/xenon/lib/gcc/xenon/4.7.1/../../../../xenon/lib/../lib/crt1.o
 .rela.text.read
                0x0000000000000000        0x0 /usr/local/xenon/lib/gcc/xenon/4.7.1/../../../../xenon/lib/../lib/crt1.o
 .rela.text.write
                0x0000000000000000        0x0 /usr/local/xenon/lib/gcc/xenon/4.7.1/../../../../xenon/lib/../lib/crt1.o
 .rela.text.fstat
                0x0000000000000000        0x0 /usr/local/xenon/lib/gcc/xenon/4.7.1/../../../../xenon/lib/../lib/crt1.o
 .rela.text.stat
                0x0000000000000000        0x0 /usr/local/xenon/lib/gcc/xenon/4.7.1/../../../../xenon/lib/../lib/crt1.o
 .rela.text.statvfs
                0x0000000000000000        0x0 /usr/local/xenon/lib/gcc/xenon/4.7.1/../../../../xenon/lib/../lib/crt1.o
 .rela.text.fsync
                0x0000000000000000        0x0 /usr/local/xenon/lib/gcc/xenon/4.7.1/../../../../xenon/lib/../lib/crt1.o
 .rela.text.ftruncate
                0x0000000000000000        0x0 /usr/local/xenon/lib/gcc/xenon/4.7.1/../../../../xenon/lib/../lib/crt1.o
 .rela.text.link
                0x0000000000000000        0x0 /usr/local/xenon/lib/gcc/xenon/4.7.1/../../../../xenon/lib/../lib/crt1.o
 .rela.text.lseek
                0x0000000000000000        0x0 /usr/local/xenon/lib/gcc/xenon/4.7.1/../../../../xenon/lib/../lib/crt1.o
 .rela.text.rename
                0x0000000000000000        0x0 /usr/local/xenon/lib/gcc/xenon/4.7.1/../../../../xenon/lib/../lib/crt1.o
 .rela.text.unlink
                0x0000000000000000        0x0 /usr/local/xenon/lib/gcc/xenon/4.7.1/../../../../xenon/lib/../lib/crt1.o
 .rela.text.close
                0x0000000000000000        0x0 /usr/local/xenon/lib/gcc/xenon/4.7.1/../../../../xenon/lib/../lib/crt1.o
 .rela.text.chdir
                0x0000000000000000        0x0 /usr/local/xenon/lib/gcc/xenon/4.7.1/../../../../xenon/lib/../lib/crt1.o
 .rela.text.getcwd
                0x0000000000000000        0x0 /usr/local/xenon/lib/gcc/xenon/4.7.1/../../../../xenon/lib/../lib/crt1.o
 .rela.text.chmod
                0x0000000000000000        0x0 /usr/local/xenon/lib/gcc/xenon/4.7.1/../../../../xenon/lib/../lib/crt1.o
 .rela.text.fchmod
                0x0000000000000000        0x0 /usr/local/xenon/lib/gcc/xenon/4.7.1/../../../../xenon/lib/../lib/crt1.o
 .rela.text.opendir
                0x0000000000000000        0x0 /usr/local/xenon/lib/gcc/xenon/4.7.1/../../../../xenon/lib/../lib/crt1.o
 .rela.text.closedir
                0x0000000000000000        0x0 /usr/local/xenon/lib/gcc/xenon/4.7.1/../../../../xenon/lib/../lib/crt1.o
 .rela.text.mkdir
                0x0000000000000000        0x0 /usr/local/xenon/lib/gcc/xenon/4.7.1/../../../../xenon/lib/../lib/crt1.o
 .rela.text.xenon_sbrk
                0x0000000000000000        0x0 /usr/local/xenon/lib/gcc/xenon/4.7.1/../../../../xenon/lib/../lib/crt1.o
 .rela.text.usbctrl_set_led_callback
                0x0000000000000000        0x0 /usr/local/xenon/lib/gcc/xenon/4.7.1/../../../../xenon/lib/../lib/crt1.o
 .rela.text.usbctrl_set_rol
                0x0000000000000000        0x0 /usr/local/xenon/lib/gcc/xenon/4.7.1/../../../../xenon/lib/../lib/crt1.o
 .rela.text.usbctrl_set_leds
                0x0000000000000000        0x0 /usr/local/xenon/lib/gcc/xenon/4.7.1/../../../../xenon/lib/../lib/crt1.o
 .rela.text.usbctrl_poll
                0x0000000000000000        0x0 /usr/local/xenon/lib/gcc/xenon/4.7.1/../../../../xenon/lib/../lib/crt1.o
 .rela.text.usbctrl_attach
                0x0000000000000000        0x0 /usr/local/xenon/lib/gcc/xenon/4.7.1/../../../../xenon/lib/../lib/crt1.o
 .rela.text.usbctrl_set_rumble
                0x0000000000000000        0x0 /usr/local/xenon/lib/gcc/xenon/4.7.1/../../../../xenon/lib/../lib/crt1.o
 .rela.text.usb_create_pipe
                0x0000000000000000        0x0 /usr/local/xenon/lib/gcc/xenon/4.7.1/../../../../xenon/lib/../lib/crt1.o
 .rela.text.usb_destroy_pipe
                0x0000000000000000        0x0 /usr/local/xenon/lib/gcc/xenon/4.7.1/../../../../xenon/lib/../lib/crt1.o
 .rela.text.usb_destroy_all_pipes
                0x0000000000000000        0x0 /usr/local/xenon/lib/gcc/xenon/4.7.1/../../../../xenon/lib/../lib/crt1.o
 .rela.text.usb_destroy_device
                0x0000000000000000        0x0 /usr/local/xenon/lib/gcc/xenon/4.7.1/../../../../xenon/lib/../lib/crt1.o
 .rela.text.usb_create_device
                0x0000000000000000        0x0 /usr/local/xenon/lib/gcc/xenon/4.7.1/../../../../xenon/lib/../lib/crt1.o
 .rela.text.usb_make_request
                0x0000000000000000        0x0 /usr/local/xenon/lib/gcc/xenon/4.7.1/../../../../xenon/lib/../lib/crt1.o
 .rela.text.usb_free_request
                0x0000000000000000        0x0 /usr/local/xenon/lib/gcc/xenon/4.7.1/../../../../xenon/lib/../lib/crt1.o
 .rela.text.usb_clear_stall
                0x0000000000000000        0x0 /usr/local/xenon/lib/gcc/xenon/4.7.1/../../../../xenon/lib/../lib/crt1.o
 .rela.text.usb_std_request
                0x0000000000000000        0x0 /usr/local/xenon/lib/gcc/xenon/4.7.1/../../../../xenon/lib/../lib/crt1.o
 .rela.text.usb_get_string
                0x0000000000000000        0x0 /usr/local/xenon/lib/gcc/xenon/4.7.1/../../../../xenon/lib/../lib/crt1.o
 .rela.text.usb_get_device_descriptor
                0x0000000000000000        0x0 /usr/local/xenon/lib/gcc/xenon/4.7.1/../../../../xenon/lib/../lib/crt1.o
 .rela.text.usb_get_config_descriptor
                0x0000000000000000        0x0 /usr/local/xenon/lib/gcc/xenon/4.7.1/../../../../xenon/lib/../lib/crt1.o
 .rela.text.usb_initroot
                0x0000000000000000        0x0 /usr/local/xenon/lib/gcc/xenon/4.7.1/../../../../xenon/lib/../lib/crt1.o
 .rela.data.usb_drivers
                0x0000000000000000        0x0 /usr/local/xenon/lib/gcc/xenon/4.7.1/../../../../xenon/lib/../lib/crt1.o
 .rela.text.usbhid_attach
                0x0000000000000000        0x0 /usr/local/xenon/lib/gcc/xenon/4.7.1/../../../../xenon/lib/../lib/crt1.o
 .rela.text.usbhub_detach
                0x0000000000000000        0x0 /usr/local/xenon/lib/gcc/xenon/4.7.1/../../../../xenon/lib/../lib/crt1.o
 .rela.text.usbhub_attach
                0x0000000000000000        0x0 /usr/local/xenon/lib/gcc/xenon/4.7.1/../../../../xenon/lib/../lib/crt1.o
 .rela.text.usbhub_scan1
                0x0000000000000000        0x0 /usr/local/xenon/lib/gcc/xenon/4.7.1/../../../../xenon/lib/../lib/crt1.o
 .rela.text.usb_init_one_ohci
                0x0000000000000000        0x0 /usr/local/xenon/lib/gcc/xenon/4.7.1/../../../../xenon/lib/../lib/crt1.o
 .rela.text.usb_do_poll
                0x0000000000000000        0x0 /usr/local/xenon/lib/gcc/xenon/4.7.1/../../../../xenon/lib/../lib/crt1.o
 .rela.text.EHCI_do_one
                0x0000000000000000        0x0 /usr/local/xenon/lib/gcc/xenon/4.7.1/../../../../xenon/lib/../lib/crt1.o
 .rela.text.USBStorage_Init
                0x0000000000000000        0x0 /usr/local/xenon/lib/gcc/xenon/4.7.1/../../../../xenon/lib/../lib/crt1.o
 .rela.text.seems_valid
                0x0000000000000000        0x0 /usr/local/xenon/lib/gcc/xenon/4.7.1/../../../../xenon/lib/../lib/crt1.o
 .rela.text.stack_trace
                0x0000000000000000        0x0 /usr/local/xenon/lib/gcc/xenon/4.7.1/../../../../xenon/lib/../lib/crt1.o
 .rela.text.xenon_sound_init
                0x0000000000000000        0x0 /usr/local/xenon/lib/gcc/xenon/4.7.1/../../../../xenon/lib/../lib/crt1.o
 .rela.text.rawflash_checkImage_meta
                0x0000000000000000        0x0 /usr/local/xenon/lib/gcc/xenon/4.7.1/../../../../xenon/lib/../lib/crt1.o
 .rela.text.rawflash_checkImage_ecd
                0x0000000000000000        0x0 /usr/local/xenon/lib/gcc/xenon/4.7.1/../../../../xenon/lib/../lib/crt1.o
 .rela.text.rawflash_writeImage
                0x0000000000000000        0x0 /usr/local/xenon/lib/gcc/xenon/4.7.1/../../../../xenon/lib/../lib/crt1.o
 .rela.text.rawflash_checkImage
                0x0000000000000000        0x0 /usr/local/xenon/lib/gcc/xenon/4.7.1/../../../../xenon/lib/../lib/crt1.o
 .rela.text.try_rawflash
                0x0000000000000000        0x0 /usr/local/xenon/lib/gcc/xenon/4.7.1/../../../../xenon/lib/../lib/crt1.o
 .rela.text.mem_init
                0x0000000000000000        0x0 /usr/local/xenon/lib/gcc/xenon/4.7.1/../../../../xenon/lib/../lib/crt1.o
 .rela.text.mem_free
                0x0000000000000000        0x0 /usr/local/xenon/lib/gcc/xenon/4.7.1/../../../../xenon/lib/../lib/crt1.o
 .rela.text.mem_trim
                0x0000000000000000        0x0 /usr/local/xenon/lib/gcc/xenon/4.7.1/../../../../xenon/lib/../lib/crt1.o
 .rela.text.mem_malloc
                0x0000000000000000        0x0 /usr/local/xenon/lib/gcc/xenon/4.7.1/../../../../xenon/lib/../lib/crt1.o
 .rela.text.netif_find
                0x0000000000000000        0x0 /usr/local/xenon/lib/gcc/xenon/4.7.1/../../../../xenon/lib/../lib/crt1.o
 .rela.text.netif_set_ipaddr
                0x0000000000000000        0x0 /usr/local/xenon/lib/gcc/xenon/4.7.1/../../../../xenon/lib/../lib/crt1.o
 .rela.text.netif_add
                0x0000000000000000        0x0 /usr/local/xenon/lib/gcc/xenon/4.7.1/../../../../xenon/lib/../lib/crt1.o
 .rela.text.netif_set_default
                0x0000000000000000        0x0 /usr/local/xenon/lib/gcc/xenon/4.7.1/../../../../xenon/lib/../lib/crt1.o
 .rela.text.netif_remove
                0x0000000000000000        0x0 /usr/local/xenon/lib/gcc/xenon/4.7.1/../../../../xenon/lib/../lib/crt1.o
 .rela.text.tcp_bind
                0x0000000000000000        0x0 /usr/local/xenon/lib/gcc/xenon/4.7.1/../../../../xenon/lib/../lib/crt1.o
 .rela.text.tcp_listen_with_backlog
                0x0000000000000000        0x0 /usr/local/xenon/lib/gcc/xenon/4.7.1/../../../../xenon/lib/../lib/crt1.o
 .rela.text.tcp_slowtmr
                0x0000000000000000        0x0 /usr/local/xenon/lib/gcc/xenon/4.7.1/../../../../xenon/lib/../lib/crt1.o
 .rela.text.tcp_pcb_remove
                0x0000000000000000        0x0 /usr/local/xenon/lib/gcc/xenon/4.7.1/../../../../xenon/lib/../lib/crt1.o
 .rela.text.tcp_abandon
                0x0000000000000000        0x0 /usr/local/xenon/lib/gcc/xenon/4.7.1/../../../../xenon/lib/../lib/crt1.o
 .rela.text.tcp_close_shutdown
                0x0000000000000000        0x0 /usr/local/xenon/lib/gcc/xenon/4.7.1/../../../../xenon/lib/../lib/crt1.o
 .rela.text.tcp_fasttmr
                0x0000000000000000        0x0 /usr/local/xenon/lib/gcc/xenon/4.7.1/../../../../xenon/lib/../lib/crt1.o
 .rela.text.tcp_next_iss
                0x0000000000000000        0x0 /usr/local/xenon/lib/gcc/xenon/4.7.1/../../../../xenon/lib/../lib/crt1.o
 .rela.text.tcp_alloc
                0x0000000000000000        0x0 /usr/local/xenon/lib/gcc/xenon/4.7.1/../../../../xenon/lib/../lib/crt1.o
 .rela.text.tcp_connect
                0x0000000000000000        0x0 /usr/local/xenon/lib/gcc/xenon/4.7.1/../../../../xenon/lib/../lib/crt1.o
 .rela.rodata.tcp_pcb_lists
                0x0000000000000000        0x0 /usr/local/xenon/lib/gcc/xenon/4.7.1/../../../../xenon/lib/../lib/crt1.o
 .rela.text.ip_route
                0x0000000000000000        0x0 /usr/local/xenon/lib/gcc/xenon/4.7.1/../../../../xenon/lib/../lib/crt1.o
 .rela.text.ip_input
                0x0000000000000000        0x0 /usr/local/xenon/lib/gcc/xenon/4.7.1/../../../../xenon/lib/../lib/crt1.o
 .rela.text.ip_output_if
                0x0000000000000000        0x0 /usr/local/xenon/lib/gcc/xenon/4.7.1/../../../../xenon/lib/../lib/crt1.o
 .rela.text.ip_output
                0x0000000000000000        0x0 /usr/local/xenon/lib/gcc/xenon/4.7.1/../../../../xenon/lib/../lib/crt1.o
 .rela.text.ip_reass
                0x0000000000000000        0x0 /usr/local/xenon/lib/gcc/xenon/4.7.1/../../../../xenon/lib/../lib/crt1.o
 .rela.text.ip_frag
                0x0000000000000000        0x0 /usr/local/xenon/lib/gcc/xenon/4.7.1/../../../../xenon/lib/../lib/crt1.o
 .rela.text.tcp_create_segment
                0x0000000000000000        0x0 /usr/local/xenon/lib/gcc/xenon/4.7.1/../../../../xenon/lib/../lib/crt1.o
 .rela.text.tcp_write
                0x0000000000000000        0x0 /usr/local/xenon/lib/gcc/xenon/4.7.1/../../../../xenon/lib/../lib/crt1.o
 .rela.text.tcp_enqueue_flags
                0x0000000000000000        0x0 /usr/local/xenon/lib/gcc/xenon/4.7.1/../../../../xenon/lib/../lib/crt1.o
 .rela.text.tcp_output
                0x0000000000000000        0x0 /usr/local/xenon/lib/gcc/xenon/4.7.1/../../../../xenon/lib/../lib/crt1.o
 .rela.text.tcp_rst
                0x0000000000000000        0x0 /usr/local/xenon/lib/gcc/xenon/4.7.1/../../../../xenon/lib/../lib/crt1.o
 .rela.text.tcp_keepalive
                0x0000000000000000        0x0 /usr/local/xenon/lib/gcc/xenon/4.7.1/../../../../xenon/lib/../lib/crt1.o
 .rela.text.tcp_zero_window_probe
                0x0000000000000000        0x0 /usr/local/xenon/lib/gcc/xenon/4.7.1/../../../../xenon/lib/../lib/crt1.o
 .rela.text.udp_input
                0x0000000000000000        0x0 /usr/local/xenon/lib/gcc/xenon/4.7.1/../../../../xenon/lib/../lib/crt1.o
 .rela.text.udp_bind
                0x0000000000000000        0x0 /usr/local/xenon/lib/gcc/xenon/4.7.1/../../../../xenon/lib/../lib/crt1.o
 .rela.text.udp_sendto_if
                0x0000000000000000        0x0 /usr/local/xenon/lib/gcc/xenon/4.7.1/../../../../xenon/lib/../lib/crt1.o
 .rela.text.udp_sendto
                0x0000000000000000        0x0 /usr/local/xenon/lib/gcc/xenon/4.7.1/../../../../xenon/lib/../lib/crt1.o
 .rela.text.udp_connect
                0x0000000000000000        0x0 /usr/local/xenon/lib/gcc/xenon/4.7.1/../../../../xenon/lib/../lib/crt1.o
 .rela.text.udp_remove
                0x0000000000000000        0x0 /usr/local/xenon/lib/gcc/xenon/4.7.1/../../../../xenon/lib/../lib/crt1.o
 .rela.text.etharp_arp_input
                0x0000000000000000        0x0 /usr/local/xenon/lib/gcc/xenon/4.7.1/../../../../xenon/lib/../lib/crt1.o
 .rela.text.etharp_request
                0x0000000000000000        0x0 /usr/local/xenon/lib/gcc/xenon/4.7.1/../../../../xenon/lib/../lib/crt1.o
 .rela.text.etharp_query
                0x0000000000000000        0x0 /usr/local/xenon/lib/gcc/xenon/4.7.1/../../../../xenon/lib/../lib/crt1.o
 .rela.text.etharp_output
                0x0000000000000000        0x0 /usr/local/xenon/lib/gcc/xenon/4.7.1/../../../../xenon/lib/../lib/crt1.o
 .rela.text.ethernet_input
                0x0000000000000000        0x0 /usr/local/xenon/lib/gcc/xenon/4.7.1/../../../../xenon/lib/../lib/crt1.o
 .rela.text.dhcp_recv
                0x0000000000000000        0x0 /usr/local/xenon/lib/gcc/xenon/4.7.1/../../../../xenon/lib/../lib/crt1.o
 .rela.text.dhcp_coarse_tmr
                0x0000000000000000        0x0 /usr/local/xenon/lib/gcc/xenon/4.7.1/../../../../xenon/lib/../lib/crt1.o
 .rela.text.dhcp_fine_tmr
                0x0000000000000000        0x0 /usr/local/xenon/lib/gcc/xenon/4.7.1/../../../../xenon/lib/../lib/crt1.o
 .rela.text.raw_input
                0x0000000000000000        0x0 /usr/local/xenon/lib/gcc/xenon/4.7.1/../../../../xenon/lib/../lib/crt1.o
 .rela.text.enet_poll
                0x0000000000000000        0x0 /usr/local/xenon/lib/gcc/xenon/4.7.1/../../../../xenon/lib/../lib/crt1.o
 .rela.text.network_poll
                0x0000000000000000        0x0 /usr/local/xenon/lib/gcc/xenon/4.7.1/../../../../xenon/lib/../lib/crt1.o
 .rela.text.network_init
                0x0000000000000000        0x0 /usr/local/xenon/lib/gcc/xenon/4.7.1/../../../../xenon/lib/../lib/crt1.o
 .rela.text.network_print_config
                0x0000000000000000        0x0 /usr/local/xenon/lib/gcc/xenon/4.7.1/../../../../xenon/lib/../lib/crt1.o
 .rela.elfldr   0x0000000000000000        0x0 /usr/local/xenon/lib/gcc/xenon/4.7.1/../../../../xenon/lib/../lib/crt1.o
 .rela.text.elf_runFromMemory
                0x0000000000000000        0x0 /usr/local/xenon/lib/gcc/xenon/4.7.1/../../../../xenon/lib/../lib/crt1.o
 .rela.text.kmem_init
                0x0000000000000000        0x0 /usr/local/xenon/lib/gcc/xenon/4.7.1/../../../../xenon/lib/../lib/crt1.o
 .rela.text._ohci_dma_alloc
                0x0000000000000000        0x0 /usr/local/xenon/lib/gcc/xenon/4.7.1/../../../../xenon/lib/../lib/crt1.o
 .rela.text.ohci_create
                0x0000000000000000        0x0 /usr/local/xenon/lib/gcc/xenon/4.7.1/../../../../xenon/lib/../lib/crt1.o
 .rela.text.unlikely.tcp_receive
                0x0000000000000000        0x0 /usr/local/xenon/lib/gcc/xenon/4.7.1/../../../../xenon/lib/../lib/crt1.o
 .rela.text.tcp_input
                0x0000000000000000        0x0 /usr/local/xenon/lib/gcc/xenon/4.7.1/../../../../xenon/lib/../lib/crt1.o
 .rela.text.memp_init
                0x0000000000000000        0x0 /usr/local/xenon/lib/gcc/xenon/4.7.1/../../../../xenon/lib/../lib/crt1.o
 .rela.text.memp_malloc
                0x0000000000000000        0x0 /usr/local/xenon/lib/gcc/xenon/4.7.1/../../../../xenon/lib/../lib/crt1.o
 .rela.text.memp_free
                0x0000000000000000        0x0 /usr/local/xenon/lib/gcc/xenon/4.7.1/../../../../xenon/lib/../lib/crt1.o
 .rela.text.icmp_send_response.isra.0
                0x0000000000000000        0x0 /usr/local/xenon/lib/gcc/xenon/4.7.1/../../../../xenon/lib/../lib/crt1.o
 .rela.text.icmp_input
                0x0000000000000000        0x0 /usr/local/xenon/lib/gcc/xenon/4.7.1/../../../../xenon/lib/../lib/crt1.o
 .rela.rodata   0x0000000000000000        0x0 /usr/local/xenon/lib/gcc/xenon/4.7.1/../../../../xenon/lib/../lib/crt1.o

.gcc_except_table
 *(.gcc_except_table .gcc_except_table.*)
                0x000000008006e8b4                bss_start = .

.bss            0x000000008006e900   0x69a6d8
 *(.bss.beginning.lower)
 .bss.beginning.lower
                0x000000008006e900    0x10100 /usr/local/xenon/usr/lib/libxenon.a(sound.o)
 *(.bss.beginning.upper)
 *(.bss*)
 .bss.DoLog     0x000000008007ea00        0x4 log.o
 .bss.old_ctrl  0x000000008007ea04       0x48 kbootconf.o
 .bss.ctrl      0x000000008007ea4c       0x48 kbootconf.o
 .bss.distsym.2074
                0x000000008007ea94       0x3c puff.o
 .bss.lensym.2072
                0x000000008007ead0      0x240 puff.o
 .bss.lencode.2075
                0x000000008007ed10        0x8 puff.o
 .bss.distcnt.2073
                0x000000008007ed18       0x20 puff.o
 .bss.lencnt.2071
                0x000000008007ed38       0x20 puff.o
 .bss.distcode.2076
                0x000000008007ed58        0x8 puff.o
 .bss.console_size
                0x000000008007ed60        0x4 /usr/local/xenon/usr/lib/libxenon.a(console.o)
 .bss.offset_x  0x000000008007ed64        0x4 /usr/local/xenon/usr/lib/libxenon.a(console.o)
 .bss.console_width
                0x000000008007ed68        0x4 /usr/local/xenon/usr/lib/libxenon.a(console.o)
 .bss.offset_y  0x000000008007ed6c        0x4 /usr/local/xenon/usr/lib/libxenon.a(console.o)
 .bss.console_fb
                0x000000008007ed70        0x4 /usr/local/xenon/usr/lib/libxenon.a(console.o)
 .bss.console_height
                0x000000008007ed74        0x4 /usr/local/xenon/usr/lib/libxenon.a(console.o)
 .bss.max_x     0x000000008007ed78        0x4 /usr/local/xenon/usr/lib/libxenon.a(console.o)
 .bss.max_y     0x000000008007ed7c        0x4 /usr/local/xenon/usr/lib/libxenon.a(console.o)
 .bss.cursor_x  0x000000008007ed80        0x4 /usr/local/xenon/usr/lib/libxenon.a(console.o)
 .bss.cursor_y  0x000000008007ed84        0x4 /usr/local/xenon/usr/lib/libxenon.a(console.o)
 .bss.ata_ready
                0x000000008007ed88        0x4 /usr/local/xenon/usr/lib/libxenon.a(ata.o)
 .bss.atapi_ready
                0x000000008007ed8c        0x4 /usr/local/xenon/usr/lib/libxenon.a(ata.o)
 .bss.fh_mutex  0x000000008007ed90        0x4 /usr/local/xenon/usr/lib/libxenon.a(iso9660.o)
 .bss.joliet    0x000000008007ed94        0x4 /usr/local/xenon/usr/lib/libxenon.a(iso9660.o)
 .bss.icache    0x000000008007ed98       0x40 /usr/local/xenon/usr/lib/libxenon.a(iso9660.o)
 .bss.percd_done
                0x000000008007edd8        0x4 /usr/local/xenon/usr/lib/libxenon.a(iso9660.o)
 .bss.dcache    0x000000008007eddc       0x40 /usr/local/xenon/usr/lib/libxenon.a(iso9660.o)
 .bss.iso9660_dev
                0x000000008007ee1c        0x4 /usr/local/xenon/usr/lib/libxenon.a(iso9660.o)
 .bss.root_size
                0x000000008007ee20        0x4 /usr/local/xenon/usr/lib/libxenon.a(iso9660.o)
 .bss.root_dirent
                0x000000008007ee24       0x22 /usr/local/xenon/usr/lib/libxenon.a(iso9660.o)
 *fill*         0x000000008007ee46        0x2 00
 .bss.cache_mutex
                0x000000008007ee48        0x4 /usr/local/xenon/usr/lib/libxenon.a(iso9660.o)
 .bss.fh        0x000000008007ee4c      0x920 /usr/local/xenon/usr/lib/libxenon.a(iso9660.o)
 .bss.root_extent
                0x000000008007f76c        0x4 /usr/local/xenon/usr/lib/libxenon.a(iso9660.o)
 .bss.valid     0x000000008007f770       0x10 /usr/local/xenon/usr/lib/libxenon.a(input.o)
 .bss.ctrl      0x000000008007f780      0x120 /usr/local/xenon/usr/lib/libxenon.a(input.o)
 .bss.handles   0x000000008007f8a0     0x1000 /usr/local/xenon/usr/lib/libxenon.a(newlib.o)
 .bss.lockcount
                0x00000000800808a0        0x4 /usr/local/xenon/usr/lib/libxenon.a(xenon_syscalls.o)
 *fill*         0x00000000800808a4       0x5c 00
 .bss.malloc_spinlock
                0x0000000080080900        0x4 /usr/local/xenon/usr/lib/libxenon.a(xenon_syscalls.o)
 *fill*         0x0000000080080904       0x7c 00
 .bss.safety_spinlock
                0x0000000080080980        0x4 /usr/local/xenon/usr/lib/libxenon.a(xenon_syscalls.o)
 *fill*         0x0000000080080984        0x4 00
 .bss.text      0x0000000080080988     0x1000 /usr/local/xenon/usr/lib/libxenon.a(c_except.o)
 .bss.userpagetable
                0x0000000080081988    0x14000 /usr/local/xenon/usr/lib/libxenon.a(vm.o)
                0x0000000080081988                userpagetable
 .bss.controllers
                0x0000000080095988       0x10 /usr/local/xenon/usr/lib/libxenon.a(usbctrl.o)
 .bss.controller_mask
                0x0000000080095998        0x4 /usr/local/xenon/usr/lib/libxenon.a(usbctrl.o)
 .bss.initdone.4103
                0x000000008009599c        0x4 /usr/local/xenon/usr/lib/libxenon.a(usbmain.o)
 .bss.in_poll.4090
                0x00000000800959a0        0x4 /usr/local/xenon/usr/lib/libxenon.a(usbmain.o)
 .bss.udd.4718  0x00000000800959a4       0x16 /usr/local/xenon/usr/lib/libxenon.a(tinyehci.o)
 *fill*         0x00000000800959ba        0x2 00
 .bss.ums_init_done
                0x00000000800959bc        0x4 /usr/local/xenon/usr/lib/libxenon.a(tinyehci.o)
 .bss._ehci_data
                0x00000000800959c0      0x5a0 /usr/local/xenon/usr/lib/libxenon.a(tinyehci.o)
 .bss._old_udd  0x0000000080095f60       0x16 /usr/local/xenon/usr/lib/libxenon.a(tinyehci.o)
 *fill*         0x0000000080095f76        0x2 00
 .bss._ehci_device_count
                0x0000000080095f78        0x4 /usr/local/xenon/usr/lib/libxenon.a(tinyehci.o)
 .bss.thread_state
                0x0000000080095f7c       0x18 /usr/local/xenon/usr/lib/libxenon.a(xenon_power.o)
 *fill*         0x0000000080095f94        0x4 00
 .bss.stack     0x0000000080095f98     0x5000 /usr/local/xenon/usr/lib/libxenon.a(xenon_power.o)
 .bss.wptr      0x000000008009af98        0x4 /usr/local/xenon/usr/lib/libxenon.a(sound.o)
 .bss.buffer_len
                0x000000008009af9c        0x4 /usr/local/xenon/usr/lib/libxenon.a(sound.o)
 .bss.sfc       0x000000008009afa0       0x44 /usr/local/xenon/usr/lib/libxenon.a(xenon_sfcx.o)
                0x000000008009afa0                sfc
 .bss.secured_settings
                0x000000008009afe4      0x208 /usr/local/xenon/usr/lib/libxenon.a(xenon_config.o)
                0x000000008009afe4                secured_settings
 .bss.xenon_config_initialized
                0x000000008009b1ec        0x4 /usr/local/xenon/usr/lib/libxenon.a(xenon_config.o)
 .bss.xenos_current_mode
                0x000000008009b1f0        0x4 /usr/local/xenon/usr/lib/libxenon.a(xenos.o)
 .bss.xenos_edid
                0x000000008009b1f4        0x4 /usr/local/xenon/usr/lib/libxenon.a(xenos.o)
 .bss.lfree     0x000000008009b1f8        0x4 /usr/local/xenon/usr/lib/libxenon.a(mem.o)
 .bss.ram_end   0x000000008009b1fc        0x4 /usr/local/xenon/usr/lib/libxenon.a(mem.o)
 .bss.ram       0x000000008009b200        0x4 /usr/local/xenon/usr/lib/libxenon.a(mem.o)
 .bss.netifnum.3872
                0x000000008009b204        0x1 /usr/local/xenon/usr/lib/libxenon.a(netif.o)
 .bss.tcp_timer
                0x000000008009b205        0x1 /usr/local/xenon/usr/lib/libxenon.a(tcp.o)
 *fill*         0x000000008009b206        0x2 00
 .bss.str.3287  0x000000008009b208       0x10 /usr/local/xenon/usr/lib/libxenon.a(ip_addr.o)
 .bss.ip_id     0x000000008009b218        0x2 /usr/local/xenon/usr/lib/libxenon.a(ip.o)
 *fill*         0x000000008009b21a        0x2 00
 .bss.reassdatagrams
                0x000000008009b21c        0x4 /usr/local/xenon/usr/lib/libxenon.a(ip_frag.o)
 .bss.ip_reass_pbufcount
                0x000000008009b220        0x2 /usr/local/xenon/usr/lib/libxenon.a(ip_frag.o)
 .bss.etharp_cached_entry
                0x000000008009b222        0x1 /usr/local/xenon/usr/lib/libxenon.a(etharp.o)
 *fill*         0x000000008009b223        0x1 00
 .bss.arp_table
                0x000000008009b224       0xa0 /usr/local/xenon/usr/lib/libxenon.a(etharp.o)
 .bss.raw_pcbs  0x000000008009b2c4        0x4 /usr/local/xenon/usr/lib/libxenon.a(raw.o)
 .bss.now       0x000000008009b2c8        0x8 /usr/local/xenon/usr/lib/libxenon.a(network.o)
 .bss.now2      0x000000008009b2d0        0x8 /usr/local/xenon/usr/lib/libxenon.a(network.o)
 .bss.dhcp_wait
                0x000000008009b2d8        0x8 /usr/local/xenon/usr/lib/libxenon.a(network.o)
 .bss.last_dhcp_fine
                0x000000008009b2e0        0x8 /usr/local/xenon/usr/lib/libxenon.a(network.o)
 .bss.last_tcp  0x000000008009b2e8        0x8 /usr/local/xenon/usr/lib/libxenon.a(network.o)
 .bss.last_dhcp_coarse
                0x000000008009b2f0        0x8 /usr/local/xenon/usr/lib/libxenon.a(network.o)
 .bss.initrd_start
                0x000000008009b2f8        0x4 /usr/local/xenon/usr/lib/libxenon.a(elf.o)
 *fill*         0x000000008009b2fc        0x4 00
 .bss.bootargs  0x000000008009b300       0xff /usr/local/xenon/usr/lib/libxenon.a(elf.o)
 *fill*         0x000000008009b3ff        0x1 00
 .bss.initrd_size
                0x000000008009b400        0x4 /usr/local/xenon/usr/lib/libxenon.a(elf.o)
 .bss.kmem_init_done
                0x000000008009b404        0x4 /usr/local/xenon/usr/lib/libxenon.a(lib_malloc.o)
 .bss.heap      0x000000008009b408   0x100000 /usr/local/xenon/usr/lib/libxenon.a(lib_malloc.o)
 .bss.buf.3579  0x000000008019b408      0x100 /usr/local/xenon/usr/lib/libxenon.a(usbdebug.o)
 .bss.aligned_mem
                0x000000008019b508        0x4 /usr/local/xenon/usr/lib/libxenon.a(usb_os.o)
 .bss.aligned_base
                0x000000008019b50c        0x4 /usr/local/xenon/usr/lib/libxenon.a(usb_os.o)
 *fill*         0x000000008019b510       0x10 00
 .bss.heapspace
                0x000000008019b520    0x40000 /usr/local/xenon/usr/lib/libxenon.a(usb_os.o)
 .bss.seqno     0x00000000801db520        0x4 /usr/local/xenon/usr/lib/libxenon.a(tcp_in.o)
 .bss.iphdr     0x00000000801db524        0x4 /usr/local/xenon/usr/lib/libxenon.a(tcp_in.o)
 .bss.tcplen    0x00000000801db528        0x2 /usr/local/xenon/usr/lib/libxenon.a(tcp_in.o)
 *fill*         0x00000000801db52a        0x2 00
 .bss.ackno     0x00000000801db52c        0x4 /usr/local/xenon/usr/lib/libxenon.a(tcp_in.o)
 .bss.flags     0x00000000801db530        0x1 /usr/local/xenon/usr/lib/libxenon.a(tcp_in.o)
 .bss.recv_flags
                0x00000000801db531        0x1 /usr/local/xenon/usr/lib/libxenon.a(tcp_in.o)
 *fill*         0x00000000801db532        0x2 00
 .bss.tcphdr    0x00000000801db534        0x4 /usr/local/xenon/usr/lib/libxenon.a(tcp_in.o)
 .bss.recv_data
                0x00000000801db538        0x4 /usr/local/xenon/usr/lib/libxenon.a(tcp_in.o)
 .bss.inseg     0x00000000801db53c       0x10 /usr/local/xenon/usr/lib/libxenon.a(tcp_in.o)
 .bss.dns_table
                0x00000000801db54c      0x460 /usr/local/xenon/usr/lib/libxenon.a(dns.o)
 .bss.dns_servers
                0x00000000801db9ac        0x8 /usr/local/xenon/usr/lib/libxenon.a(dns.o)
 *fill*         0x00000000801db9b4        0x4 00
 .bss.dns_payload_buffer
                0x00000000801db9b8      0x203 /usr/local/xenon/usr/lib/libxenon.a(dns.o)
 *fill*         0x00000000801dbbbb        0x1 00
 .bss.dns_pcb   0x00000000801dbbbc        0x4 /usr/local/xenon/usr/lib/libxenon.a(dns.o)
 .bss.dns_payload
                0x00000000801dbbc0        0x4 /usr/local/xenon/usr/lib/libxenon.a(dns.o)
 *fill*         0x00000000801dbbc4        0x4 00
 .bss.memp_memory
                0x00000000801dbbc8    0xc754b /usr/local/xenon/usr/lib/libxenon.a(memp.o)
 *fill*         0x00000000802a3113        0x1 00
 .bss.memp_tab  0x00000000802a3114       0x28 /usr/local/xenon/usr/lib/libxenon.a(memp.o)
 .bss           0x00000000802a313c        0x4 /usr/local/xenon/usr/lib/libfat.a(cache.o)
 .bss           0x00000000802a3140        0x4 /usr/local/xenon/usr/lib/libext2fs.a(disc_cache.o)
 *fill*         0x00000000802a3144        0x4 00
 .bss           0x00000000802a3148      0x100 /usr/local/xenon/usr/lib/libext2fs.a(gen_bitmap.o)
 .bss           0x00000000802a3248       0xa0 /usr/local/xenon/usr/lib/libext2fs.a(progress.o)
 .bss           0x00000000802a32e8       0x80 /usr/local/xenon/usr/lib/libxtaf.a(xtaf.o)
 .bss           0x00000000802a3368        0x4 /usr/local/xenon/usr/lib/libxtaf.a(xtaf_partition.o)
 .bss           0x00000000802a336c        0x4 /usr/local/xenon/usr/lib/libxtaf.a(cache.o)
 .bss           0x00000000802a3370       0x14 /usr/local/xenon/lib/gcc/xenon/4.7.1/32/libgcc.a(unwind-dw2-fde-dip.o)
 .bss           0x00000000802a3384       0x28 /usr/local/xenon/xenon/lib/32/libc.a(lib_a-mallocr.o)
                0x00000000802a3384                __malloc_current_mallinfo
 .bss           0x00000000802a33ac        0x4 /usr/local/xenon/xenon/lib/32/libc.a(lib_a-environ.o)
 COMMON         0x00000000802a33b0    0x6015e main.o
                0x00000000802a33b0                FUSES
                0x00000000802a350e                stacks
 *fill*         0x000000008030350e        0x2 00
 COMMON         0x0000000080303510      0xeb0 mount.o
                0x0000000080303510                part
                0x0000000080304320                device_list
 COMMON         0x00000000803043c0       0x20 httpd_index.o
                0x00000000803043c0                cpukey
                0x00000000803043d0                dvdkey
 COMMON         0x00000000803043e0     0x4628 kbootconf.o
                0x00000000803043e0                conf
                0x0000000080304a08                conf_buf
 COMMON         0x0000000080308a08       0x48 /usr/local/xenon/usr/lib/libxenon.a(ata.o)
                0x0000000080308a08                atapi
                0x0000000080308a2c                ata
 COMMON         0x0000000080308a50       0x10 /usr/local/xenon/usr/lib/libxenon.a(usbmain.o)
                0x0000000080308a50                usb_buses
 COMMON         0x0000000080308a60      0x380 /usr/local/xenon/usr/lib/libxenon.a(tinyehci.o)
                0x0000000080308a60                ehci_hcds
 COMMON         0x0000000080308de0   0x40001c /usr/local/xenon/usr/lib/libxenon.a(mem.o)
                0x0000000080308de0                ram_heap
 COMMON         0x0000000080708dfc      0x158 /usr/local/xenon/usr/lib/libxenon.a(stats.o)
                0x0000000080708dfc                lwip_stats
 *fill*         0x0000000080708f54        0x4 00
 COMMON         0x0000000080708f58       0x34 /usr/local/xenon/usr/lib/libxenon.a(dhcp.o)
                0x0000000080708f58                dhcp_rx_options_given
                0x0000000080708f64                dhcp_rx_options_val
 COMMON         0x0000000080708f8c       0x40 /usr/local/xenon/usr/lib/libxenon.a(network.o)
                0x0000000080708f8c                netif
 COMMON         0x0000000080708fcc        0xc /usr/local/xenon/usr/lib/libxenon.a(lib_malloc.o)
                0x0000000080708fcc                kmempool

.iplt           0x0000000080708fe0        0x0
 .iplt          0x0000000000000000        0x0 /usr/local/xenon/lib/gcc/xenon/4.7.1/../../../../xenon/lib/../lib/crt1.o

.sbss           0x0000000080708fd8       0xd8
 *(.sbss .sbss.*)
 .sbss          0x0000000000000000        0x0 /usr/local/xenon/lib/gcc/xenon/4.7.1/../../../../xenon/lib/../lib/crt1.o
 .sbss.vfs_console_buff
                0x0000000080708fd8        0x4 log.o
                0x0000000080708fd8                vfs_console_buff
 .sbss.vfs_console_len
                0x0000000080708fdc        0x4 log.o
                0x0000000080708fdc                vfs_console_len
 .sbss.hdd_dvd_mounted
                0x0000000080708fe0        0x4 mount.o
                0x0000000080708fe0                hdd_dvd_mounted
 .sbss          0x0000000080708fe4        0x4 httpd.o
                0x0000000080708fe4                listen_pcb
 .sbss.decrypted
                0x0000000080708fe8        0x4 httpd_keyvault.o
                0x0000000080708fe8                decrypted
 .sbss.rawBlockMode
                0x0000000080708fec        0x4 httpd_keyvault.o
                0x0000000080708fec                rawBlockMode
 .sbss          0x0000000080708ff0       0x18 kbootconf.o
                0x0000000080708ff0                kboot_tftp
                0x0000000080708ff4                boot_entry
                0x0000000080708ff8                oldnetmask
                0x0000000080708ffc                oldipaddr
                0x0000000080709000                oldgateway
                0x0000000080709004                IR
 .sbss          0x0000000080709008        0x8 /usr/local/xenon/usr/lib/libxenon.a(console.o)
                0x0000000080709008                console_oldbg
                0x000000008070900c                console_oldfg
 .sbss.stdlog_hook
                0x0000000080709010        0x4 /usr/local/xenon/usr/lib/libxenon.a(newlib.o)
                0x0000000080709010                stdlog_hook
 .sbss.stdout_hook
                0x0000000080709014        0x4 /usr/local/xenon/usr/lib/libxenon.a(newlib.o)
                0x0000000080709014                stdout_hook
 .sbss          0x0000000080709018        0x4 /usr/local/xenon/usr/lib/libxenon.a(xenon_syscalls.o)
                0x0000000080709018                heap_ptr
 .sbss.crash_dumped
                0x000000008070901c        0x4 /usr/local/xenon/usr/lib/libxenon.a(c_except.o)
                0x000000008070901c                crash_dumped
 .sbss.vm_segfault_handler
                0x0000000080709020        0x4 /usr/local/xenon/usr/lib/libxenon.a(vm.o)
                0x0000000080709020                vm_segfault_handler
 .sbss          0x0000000080709024        0x4 /usr/local/xenon/usr/lib/libxenon.a(usbctrl.o)
                0x0000000080709024                RFdev
 .sbss.usb_noisy
                0x0000000080709028        0x4 /usr/local/xenon/usr/lib/libxenon.a(usbd.o)
                0x0000000080709028                usb_noisy
 .sbss.usb_initialized
                0x000000008070902c        0x4 /usr/local/xenon/usr/lib/libxenon.a(usbmain.o)
                0x000000008070902c                usb_initialized
 .sbss.usb_buscnt
                0x0000000080709030        0x4 /usr/local/xenon/usr/lib/libxenon.a(usbmain.o)
                0x0000000080709030                usb_buscnt
 .sbss.try_status
                0x0000000080709034        0x4 /usr/local/xenon/usr/lib/libxenon.a(tinyehci.o)
                0x0000000080709034                try_status
 .sbss.unplug_device
                0x0000000080709038        0x4 /usr/local/xenon/usr/lib/libxenon.a(tinyehci.o)
                0x0000000080709038                unplug_device
 .sbss.mount_usb_device
                0x000000008070903c        0x4 /usr/local/xenon/usr/lib/libxenon.a(tinyehci.o)
                0x000000008070903c                mount_usb_device
 .sbss.handshake_mode
                0x0000000080709040        0x4 /usr/local/xenon/usr/lib/libxenon.a(tinyehci.o)
                0x0000000080709040                handshake_mode
 .sbss          0x0000000080709044        0x4 /usr/local/xenon/usr/lib/libxenon.a(xenon_sfcx.o)
                0x0000000080709044                blockbuf
 .sbss.xenos_id
                0x0000000080709048        0x4 /usr/local/xenon/usr/lib/libxenon.a(xenos.o)
                0x0000000080709048                xenos_id
 .sbss.xenos_is_hdmi
                0x000000008070904c        0x4 /usr/local/xenon/usr/lib/libxenon.a(xenos.o)
                0x000000008070904c                xenos_is_hdmi
 .sbss.xenos_is_corona
                0x0000000080709050        0x4 /usr/local/xenon/usr/lib/libxenon.a(xenos.o)
                0x0000000080709050                xenos_is_corona
 .sbss          0x0000000080709054        0x8 /usr/local/xenon/usr/lib/libxenon.a(netif.o)
                0x0000000080709054                netif_list
                0x0000000080709058                netif_default
 .sbss          0x000000008070905c       0x18 /usr/local/xenon/usr/lib/libxenon.a(tcp.o)
                0x000000008070905c                tcp_active_pcbs
                0x0000000080709060                tcp_ticks
                0x0000000080709064                tcp_listen_pcbs
                0x0000000080709068                tcp_tmp_pcb
                0x000000008070906c                tcp_bound_pcbs
                0x0000000080709070                tcp_tw_pcbs
 .sbss          0x0000000080709074       0x10 /usr/local/xenon/usr/lib/libxenon.a(ip.o)
                0x0000000080709074                current_iphdr_src
                0x0000000080709078                current_netif
                0x000000008070907c                current_iphdr_dest
                0x0000000080709080                current_header
 .sbss          0x0000000080709084        0x4 /usr/local/xenon/usr/lib/libxenon.a(udp.o)
                0x0000000080709084                udp_pcbs
 .sbss          0x0000000080709088        0xc /usr/local/xenon/usr/lib/libxenon.a(network.o)
                0x0000000080709088                ipaddr
                0x000000008070908c                netmask
                0x0000000080709090                gateway
 .sbss          0x0000000080709094        0x4 /usr/local/xenon/usr/lib/libxenon.a(tcp_in.o)
                0x0000000080709094                tcp_input_pcb
 .sbss          0x0000000080709098        0xc /usr/local/xenon/xenon/lib/32/libc.a(lib_a-mallocr.o)
                0x0000000080709098                __malloc_max_total_mem
                0x000000008070909c                __malloc_max_sbrked_mem
                0x00000000807090a0                __malloc_top_pad
 .sbss          0x00000000807090a4        0x4 /usr/local/xenon/xenon/lib/32/libc.a(lib_a-reent.o)
                0x00000000807090a4                errno
 .sbss          0x00000000807090a8        0x8 /usr/local/xenon/xenon/lib/32/libc.a(lib_a-tzvars.o)
                0x00000000807090a8                _timezone
                0x00000000807090ac                _daylight
                0x00000000807090b0                bss_end = .
                0x00000000807090b0                heap_begin = .
                0x000000009e000000                . = 0x9e000000
                0x000000009e000000                __libc_stack_end = .
                0x000000009e000000                heap_end = .
                0x00000000a0000000                . = 0xa0000000
OUTPUT(/home/xell/xell-reloaded/stage2.elf elf32-powerpc)

.debug_info     0x0000000000000000    0xa835d
 .debug_info    0x0000000000000000      0x25d /usr/local/xenon/lib/gcc/xenon/4.7.1/../../../../xenon/lib/../lib/crt1.o
 .debug_info    0x000000000000025d     0x1ada file.o
 .debug_info    0x0000000000001d37      0xc26 log.o
 .debug_info    0x000000000000295d     0x134d main.o
 .debug_info    0x0000000000003caa     0x1e81 mount.o
 .debug_info    0x0000000000005b2b     0x1644 tftp.o
 .debug_info    0x000000000000716f     0x222a httpd.o
 .debug_info    0x0000000000009399      0x92a httpd_flash.o
 .debug_info    0x0000000000009cc3      0xad3 httpd_fuse.o
 .debug_info    0x000000000000a796      0x91b httpd_index.o
 .debug_info    0x000000000000b0b1      0xa5a httpd_keyvault.o
 .debug_info    0x000000000000bb0b     0x1bee kbootconf.o
 .debug_info    0x000000000000d6f9      0xaa9 puff.o
 .debug_info    0x000000000000e1a2       0xef /usr/local/xenon/usr/lib/libxenon.a(argv.o)
 .debug_info    0x000000000000e291      0x6df /usr/local/xenon/usr/lib/libxenon.a(console.o)
 .debug_info    0x000000000000e970     0x2617 /usr/local/xenon/usr/lib/libxenon.a(ata.o)
 .debug_info    0x0000000000010f87     0x2b98 /usr/local/xenon/usr/lib/libxenon.a(iso9660.o)
 .debug_info    0x0000000000013b1f      0x363 /usr/local/xenon/usr/lib/libxenon.a(input.o)
 .debug_info    0x0000000000013e82     0x3450 /usr/local/xenon/usr/lib/libxenon.a(newlib.o)
 .debug_info    0x00000000000172d2     0x1352 /usr/local/xenon/usr/lib/libxenon.a(xenon_syscalls.o)
 .debug_info    0x0000000000018624      0x55e /usr/local/xenon/usr/lib/libxenon.a(c_except.o)
 .debug_info    0x0000000000018b82      0x448 /usr/local/xenon/usr/lib/libxenon.a(vm.o)
 .debug_info    0x0000000000018fca      0x1c9 /usr/local/xenon/usr/lib/libxenon.a(time.o)
 .debug_info    0x0000000000019193     0x17c2 /usr/local/xenon/usr/lib/libxenon.a(usbctrl.o)
 .debug_info    0x000000000001a955     0x201a /usr/local/xenon/usr/lib/libxenon.a(usbd.o)
 .debug_info    0x000000000001c96f      0xa5b /usr/local/xenon/usr/lib/libxenon.a(usbdevs.o)
 .debug_info    0x000000000001d3ca     0x10c2 /usr/local/xenon/usr/lib/libxenon.a(usbhid.o)
 .debug_info    0x000000000001e48c     0x1f93 /usr/local/xenon/usr/lib/libxenon.a(usbhub.o)
 .debug_info    0x000000000002041f      0xc4d /usr/local/xenon/usr/lib/libxenon.a(usbmain.o)
 .debug_info    0x000000000002106c     0x540c /usr/local/xenon/usr/lib/libxenon.a(tinyehci.o)
 .debug_info    0x0000000000026478      0x570 /usr/local/xenon/usr/lib/libxenon.a(debug.o)
 .debug_info    0x00000000000269e8      0xab7 /usr/local/xenon/usr/lib/libxenon.a(xenon_smc.o)
 .debug_info    0x000000000002749f      0xdd0 /usr/local/xenon/usr/lib/libxenon.a(xenon_power.o)
 .debug_info    0x000000000002826f       0xb8 /usr/local/xenon/usr/lib/libxenon.a(xenon_secotp.o)
 .debug_info    0x0000000000028327      0x705 /usr/local/xenon/usr/lib/libxenon.a(sound.o)
 .debug_info    0x0000000000028a2c      0x13e /usr/local/xenon/usr/lib/libxenon.a(xenon_uart.o)
 .debug_info    0x0000000000028b6a     0x16be /usr/local/xenon/usr/lib/libxenon.a(xenon_sfcx.o)
 .debug_info    0x000000000002a228      0x60a /usr/local/xenon/usr/lib/libxenon.a(xenon_config.o)
 .debug_info    0x000000000002a832     0x4406 /usr/local/xenon/usr/lib/libxenon.a(xenos.o)
 .debug_info    0x000000000002ec38      0xce3 /usr/local/xenon/usr/lib/libxenon.a(xenos_edid.o)
 .debug_info    0x000000000002f91b      0x79c /usr/local/xenon/usr/lib/libxenon.a(mem.o)
 .debug_info    0x00000000000300b7     0x1298 /usr/local/xenon/usr/lib/libxenon.a(netif.o)
 .debug_info    0x000000000003134f     0x11b4 /usr/local/xenon/usr/lib/libxenon.a(pbuf.o)
 .debug_info    0x0000000000032503      0x2b6 /usr/local/xenon/usr/lib/libxenon.a(stats.o)
 .debug_info    0x00000000000327b9     0x2042 /usr/local/xenon/usr/lib/libxenon.a(tcp.o)
 .debug_info    0x00000000000347fb      0x674 /usr/local/xenon/usr/lib/libxenon.a(ip_addr.o)
 .debug_info    0x0000000000034e6f     0x100d /usr/local/xenon/usr/lib/libxenon.a(ip.o)
 .debug_info    0x0000000000035e7c     0x147f /usr/local/xenon/usr/lib/libxenon.a(ip_frag.o)
 .debug_info    0x00000000000372fb     0x1aa5 /usr/local/xenon/usr/lib/libxenon.a(tcp_out.o)
 .debug_info    0x0000000000038da0     0x1280 /usr/local/xenon/usr/lib/libxenon.a(udp.o)
 .debug_info    0x000000000003a020     0x18a4 /usr/local/xenon/usr/lib/libxenon.a(etharp.o)
 .debug_info    0x000000000003b8c4     0x2c93 /usr/local/xenon/usr/lib/libxenon.a(dhcp.o)
 .debug_info    0x000000000003e557      0xa77 /usr/local/xenon/usr/lib/libxenon.a(raw.o)
 .debug_info    0x000000000003efce       0x94 /usr/local/xenon/usr/lib/libxenon.a(timers.o)
 .debug_info    0x000000000003f062     0x13ad /usr/local/xenon/usr/lib/libxenon.a(enet.o)
 .debug_info    0x000000000004040f      0xbd2 /usr/local/xenon/usr/lib/libxenon.a(network.o)
 .debug_info    0x0000000000040fe1     0x19d9 /usr/local/xenon/usr/lib/libxenon.a(elf.o)
 .debug_info    0x00000000000429ba     0x19d2 /usr/local/xenon/usr/lib/libxenon.a(fdt_ro.o)
 .debug_info    0x000000000004438c     0x1fd6 /usr/local/xenon/usr/lib/libxenon.a(fdt_rw.o)
 .debug_info    0x0000000000046362     0x1df0 /usr/local/xenon/usr/lib/libxenon.a(xb360.o)
 .debug_info    0x0000000000048152      0x5a1 /usr/local/xenon/usr/lib/libxenon.a(lib_malloc.o)
 .debug_info    0x00000000000486f3      0x139 /usr/local/xenon/usr/lib/libxenon.a(io.o)
 .debug_info    0x000000000004882c      0x7df /usr/local/xenon/usr/lib/libxenon.a(dummy.o)
 .debug_info    0x000000000004900b     0x23b7 /usr/local/xenon/usr/lib/libxenon.a(ohci.o)
 .debug_info    0x000000000004b3c2     0x17d2 /usr/local/xenon/usr/lib/libxenon.a(usbdebug.o)
 .debug_info    0x000000000004cb94      0x53f /usr/local/xenon/usr/lib/libxenon.a(usb_os.o)
 .debug_info    0x000000000004d0d3      0x21b /usr/local/xenon/usr/lib/libxenon.a(xenon_gpio.o)
 .debug_info    0x000000000004d2ee       0xfa /usr/local/xenon/usr/lib/libxenon.a(init.o)
 .debug_info    0x000000000004d3e8     0x10d2 /usr/local/xenon/usr/lib/libxenon.a(tcp_in.o)
 .debug_info    0x000000000004e4ba      0x471 /usr/local/xenon/usr/lib/libxenon.a(inet_chksum.o)
 .debug_info    0x000000000004e92b      0xe7b /usr/local/xenon/usr/lib/libxenon.a(dns.o)
 .debug_info    0x000000000004f7a6      0x4c8 /usr/local/xenon/usr/lib/libxenon.a(memp.o)
 .debug_info    0x000000000004fc6e      0xa33 /usr/local/xenon/usr/lib/libxenon.a(icmp.o)
 .debug_info    0x00000000000506a1      0x6a5 /usr/local/xenon/usr/lib/libxenon.a(fdt.o)
 .debug_info    0x0000000000050d46      0x742 /usr/local/xenon/usr/lib/libxenon.a(hmac_sha1.o)
 .debug_info    0x0000000000051488      0x12c /usr/local/xenon/usr/lib/libxenon.a(rc4.o)
 .debug_info    0x00000000000515b4      0x407 /usr/local/xenon/usr/lib/libxenon.a(sha1.o)
 .debug_info    0x00000000000519bb      0x2a1 /usr/local/xenon/usr/lib/libxenon.a(lib_queue.o)
 .debug_info    0x0000000000051c5c     0x1d56 /usr/local/xenon/usr/lib/libfat.a(libfat.o)
 .debug_info    0x00000000000539b2     0x2596 /usr/local/xenon/usr/lib/libfat.a(partition.o)
 .debug_info    0x0000000000055f48      0xee2 /usr/local/xenon/usr/lib/libfat.a(cache.o)
 .debug_info    0x0000000000056e2a     0x2772 /usr/local/xenon/usr/lib/libfat.a(directory.o)
 .debug_info    0x000000000005959c      0x308 /usr/local/xenon/usr/lib/libfat.a(disc.o)
 .debug_info    0x00000000000598a4     0x26df /usr/local/xenon/usr/lib/libfat.a(fatdir.o)
 .debug_info    0x000000000005bf83     0x2cab /usr/local/xenon/usr/lib/libfat.a(fatfile.o)
 .debug_info    0x000000000005ec2e      0xd5a /usr/local/xenon/usr/lib/libfat.a(file_allocation_table.o)
 .debug_info    0x000000000005f988      0x2ac /usr/local/xenon/usr/lib/libfat.a(filetime.o)
 .debug_info    0x000000000005fc34      0x12d /usr/local/xenon/usr/lib/libfat.a(lock.o)
 .debug_info    0x000000000005fd61      0xe27 /usr/local/xenon/usr/lib/libxtaf.a(xtaf.o)
 .debug_info    0x0000000000060b88     0x1e1d /usr/local/xenon/usr/lib/libxtaf.a(xtaf_partition.o)
 .debug_info    0x00000000000629a5      0x312 /usr/local/xenon/usr/lib/libxtaf.a(xtaf_util.o)
 .debug_info    0x0000000000062cb7      0xdbc /usr/local/xenon/usr/lib/libxtaf.a(cache.o)
 .debug_info    0x0000000000063a73     0x184b /usr/local/xenon/usr/lib/libxtaf.a(xtaf_dir.o)
 .debug_info    0x00000000000652be     0x1f6b /usr/local/xenon/usr/lib/libxtaf.a(xtaf_file.o)
 .debug_info    0x0000000000067229      0x1b0 /usr/local/xenon/xenon/lib/32/libm.a(lib_a-s_ceil.o)
 .debug_info    0x00000000000673d9      0x1b0 /usr/local/xenon/xenon/lib/32/libm.a(lib_a-s_floor.o)
 .debug_info    0x0000000000067589       0x91 /usr/local/xenon/lib/gcc/xenon/4.7.1/32/libgcc.a(crtsavgpr.o)
 .debug_info    0x000000000006761a       0x92 /usr/local/xenon/lib/gcc/xenon/4.7.1/32/libgcc.a(crtresxgpr.o)
 .debug_info    0x00000000000676ac     0x3ad8 /usr/local/xenon/lib/gcc/xenon/4.7.1/32/libgcc.a(unwind-dw2-fde-dip.o)
 .debug_info    0x000000000006b184      0xa69 /usr/local/xenon/xenon/lib/32/libc.a(lib_a-assert.o)
 .debug_info    0x000000000006bbed      0xa20 /usr/local/xenon/xenon/lib/32/libc.a(lib_a-atoi.o)
 .debug_info    0x000000000006c60d      0x9bc /usr/local/xenon/xenon/lib/32/libc.a(lib_a-calloc.o)
 .debug_info    0x000000000006cfc9      0xac2 /usr/local/xenon/xenon/lib/32/libc.a(lib_a-callocr.o)
 .debug_info    0x000000000006da8b       0x71 /usr/local/xenon/xenon/lib/32/libc.a(lib_a-ctype_.o)
 .debug_info    0x000000000006dafc      0x95f /usr/local/xenon/xenon/lib/32/libc.a(lib_a-errno.o)
 .debug_info    0x000000000006e45b      0x9c0 /usr/local/xenon/xenon/lib/32/libc.a(lib_a-exit.o)
 .debug_info    0x000000000006ee1b      0xab1 /usr/local/xenon/xenon/lib/32/libc.a(lib_a-fclose.o)
 .debug_info    0x000000000006f8cc      0xb7d /usr/local/xenon/xenon/lib/32/libc.a(lib_a-fflush.o)
 .debug_info    0x0000000000070449      0xdf9 /usr/local/xenon/xenon/lib/32/libc.a(lib_a-findfp.o)
 .debug_info    0x0000000000071242      0xae7 /usr/local/xenon/xenon/lib/32/libc.a(lib_a-fiprintf.o)
 .debug_info    0x0000000000071d29      0xb52 /usr/local/xenon/xenon/lib/32/libc.a(lib_a-fopen.o)
 .debug_info    0x000000000007287b      0xae7 /usr/local/xenon/xenon/lib/32/libc.a(lib_a-fprintf.o)
 .debug_info    0x0000000000073362      0xb25 /usr/local/xenon/xenon/lib/32/libc.a(lib_a-fputs.o)
 .debug_info    0x0000000000073e87      0xbd3 /usr/local/xenon/xenon/lib/32/libc.a(lib_a-fread.o)
 .debug_info    0x0000000000074a5a      0xd26 /usr/local/xenon/xenon/lib/32/libc.a(lib_a-freer.o)
 .debug_info    0x0000000000075780      0xec2 /usr/local/xenon/xenon/lib/32/libc.a(lib_a-fseek.o)
 .debug_info    0x0000000000076642      0xb5c /usr/local/xenon/xenon/lib/32/libc.a(lib_a-fstatr.o)
 .debug_info    0x000000000007719e      0xa46 /usr/local/xenon/xenon/lib/32/libc.a(lib_a-ftell.o)
 .debug_info    0x0000000000077be4      0xd32 /usr/local/xenon/xenon/lib/32/libc.a(lib_a-fvwrite.o)
 .debug_info    0x0000000000078916      0xa7f /usr/local/xenon/xenon/lib/32/libc.a(lib_a-fwalk.o)
 .debug_info    0x0000000000079395      0xa0c /usr/local/xenon/xenon/lib/32/libc.a(lib_a-getenv.o)
 .debug_info    0x0000000000079da1      0xadd /usr/local/xenon/xenon/lib/32/libc.a(lib_a-getenv_r.o)
 .debug_info    0x000000000007a87e      0x965 /usr/local/xenon/xenon/lib/32/libc.a(lib_a-impure.o)
 .debug_info    0x000000000007b1e3      0x198 /usr/local/xenon/xenon/lib/32/libc.a(lib_a-lcltime_r.o)
 .debug_info    0x000000000007b37b      0xd11 /usr/local/xenon/xenon/lib/32/libc.a(lib_a-locale.o)
 .debug_info    0x000000000007c08c      0xbf0 /usr/local/xenon/xenon/lib/32/libc.a(lib_a-makebuf.o)
 .debug_info    0x000000000007cc7c      0x9be /usr/local/xenon/xenon/lib/32/libc.a(lib_a-malign.o)
 .debug_info    0x000000000007d63a      0xb56 /usr/local/xenon/xenon/lib/32/libc.a(lib_a-malignr.o)
 .debug_info    0x000000000007e190      0x9f8 /usr/local/xenon/xenon/lib/32/libc.a(lib_a-malloc.o)
 .debug_info    0x000000000007eb88      0xe85 /usr/local/xenon/xenon/lib/32/libc.a(lib_a-mallocr.o)
 .debug_info    0x000000000007fa0d      0xb4e /usr/local/xenon/xenon/lib/32/libc.a(lib_a-mbrtowc.o)
 .debug_info    0x000000000008055b      0xac1 /usr/local/xenon/xenon/lib/32/libc.a(lib_a-mbsrtowcs.o)
 .debug_info    0x000000000008101c      0xab4 /usr/local/xenon/xenon/lib/32/libc.a(lib_a-mbtowc_r.o)
 .debug_info    0x0000000000081ad0      0x130 /usr/local/xenon/xenon/lib/32/libc.a(lib_a-memchr.o)
 .debug_info    0x0000000000081c00      0x118 /usr/local/xenon/xenon/lib/32/libc.a(lib_a-memcmp.o)
 .debug_info    0x0000000000081d18      0x136 /usr/local/xenon/xenon/lib/32/libc.a(lib_a-memcpy.o)
 .debug_info    0x0000000000081e4e      0x136 /usr/local/xenon/xenon/lib/32/libc.a(lib_a-memmove.o)
 .debug_info    0x0000000000081f84      0x11c /usr/local/xenon/xenon/lib/32/libc.a(lib_a-memset.o)
 .debug_info    0x00000000000820a0      0x4aa /usr/local/xenon/xenon/lib/32/libc.a(lib_a-mktime.o)
 .debug_info    0x000000000008254a      0x48b /usr/local/xenon/xenon/lib/32/libc.a(lib_a-mktm_r.o)
 .debug_info    0x00000000000829d5      0x9df /usr/local/xenon/xenon/lib/32/libc.a(lib_a-openr.o)
 .debug_info    0x00000000000833b4      0xae1 /usr/local/xenon/xenon/lib/32/libc.a(lib_a-printf.o)
 .debug_info    0x0000000000083e95      0xa05 /usr/local/xenon/xenon/lib/32/libc.a(lib_a-putchar.o)
 .debug_info    0x000000000008489a      0xa53 /usr/local/xenon/xenon/lib/32/libc.a(lib_a-putc.o)
 .debug_info    0x00000000000852ed      0xae5 /usr/local/xenon/xenon/lib/32/libc.a(lib_a-puts.o)
 .debug_info    0x0000000000085dd2      0x981 /usr/local/xenon/xenon/lib/32/libc.a(lib_a-rand.o)
 .debug_info    0x0000000000086753      0x9bd /usr/local/xenon/xenon/lib/32/libc.a(lib_a-realloc.o)
 .debug_info    0x0000000000087110      0xdab /usr/local/xenon/xenon/lib/32/libc.a(lib_a-reallocr.o)
 .debug_info    0x0000000000087ebb      0xb23 /usr/local/xenon/xenon/lib/32/libc.a(lib_a-reent.o)
 .debug_info    0x00000000000889de      0xb35 /usr/local/xenon/xenon/lib/32/libc.a(lib_a-refill.o)
 .debug_info    0x0000000000089513      0x9d0 /usr/local/xenon/xenon/lib/32/libc.a(lib_a-sbrkr.o)
 .debug_info    0x0000000000089ee3      0x9d2 /usr/local/xenon/xenon/lib/32/libc.a(lib_a-setbuf.o)
 .debug_info    0x000000000008a8b5       0xb7 /usr/local/xenon/xenon/lib/32/libc.a(lib_a-setjmp.o)
 .debug_info    0x000000000008a96c      0xa79 /usr/local/xenon/xenon/lib/32/libc.a(lib_a-setvbuf.o)
 .debug_info    0x000000000008b3e5      0xb52 /usr/local/xenon/xenon/lib/32/libc.a(lib_a-snprintf.o)
 .debug_info    0x000000000008bf37      0xb14 /usr/local/xenon/xenon/lib/32/libc.a(lib_a-sprintf.o)
 .debug_info    0x000000000008ca4b      0xc7e /usr/local/xenon/xenon/lib/32/libc.a(lib_a-stdio.o)
 .debug_info    0x000000000008d6c9      0x118 /usr/local/xenon/xenon/lib/32/libc.a(lib_a-strcat.o)
 .debug_info    0x000000000008d7e1      0x11b /usr/local/xenon/xenon/lib/32/libc.a(lib_a-strchr.o)
 .debug_info    0x000000000008d8fc       0xe2 /usr/local/xenon/xenon/lib/32/libc.a(lib_a-strcmp.o)
 .debug_info    0x000000000008d9de      0x113 /usr/local/xenon/xenon/lib/32/libc.a(lib_a-strcpy.o)
 .debug_info    0x000000000008daf1      0x998 /usr/local/xenon/xenon/lib/32/libc.a(lib_a-strdup.o)
 .debug_info    0x000000000008e489      0xa3f /usr/local/xenon/xenon/lib/32/libc.a(lib_a-strdup_r.o)
 .debug_info    0x000000000008eec8      0x13d /usr/local/xenon/xenon/lib/32/libc.a(lib_a-strlcat.o)
 .debug_info    0x000000000008f005      0x101 /usr/local/xenon/xenon/lib/32/libc.a(lib_a-strlcpy.o)
 .debug_info    0x000000000008f106       0xe2 /usr/local/xenon/xenon/lib/32/libc.a(lib_a-strlen.o)
 .debug_info    0x000000000008f1e8      0x170 /usr/local/xenon/xenon/lib/32/libc.a(lib_a-strncasecmp.o)
 .debug_info    0x000000000008f358       0xfa /usr/local/xenon/xenon/lib/32/libc.a(lib_a-strncmp.o)
 .debug_info    0x000000000008f452      0x129 /usr/local/xenon/xenon/lib/32/libc.a(lib_a-strncpy.o)
 .debug_info    0x000000000008f57b       0xd6 /usr/local/xenon/xenon/lib/32/libc.a(lib_a-strnlen.o)
 .debug_info    0x000000000008f651       0xcd /usr/local/xenon/xenon/lib/32/libc.a(lib_a-strpbrk.o)
 .debug_info    0x000000000008f71e      0x10a /usr/local/xenon/xenon/lib/32/libc.a(lib_a-strrchr.o)
 .debug_info    0x000000000008f828      0x9c5 /usr/local/xenon/xenon/lib/32/libc.a(lib_a-strtok.o)
 .debug_info    0x00000000000901ed      0x18a /usr/local/xenon/xenon/lib/32/libc.a(lib_a-strtok_r.o)
 .debug_info    0x0000000000090377      0xa85 /usr/local/xenon/xenon/lib/32/libc.a(lib_a-strtol.o)
 .debug_info    0x0000000000090dfc      0x9d2 /usr/local/xenon/xenon/lib/32/libc.a(lib_a-strtoull.o)
 .debug_info    0x00000000000917ce      0xa0f /usr/local/xenon/xenon/lib/32/libc.a(lib_a-strtoull_r.o)
 .debug_info    0x00000000000921dd     0x1778 /usr/local/xenon/xenon/lib/32/libc.a(lib_a-svfprintf.o)
 .debug_info    0x0000000000093955      0xb68 /usr/local/xenon/xenon/lib/32/libc.a(lib_a-system.o)
 .debug_info    0x00000000000944bd      0x9fc /usr/local/xenon/xenon/lib/32/libc.a(lib_a-time.o)
 .debug_info    0x0000000000094eb9       0xe0 /usr/local/xenon/xenon/lib/32/libc.a(lib_a-towlower.o)
 .debug_info    0x0000000000094f99       0xe0 /usr/local/xenon/xenon/lib/32/libc.a(lib_a-towupper.o)
 .debug_info    0x0000000000095079       0xb0 /usr/local/xenon/xenon/lib/32/libc.a(lib_a-tzlock.o)
 .debug_info    0x0000000000095129       0xbe /usr/local/xenon/xenon/lib/32/libc.a(lib_a-tzvars.o)
 .debug_info    0x00000000000951e7     0x12cb /usr/local/xenon/xenon/lib/32/libc.a(lib_a-vfiprintf.o)
 .debug_info    0x00000000000964b2     0x1953 /usr/local/xenon/xenon/lib/32/libc.a(lib_a-vfprintf.o)
 .debug_info    0x0000000000097e05      0xad6 /usr/local/xenon/xenon/lib/32/libc.a(lib_a-vsprintf.o)
 .debug_info    0x00000000000988db      0xa9c /usr/local/xenon/xenon/lib/32/libc.a(lib_a-wbuf.o)
 .debug_info    0x0000000000099377      0xb3d /usr/local/xenon/xenon/lib/32/libc.a(lib_a-wcrtomb.o)
 .debug_info    0x0000000000099eb4      0xa5f /usr/local/xenon/xenon/lib/32/libc.a(lib_a-wctob.o)
 .debug_info    0x000000000009a913      0xa82 /usr/local/xenon/xenon/lib/32/libc.a(lib_a-wctomb_r.o)
 .debug_info    0x000000000009b395      0x9ff /usr/local/xenon/xenon/lib/32/libc.a(lib_a-writer.o)
 .debug_info    0x000000000009bd94      0xa01 /usr/local/xenon/xenon/lib/32/libc.a(lib_a-wsetup.o)
 .debug_info    0x000000000009c795      0xa26 /usr/local/xenon/xenon/lib/32/libc.a(lib_a-__call_atexit.o)
 .debug_info    0x000000000009d1bb      0x9ac /usr/local/xenon/xenon/lib/32/libc.a(lib_a-closer.o)
 .debug_info    0x000000000009db67       0xed /usr/local/xenon/xenon/lib/32/libc.a(lib_a-div.o)
 .debug_info    0x000000000009dc54     0x143b /usr/local/xenon/xenon/lib/32/libc.a(lib_a-dtoa.o)
 .debug_info    0x000000000009f08f       0x6b /usr/local/xenon/xenon/lib/32/libc.a(lib_a-environ.o)
 .debug_info    0x000000000009f0fa      0x98b /usr/local/xenon/xenon/lib/32/libc.a(lib_a-envlock.o)
 .debug_info    0x000000000009fa85      0xac4 /usr/local/xenon/xenon/lib/32/libc.a(lib_a-execr.o)
 .debug_info    0x00000000000a0549      0x9a7 /usr/local/xenon/xenon/lib/32/libc.a(lib_a-flags.o)
 .debug_info    0x00000000000a0ef0      0xb76 /usr/local/xenon/xenon/lib/32/libc.a(lib_a-fputwc.o)
 .debug_info    0x00000000000a1a66      0xa0e /usr/local/xenon/xenon/lib/32/libc.a(lib_a-gettimeofdayr.o)
 .debug_info    0x00000000000a2474      0x179 /usr/local/xenon/xenon/lib/32/libc.a(lib_a-gettzinfo.o)
 .debug_info    0x00000000000a25ed      0x9ac /usr/local/xenon/xenon/lib/32/libc.a(lib_a-isattyr.o)
 .debug_info    0x00000000000a2f99      0x9f8 /usr/local/xenon/xenon/lib/32/libc.a(lib_a-lseekr.o)
 .debug_info    0x00000000000a3991      0xb15 /usr/local/xenon/xenon/lib/32/libc.a(lib_a-mbsnrtowcs.o)
 .debug_info    0x00000000000a44a6     0x172f /usr/local/xenon/xenon/lib/32/libc.a(lib_a-mprec.o)
 .debug_info    0x00000000000a5bd5      0x9f8 /usr/local/xenon/xenon/lib/32/libc.a(lib_a-readr.o)
 .debug_info    0x00000000000a65cd      0x145 /usr/local/xenon/xenon/lib/32/libc.a(lib_a-s_fpclassify.o)
 .debug_info    0x00000000000a6712     0x1119 /usr/local/xenon/xenon/lib/32/libc.a(lib_a-svfiprintf.o)
 .debug_info    0x00000000000a782b      0x597 /usr/local/xenon/lib/gcc/xenon/4.7.1/32/libgcc.a(_udivdi3.o)
 .debug_info    0x00000000000a7dc2      0x59b /usr/local/xenon/lib/gcc/xenon/4.7.1/32/libgcc.a(_umoddi3.o)

.debug_abbrev   0x0000000000000000    0x1cb09
 .debug_abbrev  0x0000000000000000      0x153 /usr/local/xenon/lib/gcc/xenon/4.7.1/../../../../xenon/lib/../lib/crt1.o
 .debug_abbrev  0x0000000000000153      0x3a9 file.o
 .debug_abbrev  0x00000000000004fc      0x2bf log.o
 .debug_abbrev  0x00000000000007bb      0x383 main.o
 .debug_abbrev  0x0000000000000b3e      0x408 mount.o
 .debug_abbrev  0x0000000000000f46      0x3c5 tftp.o
 .debug_abbrev  0x000000000000130b      0x5e4 httpd.o
 .debug_abbrev  0x00000000000018ef      0x21a httpd_flash.o
 .debug_abbrev  0x0000000000001b09      0x286 httpd_fuse.o
 .debug_abbrev  0x0000000000001d8f      0x294 httpd_index.o
 .debug_abbrev  0x0000000000002023      0x244 httpd_keyvault.o
 .debug_abbrev  0x0000000000002267      0x3ef kbootconf.o
 .debug_abbrev  0x0000000000002656      0x2c4 puff.o
 .debug_abbrev  0x000000000000291a       0x7a /usr/local/xenon/usr/lib/libxenon.a(argv.o)
 .debug_abbrev  0x0000000000002994      0x2fe /usr/local/xenon/usr/lib/libxenon.a(console.o)
 .debug_abbrev  0x0000000000002c92      0x539 /usr/local/xenon/usr/lib/libxenon.a(ata.o)
 .debug_abbrev  0x00000000000031cb      0x59f /usr/local/xenon/usr/lib/libxenon.a(iso9660.o)
 .debug_abbrev  0x000000000000376a      0x172 /usr/local/xenon/usr/lib/libxenon.a(input.o)
 .debug_abbrev  0x00000000000038dc      0x5f3 /usr/local/xenon/usr/lib/libxenon.a(newlib.o)
 .debug_abbrev  0x0000000000003ecf      0x3cd /usr/local/xenon/usr/lib/libxenon.a(xenon_syscalls.o)
 .debug_abbrev  0x000000000000429c      0x220 /usr/local/xenon/usr/lib/libxenon.a(c_except.o)
 .debug_abbrev  0x00000000000044bc      0x1cc /usr/local/xenon/usr/lib/libxenon.a(vm.o)
 .debug_abbrev  0x0000000000004688      0x110 /usr/local/xenon/usr/lib/libxenon.a(time.o)
 .debug_abbrev  0x0000000000004798      0x393 /usr/local/xenon/usr/lib/libxenon.a(usbctrl.o)
 .debug_abbrev  0x0000000000004b2b      0x3c8 /usr/local/xenon/usr/lib/libxenon.a(usbd.o)
 .debug_abbrev  0x0000000000004ef3      0x1d7 /usr/local/xenon/usr/lib/libxenon.a(usbdevs.o)
 .debug_abbrev  0x00000000000050ca      0x2ac /usr/local/xenon/usr/lib/libxenon.a(usbhid.o)
 .debug_abbrev  0x0000000000005376      0x40d /usr/local/xenon/usr/lib/libxenon.a(usbhub.o)
 .debug_abbrev  0x0000000000005783      0x2a5 /usr/local/xenon/usr/lib/libxenon.a(usbmain.o)
 .debug_abbrev  0x0000000000005a28      0x62a /usr/local/xenon/usr/lib/libxenon.a(tinyehci.o)
 .debug_abbrev  0x0000000000006052      0x1ac /usr/local/xenon/usr/lib/libxenon.a(debug.o)
 .debug_abbrev  0x00000000000061fe      0x28c /usr/local/xenon/usr/lib/libxenon.a(xenon_smc.o)
 .debug_abbrev  0x000000000000648a      0x413 /usr/local/xenon/usr/lib/libxenon.a(xenon_power.o)
 .debug_abbrev  0x000000000000689d       0x62 /usr/local/xenon/usr/lib/libxenon.a(xenon_secotp.o)
 .debug_abbrev  0x00000000000068ff      0x1a1 /usr/local/xenon/usr/lib/libxenon.a(sound.o)
 .debug_abbrev  0x0000000000006aa0       0xd4 /usr/local/xenon/usr/lib/libxenon.a(xenon_uart.o)
 .debug_abbrev  0x0000000000006b74      0x3c1 /usr/local/xenon/usr/lib/libxenon.a(xenon_sfcx.o)
 .debug_abbrev  0x0000000000006f35      0x23c /usr/local/xenon/usr/lib/libxenon.a(xenon_config.o)
 .debug_abbrev  0x0000000000007171      0x49c /usr/local/xenon/usr/lib/libxenon.a(xenos.o)
 .debug_abbrev  0x000000000000760d      0x319 /usr/local/xenon/usr/lib/libxenon.a(xenos_edid.o)
 .debug_abbrev  0x0000000000007926      0x23f /usr/local/xenon/usr/lib/libxenon.a(mem.o)
 .debug_abbrev  0x0000000000007b65      0x360 /usr/local/xenon/usr/lib/libxenon.a(netif.o)
 .debug_abbrev  0x0000000000007ec5      0x2a7 /usr/local/xenon/usr/lib/libxenon.a(pbuf.o)
 .debug_abbrev  0x000000000000816c       0xc6 /usr/local/xenon/usr/lib/libxenon.a(stats.o)
 .debug_abbrev  0x0000000000008232      0x51b /usr/local/xenon/usr/lib/libxenon.a(tcp.o)
 .debug_abbrev  0x000000000000874d      0x234 /usr/local/xenon/usr/lib/libxenon.a(ip_addr.o)
 .debug_abbrev  0x0000000000008981      0x27b /usr/local/xenon/usr/lib/libxenon.a(ip.o)
 .debug_abbrev  0x0000000000008bfc      0x3d6 /usr/local/xenon/usr/lib/libxenon.a(ip_frag.o)
 .debug_abbrev  0x0000000000008fd2      0x480 /usr/local/xenon/usr/lib/libxenon.a(tcp_out.o)
 .debug_abbrev  0x0000000000009452      0x2c5 /usr/local/xenon/usr/lib/libxenon.a(udp.o)
 .debug_abbrev  0x0000000000009717      0x3bc /usr/local/xenon/usr/lib/libxenon.a(etharp.o)
 .debug_abbrev  0x0000000000009ad3      0x423 /usr/local/xenon/usr/lib/libxenon.a(dhcp.o)
 .debug_abbrev  0x0000000000009ef6      0x29c /usr/local/xenon/usr/lib/libxenon.a(raw.o)
 .debug_abbrev  0x000000000000a192       0x44 /usr/local/xenon/usr/lib/libxenon.a(timers.o)
 .debug_abbrev  0x000000000000a1d6      0x403 /usr/local/xenon/usr/lib/libxenon.a(enet.o)
 .debug_abbrev  0x000000000000a5d9      0x279 /usr/local/xenon/usr/lib/libxenon.a(network.o)
 .debug_abbrev  0x000000000000a852      0x3cc /usr/local/xenon/usr/lib/libxenon.a(elf.o)
 .debug_abbrev  0x000000000000ac1e      0x409 /usr/local/xenon/usr/lib/libxenon.a(fdt_ro.o)
 .debug_abbrev  0x000000000000b027      0x42b /usr/local/xenon/usr/lib/libxenon.a(fdt_rw.o)
 .debug_abbrev  0x000000000000b452      0x3c2 /usr/local/xenon/usr/lib/libxenon.a(xb360.o)
 .debug_abbrev  0x000000000000b814      0x2ad /usr/local/xenon/usr/lib/libxenon.a(lib_malloc.o)
 .debug_abbrev  0x000000000000bac1       0xb4 /usr/local/xenon/usr/lib/libxenon.a(io.o)
 .debug_abbrev  0x000000000000bb75      0x113 /usr/local/xenon/usr/lib/libxenon.a(dummy.o)
 .debug_abbrev  0x000000000000bc88      0x395 /usr/local/xenon/usr/lib/libxenon.a(ohci.o)
 .debug_abbrev  0x000000000000c01d      0x2ee /usr/local/xenon/usr/lib/libxenon.a(usbdebug.o)
 .debug_abbrev  0x000000000000c30b      0x15f /usr/local/xenon/usr/lib/libxenon.a(usb_os.o)
 .debug_abbrev  0x000000000000c46a       0xf5 /usr/local/xenon/usr/lib/libxenon.a(xenon_gpio.o)
 .debug_abbrev  0x000000000000c55f       0x70 /usr/local/xenon/usr/lib/libxenon.a(init.o)
 .debug_abbrev  0x000000000000c5cf      0x34f /usr/local/xenon/usr/lib/libxenon.a(tcp_in.o)
 .debug_abbrev  0x000000000000c91e      0x188 /usr/local/xenon/usr/lib/libxenon.a(inet_chksum.o)
 .debug_abbrev  0x000000000000caa6      0x3b5 /usr/local/xenon/usr/lib/libxenon.a(dns.o)
 .debug_abbrev  0x000000000000ce5b      0x1bb /usr/local/xenon/usr/lib/libxenon.a(memp.o)
 .debug_abbrev  0x000000000000d016      0x28f /usr/local/xenon/usr/lib/libxenon.a(icmp.o)
 .debug_abbrev  0x000000000000d2a5      0x1c0 /usr/local/xenon/usr/lib/libxenon.a(fdt.o)
 .debug_abbrev  0x000000000000d465      0x218 /usr/local/xenon/usr/lib/libxenon.a(hmac_sha1.o)
 .debug_abbrev  0x000000000000d67d       0xc1 /usr/local/xenon/usr/lib/libxenon.a(rc4.o)
 .debug_abbrev  0x000000000000d73e      0x185 /usr/local/xenon/usr/lib/libxenon.a(sha1.o)
 .debug_abbrev  0x000000000000d8c3      0x15f /usr/local/xenon/usr/lib/libxenon.a(lib_queue.o)
 .debug_abbrev  0x000000000000da22      0x3cb /usr/local/xenon/usr/lib/libfat.a(libfat.o)
 .debug_abbrev  0x000000000000dded      0x48a /usr/local/xenon/usr/lib/libfat.a(partition.o)
 .debug_abbrev  0x000000000000e277      0x336 /usr/local/xenon/usr/lib/libfat.a(cache.o)
 .debug_abbrev  0x000000000000e5ad      0x4ce /usr/local/xenon/usr/lib/libfat.a(directory.o)
 .debug_abbrev  0x000000000000ea7b       0xf0 /usr/local/xenon/usr/lib/libfat.a(disc.o)
 .debug_abbrev  0x000000000000eb6b      0x398 /usr/local/xenon/usr/lib/libfat.a(fatdir.o)
 .debug_abbrev  0x000000000000ef03      0x4c2 /usr/local/xenon/usr/lib/libfat.a(fatfile.o)
 .debug_abbrev  0x000000000000f3c5      0x309 /usr/local/xenon/usr/lib/libfat.a(file_allocation_table.o)
 .debug_abbrev  0x000000000000f6ce       0xf0 /usr/local/xenon/usr/lib/libfat.a(filetime.o)
 .debug_abbrev  0x000000000000f7be       0x7f /usr/local/xenon/usr/lib/libfat.a(lock.o)
 .debug_abbrev  0x000000000000f83d      0x2a2 /usr/local/xenon/usr/lib/libxtaf.a(xtaf.o)
 .debug_abbrev  0x000000000000fadf      0x36e /usr/local/xenon/usr/lib/libxtaf.a(xtaf_partition.o)
 .debug_abbrev  0x000000000000fe4d      0x16e /usr/local/xenon/usr/lib/libxtaf.a(xtaf_util.o)
 .debug_abbrev  0x000000000000ffbb      0x323 /usr/local/xenon/usr/lib/libxtaf.a(cache.o)
 .debug_abbrev  0x00000000000102de      0x2bd /usr/local/xenon/usr/lib/libxtaf.a(xtaf_dir.o)
 .debug_abbrev  0x000000000001059b      0x3cd /usr/local/xenon/usr/lib/libxtaf.a(xtaf_file.o)
 .debug_abbrev  0x0000000000010968       0xf6 /usr/local/xenon/xenon/lib/32/libm.a(lib_a-s_ceil.o)
 .debug_abbrev  0x0000000000010a5e       0xf6 /usr/local/xenon/xenon/lib/32/libm.a(lib_a-s_floor.o)
 .debug_abbrev  0x0000000000010b54       0x14 /usr/local/xenon/lib/gcc/xenon/4.7.1/32/libgcc.a(crtsavgpr.o)
 .debug_abbrev  0x0000000000010b68       0x14 /usr/local/xenon/lib/gcc/xenon/4.7.1/32/libgcc.a(crtresxgpr.o)
 .debug_abbrev  0x0000000000010b7c      0x50c /usr/local/xenon/lib/gcc/xenon/4.7.1/32/libgcc.a(unwind-dw2-fde-dip.o)
 .debug_abbrev  0x0000000000011088      0x1da /usr/local/xenon/xenon/lib/32/libc.a(lib_a-assert.o)
 .debug_abbrev  0x0000000000011262      0x1b3 /usr/local/xenon/xenon/lib/32/libc.a(lib_a-atoi.o)
 .debug_abbrev  0x0000000000011415      0x1be /usr/local/xenon/xenon/lib/32/libc.a(lib_a-calloc.o)
 .debug_abbrev  0x00000000000115d3      0x1f5 /usr/local/xenon/xenon/lib/32/libc.a(lib_a-callocr.o)
 .debug_abbrev  0x00000000000117c8       0x4e /usr/local/xenon/xenon/lib/32/libc.a(lib_a-ctype_.o)
 .debug_abbrev  0x0000000000011816      0x171 /usr/local/xenon/xenon/lib/32/libc.a(lib_a-errno.o)
 .debug_abbrev  0x0000000000011987      0x1c8 /usr/local/xenon/xenon/lib/32/libc.a(lib_a-exit.o)
 .debug_abbrev  0x0000000000011b4f      0x24e /usr/local/xenon/xenon/lib/32/libc.a(lib_a-fclose.o)
 .debug_abbrev  0x0000000000011d9d      0x259 /usr/local/xenon/xenon/lib/32/libc.a(lib_a-fflush.o)
 .debug_abbrev  0x0000000000011ff6      0x2f0 /usr/local/xenon/xenon/lib/32/libc.a(lib_a-findfp.o)
 .debug_abbrev  0x00000000000122e6      0x1de /usr/local/xenon/xenon/lib/32/libc.a(lib_a-fiprintf.o)
 .debug_abbrev  0x00000000000124c4      0x250 /usr/local/xenon/xenon/lib/32/libc.a(lib_a-fopen.o)
 .debug_abbrev  0x0000000000012714      0x1de /usr/local/xenon/xenon/lib/32/libc.a(lib_a-fprintf.o)
 .debug_abbrev  0x00000000000128f2      0x219 /usr/local/xenon/xenon/lib/32/libc.a(lib_a-fputs.o)
 .debug_abbrev  0x0000000000012b0b      0x24f /usr/local/xenon/xenon/lib/32/libc.a(lib_a-fread.o)
 .debug_abbrev  0x0000000000012d5a      0x25d /usr/local/xenon/xenon/lib/32/libc.a(lib_a-freer.o)
 .debug_abbrev  0x0000000000012fb7      0x2c4 /usr/local/xenon/xenon/lib/32/libc.a(lib_a-fseek.o)
 .debug_abbrev  0x000000000001327b      0x1ca /usr/local/xenon/xenon/lib/32/libc.a(lib_a-fstatr.o)
 .debug_abbrev  0x0000000000013445      0x210 /usr/local/xenon/xenon/lib/32/libc.a(lib_a-ftell.o)
 .debug_abbrev  0x0000000000013655      0x234 /usr/local/xenon/xenon/lib/32/libc.a(lib_a-fvwrite.o)
 .debug_abbrev  0x0000000000013889      0x1a7 /usr/local/xenon/xenon/lib/32/libc.a(lib_a-fwalk.o)
 .debug_abbrev  0x0000000000013a30      0x1c9 /usr/local/xenon/xenon/lib/32/libc.a(lib_a-getenv.o)
 .debug_abbrev  0x0000000000013bf9      0x217 /usr/local/xenon/xenon/lib/32/libc.a(lib_a-getenv_r.o)
 .debug_abbrev  0x0000000000013e10      0x162 /usr/local/xenon/xenon/lib/32/libc.a(lib_a-impure.o)
 .debug_abbrev  0x0000000000013f72       0xd3 /usr/local/xenon/xenon/lib/32/libc.a(lib_a-lcltime_r.o)
 .debug_abbrev  0x0000000000014045      0x270 /usr/local/xenon/xenon/lib/32/libc.a(lib_a-locale.o)
 .debug_abbrev  0x00000000000142b5      0x1e8 /usr/local/xenon/xenon/lib/32/libc.a(lib_a-makebuf.o)
 .debug_abbrev  0x000000000001449d      0x1af /usr/local/xenon/xenon/lib/32/libc.a(lib_a-malign.o)
 .debug_abbrev  0x000000000001464c      0x20b /usr/local/xenon/xenon/lib/32/libc.a(lib_a-malignr.o)
 .debug_abbrev  0x0000000000014857      0x1dc /usr/local/xenon/xenon/lib/32/libc.a(lib_a-malloc.o)
 .debug_abbrev  0x0000000000014a33      0x284 /usr/local/xenon/xenon/lib/32/libc.a(lib_a-mallocr.o)
 .debug_abbrev  0x0000000000014cb7      0x1e6 /usr/local/xenon/xenon/lib/32/libc.a(lib_a-mbrtowc.o)
 .debug_abbrev  0x0000000000014e9d      0x1cb /usr/local/xenon/xenon/lib/32/libc.a(lib_a-mbsrtowcs.o)
 .debug_abbrev  0x0000000000015068      0x203 /usr/local/xenon/xenon/lib/32/libc.a(lib_a-mbtowc_r.o)
 .debug_abbrev  0x000000000001526b       0xab /usr/local/xenon/xenon/lib/32/libc.a(lib_a-memchr.o)
 .debug_abbrev  0x0000000000015316       0x7f /usr/local/xenon/xenon/lib/32/libc.a(lib_a-memcmp.o)
 .debug_abbrev  0x0000000000015395       0xab /usr/local/xenon/xenon/lib/32/libc.a(lib_a-memcpy.o)
 .debug_abbrev  0x0000000000015440       0xab /usr/local/xenon/xenon/lib/32/libc.a(lib_a-memmove.o)
 .debug_abbrev  0x00000000000154eb       0x9f /usr/local/xenon/xenon/lib/32/libc.a(lib_a-memset.o)
 .debug_abbrev  0x000000000001558a      0x1b7 /usr/local/xenon/xenon/lib/32/libc.a(lib_a-mktime.o)
 .debug_abbrev  0x0000000000015741      0x16d /usr/local/xenon/xenon/lib/32/libc.a(lib_a-mktm_r.o)
 .debug_abbrev  0x00000000000158ae      0x1cf /usr/local/xenon/xenon/lib/32/libc.a(lib_a-openr.o)
 .debug_abbrev  0x0000000000015a7d      0x1ed /usr/local/xenon/xenon/lib/32/libc.a(lib_a-printf.o)
 .debug_abbrev  0x0000000000015c6a      0x1cd /usr/local/xenon/xenon/lib/32/libc.a(lib_a-putchar.o)
 .debug_abbrev  0x0000000000015e37      0x206 /usr/local/xenon/xenon/lib/32/libc.a(lib_a-putc.o)
 .debug_abbrev  0x000000000001603d      0x208 /usr/local/xenon/xenon/lib/32/libc.a(lib_a-puts.o)
 .debug_abbrev  0x0000000000016245      0x19a /usr/local/xenon/xenon/lib/32/libc.a(lib_a-rand.o)
 .debug_abbrev  0x00000000000163df      0x1be /usr/local/xenon/xenon/lib/32/libc.a(lib_a-realloc.o)
 .debug_abbrev  0x000000000001659d      0x242 /usr/local/xenon/xenon/lib/32/libc.a(lib_a-reallocr.o)
 .debug_abbrev  0x00000000000167df      0x248 /usr/local/xenon/xenon/lib/32/libc.a(lib_a-reent.o)
 .debug_abbrev  0x0000000000016a27      0x24c /usr/local/xenon/xenon/lib/32/libc.a(lib_a-refill.o)
 .debug_abbrev  0x0000000000016c73      0x1df /usr/local/xenon/xenon/lib/32/libc.a(lib_a-sbrkr.o)
 .debug_abbrev  0x0000000000016e52      0x19c /usr/local/xenon/xenon/lib/32/libc.a(lib_a-setbuf.o)
 .debug_abbrev  0x0000000000016fee       0x14 /usr/local/xenon/xenon/lib/32/libc.a(lib_a-setjmp.o)
 .debug_abbrev  0x0000000000017002      0x217 /usr/local/xenon/xenon/lib/32/libc.a(lib_a-setvbuf.o)
 .debug_abbrev  0x0000000000017219      0x1e0 /usr/local/xenon/xenon/lib/32/libc.a(lib_a-snprintf.o)
 .debug_abbrev  0x00000000000173f9      0x1de /usr/local/xenon/xenon/lib/32/libc.a(lib_a-sprintf.o)
 .debug_abbrev  0x00000000000175d7      0x244 /usr/local/xenon/xenon/lib/32/libc.a(lib_a-stdio.o)
 .debug_abbrev  0x000000000001781b       0xb3 /usr/local/xenon/xenon/lib/32/libc.a(lib_a-strcat.o)
 .debug_abbrev  0x00000000000178ce       0x83 /usr/local/xenon/xenon/lib/32/libc.a(lib_a-strchr.o)
 .debug_abbrev  0x0000000000017951       0x74 /usr/local/xenon/xenon/lib/32/libc.a(lib_a-strcmp.o)
 .debug_abbrev  0x00000000000179c5       0x92 /usr/local/xenon/xenon/lib/32/libc.a(lib_a-strcpy.o)
 .debug_abbrev  0x0000000000017a57      0x1af /usr/local/xenon/xenon/lib/32/libc.a(lib_a-strdup.o)
 .debug_abbrev  0x0000000000017c06      0x1dc /usr/local/xenon/xenon/lib/32/libc.a(lib_a-strdup_r.o)
 .debug_abbrev  0x0000000000017de2       0xc1 /usr/local/xenon/xenon/lib/32/libc.a(lib_a-strlcat.o)
 .debug_abbrev  0x0000000000017ea3       0x8e /usr/local/xenon/xenon/lib/32/libc.a(lib_a-strlcpy.o)
 .debug_abbrev  0x0000000000017f31       0x81 /usr/local/xenon/xenon/lib/32/libc.a(lib_a-strlen.o)
 .debug_abbrev  0x0000000000017fb2       0xb1 /usr/local/xenon/xenon/lib/32/libc.a(lib_a-strncasecmp.o)
 .debug_abbrev  0x0000000000018063       0x81 /usr/local/xenon/xenon/lib/32/libc.a(lib_a-strncmp.o)
 .debug_abbrev  0x00000000000180e4       0x9f /usr/local/xenon/xenon/lib/32/libc.a(lib_a-strncpy.o)
 .debug_abbrev  0x0000000000018183       0x7f /usr/local/xenon/xenon/lib/32/libc.a(lib_a-strnlen.o)
 .debug_abbrev  0x0000000000018202       0x81 /usr/local/xenon/xenon/lib/32/libc.a(lib_a-strpbrk.o)
 .debug_abbrev  0x0000000000018283       0xb5 /usr/local/xenon/xenon/lib/32/libc.a(lib_a-strrchr.o)
 .debug_abbrev  0x0000000000018338      0x1c0 /usr/local/xenon/xenon/lib/32/libc.a(lib_a-strtok.o)
 .debug_abbrev  0x00000000000184f8       0xed /usr/local/xenon/xenon/lib/32/libc.a(lib_a-strtok_r.o)
 .debug_abbrev  0x00000000000185e5      0x1e9 /usr/local/xenon/xenon/lib/32/libc.a(lib_a-strtol.o)
 .debug_abbrev  0x00000000000187ce      0x1be /usr/local/xenon/xenon/lib/32/libc.a(lib_a-strtoull.o)
 .debug_abbrev  0x000000000001898c      0x1a0 /usr/local/xenon/xenon/lib/32/libc.a(lib_a-strtoull_r.o)
 .debug_abbrev  0x0000000000018b2c      0x344 /usr/local/xenon/xenon/lib/32/libc.a(lib_a-svfprintf.o)
 .debug_abbrev  0x0000000000018e70      0x26d /usr/local/xenon/xenon/lib/32/libc.a(lib_a-system.o)
 .debug_abbrev  0x00000000000190dd      0x1bd /usr/local/xenon/xenon/lib/32/libc.a(lib_a-time.o)
 .debug_abbrev  0x000000000001929a       0x99 /usr/local/xenon/xenon/lib/32/libc.a(lib_a-towlower.o)
 .debug_abbrev  0x0000000000019333       0x99 /usr/local/xenon/xenon/lib/32/libc.a(lib_a-towupper.o)
 .debug_abbrev  0x00000000000193cc       0x51 /usr/local/xenon/xenon/lib/32/libc.a(lib_a-tzlock.o)
 .debug_abbrev  0x000000000001941d       0x52 /usr/local/xenon/xenon/lib/32/libc.a(lib_a-tzvars.o)
 .debug_abbrev  0x000000000001946f      0x3b7 /usr/local/xenon/xenon/lib/32/libc.a(lib_a-vfiprintf.o)
 .debug_abbrev  0x0000000000019826      0x39b /usr/local/xenon/xenon/lib/32/libc.a(lib_a-vfprintf.o)
 .debug_abbrev  0x0000000000019bc1      0x1e7 /usr/local/xenon/xenon/lib/32/libc.a(lib_a-vsprintf.o)
 .debug_abbrev  0x0000000000019da8      0x21a /usr/local/xenon/xenon/lib/32/libc.a(lib_a-wbuf.o)
 .debug_abbrev  0x0000000000019fc2      0x1f5 /usr/local/xenon/xenon/lib/32/libc.a(lib_a-wcrtomb.o)
 .debug_abbrev  0x000000000001a1b7      0x1fa /usr/local/xenon/xenon/lib/32/libc.a(lib_a-wctob.o)
 .debug_abbrev  0x000000000001a3b1      0x210 /usr/local/xenon/xenon/lib/32/libc.a(lib_a-wctomb_r.o)
 .debug_abbrev  0x000000000001a5c1      0x1c0 /usr/local/xenon/xenon/lib/32/libc.a(lib_a-writer.o)
 .debug_abbrev  0x000000000001a781      0x1d5 /usr/local/xenon/xenon/lib/32/libc.a(lib_a-wsetup.o)
 .debug_abbrev  0x000000000001a956      0x1f2 /usr/local/xenon/xenon/lib/32/libc.a(lib_a-__call_atexit.o)
 .debug_abbrev  0x000000000001ab48      0x1bb /usr/local/xenon/xenon/lib/32/libc.a(lib_a-closer.o)
 .debug_abbrev  0x000000000001ad03       0xa9 /usr/local/xenon/xenon/lib/32/libc.a(lib_a-div.o)
 .debug_abbrev  0x000000000001adac      0x291 /usr/local/xenon/xenon/lib/32/libc.a(lib_a-dtoa.o)
 .debug_abbrev  0x000000000001b03d       0x56 /usr/local/xenon/xenon/lib/32/libc.a(lib_a-environ.o)
 .debug_abbrev  0x000000000001b093      0x17e /usr/local/xenon/xenon/lib/32/libc.a(lib_a-envlock.o)
 .debug_abbrev  0x000000000001b211      0x1fd /usr/local/xenon/xenon/lib/32/libc.a(lib_a-execr.o)
 .debug_abbrev  0x000000000001b40e      0x18f /usr/local/xenon/xenon/lib/32/libc.a(lib_a-flags.o)
 .debug_abbrev  0x000000000001b59d      0x27a /usr/local/xenon/xenon/lib/32/libc.a(lib_a-fputwc.o)
 .debug_abbrev  0x000000000001b817      0x1ca /usr/local/xenon/xenon/lib/32/libc.a(lib_a-gettimeofdayr.o)
 .debug_abbrev  0x000000000001b9e1       0xa8 /usr/local/xenon/xenon/lib/32/libc.a(lib_a-gettzinfo.o)
 .debug_abbrev  0x000000000001ba89      0x1bb /usr/local/xenon/xenon/lib/32/libc.a(lib_a-isattyr.o)
 .debug_abbrev  0x000000000001bc44      0x1ca /usr/local/xenon/xenon/lib/32/libc.a(lib_a-lseekr.o)
 .debug_abbrev  0x000000000001be0e      0x1d8 /usr/local/xenon/xenon/lib/32/libc.a(lib_a-mbsnrtowcs.o)
 .debug_abbrev  0x000000000001bfe6      0x310 /usr/local/xenon/xenon/lib/32/libc.a(lib_a-mprec.o)
 .debug_abbrev  0x000000000001c2f6      0x1bb /usr/local/xenon/xenon/lib/32/libc.a(lib_a-readr.o)
 .debug_abbrev  0x000000000001c4b1       0xc8 /usr/local/xenon/xenon/lib/32/libc.a(lib_a-s_fpclassify.o)
 .debug_abbrev  0x000000000001c579      0x2c7 /usr/local/xenon/xenon/lib/32/libc.a(lib_a-svfiprintf.o)
 .debug_abbrev  0x000000000001c840      0x15d /usr/local/xenon/lib/gcc/xenon/4.7.1/32/libgcc.a(_udivdi3.o)
 .debug_abbrev  0x000000000001c99d      0x16c /usr/local/xenon/lib/gcc/xenon/4.7.1/32/libgcc.a(_umoddi3.o)

.debug_loc      0x0000000000000000    0x4ca43
 .debug_loc     0x0000000000000000       0x40 /usr/local/xenon/lib/gcc/xenon/4.7.1/../../../../xenon/lib/../lib/crt1.o
 .debug_loc     0x0000000000000040      0x4f8 file.o
 .debug_loc     0x0000000000000538       0xd7 log.o
 .debug_loc     0x000000000000060f      0x194 main.o
 .debug_loc     0x00000000000007a3      0x435 mount.o
 .debug_loc     0x0000000000000bd8      0x76c tftp.o
 .debug_loc     0x0000000000001344     0x1339 httpd.o
 .debug_loc     0x000000000000267d      0x329 httpd_flash.o
 .debug_loc     0x00000000000029a6      0x497 httpd_fuse.o
 .debug_loc     0x0000000000002e3d      0x2e4 httpd_index.o
 .debug_loc     0x0000000000003121      0x383 httpd_keyvault.o
 .debug_loc     0x00000000000034a4      0x706 kbootconf.o
 .debug_loc     0x0000000000003baa      0xa93 puff.o
 .debug_loc     0x000000000000463d      0x328 /usr/local/xenon/usr/lib/libxenon.a(console.o)
 .debug_loc     0x0000000000004965     0x1055 /usr/local/xenon/usr/lib/libxenon.a(ata.o)
 .debug_loc     0x00000000000059ba     0x13aa /usr/local/xenon/usr/lib/libxenon.a(iso9660.o)
 .debug_loc     0x0000000000006d64      0x182 /usr/local/xenon/usr/lib/libxenon.a(input.o)
 .debug_loc     0x0000000000006ee6     0x18d1 /usr/local/xenon/usr/lib/libxenon.a(newlib.o)
 .debug_loc     0x00000000000087b7      0x30a /usr/local/xenon/usr/lib/libxenon.a(xenon_syscalls.o)
 .debug_loc     0x0000000000008ac1      0x1f2 /usr/local/xenon/usr/lib/libxenon.a(c_except.o)
 .debug_loc     0x0000000000008cb3      0x390 /usr/local/xenon/usr/lib/libxenon.a(vm.o)
 .debug_loc     0x0000000000009043       0xaf /usr/local/xenon/usr/lib/libxenon.a(time.o)
 .debug_loc     0x00000000000090f2      0x93e /usr/local/xenon/usr/lib/libxenon.a(usbctrl.o)
 .debug_loc     0x0000000000009a30     0x148d /usr/local/xenon/usr/lib/libxenon.a(usbd.o)
 .debug_loc     0x000000000000aebd       0xc9 /usr/local/xenon/usr/lib/libxenon.a(usbdevs.o)
 .debug_loc     0x000000000000af86      0x366 /usr/local/xenon/usr/lib/libxenon.a(usbhid.o)
 .debug_loc     0x000000000000b2ec      0x92f /usr/local/xenon/usr/lib/libxenon.a(usbhub.o)
 .debug_loc     0x000000000000bc1b      0x114 /usr/local/xenon/usr/lib/libxenon.a(usbmain.o)
 .debug_loc     0x000000000000bd2f     0x408c /usr/local/xenon/usr/lib/libxenon.a(tinyehci.o)
 .debug_loc     0x000000000000fdbb      0x1e7 /usr/local/xenon/usr/lib/libxenon.a(debug.o)
 .debug_loc     0x000000000000ffa2      0x6f5 /usr/local/xenon/usr/lib/libxenon.a(xenon_smc.o)
 .debug_loc     0x0000000000010697      0x41e /usr/local/xenon/usr/lib/libxenon.a(xenon_power.o)
 .debug_loc     0x0000000000010ab5       0x21 /usr/local/xenon/usr/lib/libxenon.a(xenon_secotp.o)
 .debug_loc     0x0000000000010ad6      0x30d /usr/local/xenon/usr/lib/libxenon.a(sound.o)
 .debug_loc     0x0000000000010de3       0xb3 /usr/local/xenon/usr/lib/libxenon.a(xenon_uart.o)
 .debug_loc     0x0000000000010e96     0x1082 /usr/local/xenon/usr/lib/libxenon.a(xenon_sfcx.o)
 .debug_loc     0x0000000000011f18      0x1a7 /usr/local/xenon/usr/lib/libxenon.a(xenon_config.o)
 .debug_loc     0x00000000000120bf     0x1457 /usr/local/xenon/usr/lib/libxenon.a(xenos.o)
 .debug_loc     0x0000000000013516      0x523 /usr/local/xenon/usr/lib/libxenon.a(xenos_edid.o)
 .debug_loc     0x0000000000013a39      0x663 /usr/local/xenon/usr/lib/libxenon.a(mem.o)
 .debug_loc     0x000000000001409c      0x473 /usr/local/xenon/usr/lib/libxenon.a(netif.o)
 .debug_loc     0x000000000001450f     0x1715 /usr/local/xenon/usr/lib/libxenon.a(pbuf.o)
 .debug_loc     0x0000000000015c24      0xfe7 /usr/local/xenon/usr/lib/libxenon.a(tcp.o)
 .debug_loc     0x0000000000016c0b      0x517 /usr/local/xenon/usr/lib/libxenon.a(ip_addr.o)
 .debug_loc     0x0000000000017122      0x696 /usr/local/xenon/usr/lib/libxenon.a(ip.o)
 .debug_loc     0x00000000000177b8      0xd6f /usr/local/xenon/usr/lib/libxenon.a(ip_frag.o)
 .debug_loc     0x0000000000018527     0x1184 /usr/local/xenon/usr/lib/libxenon.a(tcp_out.o)
 .debug_loc     0x00000000000196ab      0x873 /usr/local/xenon/usr/lib/libxenon.a(udp.o)
 .debug_loc     0x0000000000019f1e      0xe4b /usr/local/xenon/usr/lib/libxenon.a(etharp.o)
 .debug_loc     0x000000000001ad69     0x179b /usr/local/xenon/usr/lib/libxenon.a(dhcp.o)
 .debug_loc     0x000000000001c504      0x3ca /usr/local/xenon/usr/lib/libxenon.a(raw.o)
 .debug_loc     0x000000000001c8ce      0x49e /usr/local/xenon/usr/lib/libxenon.a(enet.o)
 .debug_loc     0x000000000001cd6c      0x10f /usr/local/xenon/usr/lib/libxenon.a(network.o)
 .debug_loc     0x000000000001ce7b     0x108f /usr/local/xenon/usr/lib/libxenon.a(elf.o)
 .debug_loc     0x000000000001df0a     0x18d9 /usr/local/xenon/usr/lib/libxenon.a(fdt_ro.o)
 .debug_loc     0x000000000001f7e3     0x155f /usr/local/xenon/usr/lib/libxenon.a(fdt_rw.o)
 .debug_loc     0x0000000000020d42      0xa07 /usr/local/xenon/usr/lib/libxenon.a(xb360.o)
 .debug_loc     0x0000000000021749      0x3cb /usr/local/xenon/usr/lib/libxenon.a(lib_malloc.o)
 .debug_loc     0x0000000000021b14       0x42 /usr/local/xenon/usr/lib/libxenon.a(io.o)
 .debug_loc     0x0000000000021b56       0x42 /usr/local/xenon/usr/lib/libxenon.a(dummy.o)
 .debug_loc     0x0000000000021b98     0x1de6 /usr/local/xenon/usr/lib/libxenon.a(ohci.o)
 .debug_loc     0x000000000002397e      0x499 /usr/local/xenon/usr/lib/libxenon.a(usbdebug.o)
 .debug_loc     0x0000000000023e17      0x33e /usr/local/xenon/usr/lib/libxenon.a(usb_os.o)
 .debug_loc     0x0000000000024155      0x1ea /usr/local/xenon/usr/lib/libxenon.a(xenon_gpio.o)
 .debug_loc     0x000000000002433f       0x2c /usr/local/xenon/usr/lib/libxenon.a(init.o)
 .debug_loc     0x000000000002436b      0x248 /usr/local/xenon/usr/lib/libxenon.a(tcp_in.o)
 .debug_loc     0x00000000000245b3      0x7e8 /usr/local/xenon/usr/lib/libxenon.a(inet_chksum.o)
 .debug_loc     0x0000000000024d9b      0x859 /usr/local/xenon/usr/lib/libxenon.a(dns.o)
 .debug_loc     0x00000000000255f4      0x1a0 /usr/local/xenon/usr/lib/libxenon.a(memp.o)
 .debug_loc     0x0000000000025794      0x193 /usr/local/xenon/usr/lib/libxenon.a(icmp.o)
 .debug_loc     0x0000000000025927      0x559 /usr/local/xenon/usr/lib/libxenon.a(fdt.o)
 .debug_loc     0x0000000000025e80      0x38b /usr/local/xenon/usr/lib/libxenon.a(hmac_sha1.o)
 .debug_loc     0x000000000002620b      0x127 /usr/local/xenon/usr/lib/libxenon.a(rc4.o)
 .debug_loc     0x0000000000026332      0xfb3 /usr/local/xenon/usr/lib/libxenon.a(sha1.o)
 .debug_loc     0x00000000000272e5      0x1ae /usr/local/xenon/usr/lib/libxenon.a(lib_queue.o)
 .debug_loc     0x0000000000027493      0x40b /usr/local/xenon/usr/lib/libfat.a(libfat.o)
 .debug_loc     0x000000000002789e      0x75e /usr/local/xenon/usr/lib/libfat.a(partition.o)
 .debug_loc     0x0000000000027ffc      0xe79 /usr/local/xenon/usr/lib/libfat.a(cache.o)
 .debug_loc     0x0000000000028e75     0x1aba /usr/local/xenon/usr/lib/libfat.a(directory.o)
 .debug_loc     0x000000000002a92f      0xd3d /usr/local/xenon/usr/lib/libfat.a(fatdir.o)
 .debug_loc     0x000000000002b66c     0x181a /usr/local/xenon/usr/lib/libfat.a(fatfile.o)
 .debug_loc     0x000000000002ce86      0xc6a /usr/local/xenon/usr/lib/libfat.a(file_allocation_table.o)
 .debug_loc     0x000000000002daf0       0xc9 /usr/local/xenon/usr/lib/libfat.a(filetime.o)
 .debug_loc     0x000000000002dbb9      0xd47 /usr/local/xenon/usr/lib/libxtaf.a(xtaf.o)
 .debug_loc     0x000000000002e900      0x77d /usr/local/xenon/usr/lib/libxtaf.a(xtaf_partition.o)
 .debug_loc     0x000000000002f07d       0xc7 /usr/local/xenon/usr/lib/libxtaf.a(xtaf_util.o)
 .debug_loc     0x000000000002f144     0x132e /usr/local/xenon/usr/lib/libxtaf.a(cache.o)
 .debug_loc     0x0000000000030472      0x384 /usr/local/xenon/usr/lib/libxtaf.a(xtaf_dir.o)
 .debug_loc     0x00000000000307f6      0xff1 /usr/local/xenon/usr/lib/libxtaf.a(xtaf_file.o)
 .debug_loc     0x00000000000317e7      0x254 /usr/local/xenon/xenon/lib/32/libm.a(lib_a-s_ceil.o)
 .debug_loc     0x0000000000031a3b      0x31a /usr/local/xenon/xenon/lib/32/libm.a(lib_a-s_floor.o)
 .debug_loc     0x0000000000031d55     0x23df /usr/local/xenon/lib/gcc/xenon/4.7.1/32/libgcc.a(unwind-dw2-fde-dip.o)
 .debug_loc     0x0000000000034134      0x17f /usr/local/xenon/xenon/lib/32/libc.a(lib_a-assert.o)
 .debug_loc     0x00000000000342b3       0x63 /usr/local/xenon/xenon/lib/32/libc.a(lib_a-atoi.o)
 .debug_loc     0x0000000000034316       0x84 /usr/local/xenon/xenon/lib/32/libc.a(lib_a-calloc.o)
 .debug_loc     0x000000000003439a      0x24b /usr/local/xenon/xenon/lib/32/libc.a(lib_a-callocr.o)
 .debug_loc     0x00000000000345e5       0x2c /usr/local/xenon/xenon/lib/32/libc.a(lib_a-errno.o)
 .debug_loc     0x0000000000034611       0x3e /usr/local/xenon/xenon/lib/32/libc.a(lib_a-exit.o)
 .debug_loc     0x000000000003464f      0x19d /usr/local/xenon/xenon/lib/32/libc.a(lib_a-fclose.o)
 .debug_loc     0x00000000000347ec      0x418 /usr/local/xenon/xenon/lib/32/libc.a(lib_a-fflush.o)
 .debug_loc     0x0000000000034c04      0x39d /usr/local/xenon/xenon/lib/32/libc.a(lib_a-findfp.o)
 .debug_loc     0x0000000000034fa1      0x115 /usr/local/xenon/xenon/lib/32/libc.a(lib_a-fiprintf.o)
 .debug_loc     0x00000000000350b6      0x272 /usr/local/xenon/xenon/lib/32/libc.a(lib_a-fopen.o)
 .debug_loc     0x0000000000035328      0x115 /usr/local/xenon/xenon/lib/32/libc.a(lib_a-fprintf.o)
 .debug_loc     0x000000000003543d      0x160 /usr/local/xenon/xenon/lib/32/libc.a(lib_a-fputs.o)
 .debug_loc     0x000000000003559d      0x48b /usr/local/xenon/xenon/lib/32/libc.a(lib_a-fread.o)
 .debug_loc     0x0000000000035a28      0x645 /usr/local/xenon/xenon/lib/32/libc.a(lib_a-freer.o)
 .debug_loc     0x000000000003606d      0x483 /usr/local/xenon/xenon/lib/32/libc.a(lib_a-fseek.o)
 .debug_loc     0x00000000000364f0       0xd6 /usr/local/xenon/xenon/lib/32/libc.a(lib_a-fstatr.o)
 .debug_loc     0x00000000000365c6      0x19d /usr/local/xenon/xenon/lib/32/libc.a(lib_a-ftell.o)
 .debug_loc     0x0000000000036763      0x629 /usr/local/xenon/xenon/lib/32/libc.a(lib_a-fvwrite.o)
 .debug_loc     0x0000000000036d8c      0x320 /usr/local/xenon/xenon/lib/32/libc.a(lib_a-fwalk.o)
 .debug_loc     0x00000000000370ac       0xdc /usr/local/xenon/xenon/lib/32/libc.a(lib_a-getenv.o)
 .debug_loc     0x0000000000037188      0x232 /usr/local/xenon/xenon/lib/32/libc.a(lib_a-getenv_r.o)
 .debug_loc     0x00000000000373ba       0x42 /usr/local/xenon/xenon/lib/32/libc.a(lib_a-lcltime_r.o)
 .debug_loc     0x00000000000373fc      0x279 /usr/local/xenon/xenon/lib/32/libc.a(lib_a-locale.o)
 .debug_loc     0x0000000000037675      0x16a /usr/local/xenon/xenon/lib/32/libc.a(lib_a-makebuf.o)
 .debug_loc     0x00000000000377df       0x84 /usr/local/xenon/xenon/lib/32/libc.a(lib_a-malign.o)
 .debug_loc     0x0000000000037863      0x2b3 /usr/local/xenon/xenon/lib/32/libc.a(lib_a-malignr.o)
 .debug_loc     0x0000000000037b16       0xb0 /usr/local/xenon/xenon/lib/32/libc.a(lib_a-malloc.o)
 .debug_loc     0x0000000000037bc6      0xd4b /usr/local/xenon/xenon/lib/32/libc.a(lib_a-mallocr.o)
 .debug_loc     0x0000000000038911      0x32a /usr/local/xenon/xenon/lib/32/libc.a(lib_a-mbrtowc.o)
 .debug_loc     0x0000000000038c3b      0x197 /usr/local/xenon/xenon/lib/32/libc.a(lib_a-mbsrtowcs.o)
 .debug_loc     0x0000000000038dd2      0x1be /usr/local/xenon/xenon/lib/32/libc.a(lib_a-mbtowc_r.o)
 .debug_loc     0x0000000000038f90      0x1c8 /usr/local/xenon/xenon/lib/32/libc.a(lib_a-memchr.o)
 .debug_loc     0x0000000000039158      0x12f /usr/local/xenon/xenon/lib/32/libc.a(lib_a-memcmp.o)
 .debug_loc     0x0000000000039287      0x1ff /usr/local/xenon/xenon/lib/32/libc.a(lib_a-memcpy.o)
 .debug_loc     0x0000000000039486      0x272 /usr/local/xenon/xenon/lib/32/libc.a(lib_a-memmove.o)
 .debug_loc     0x00000000000396f8      0x1d7 /usr/local/xenon/xenon/lib/32/libc.a(lib_a-memset.o)
 .debug_loc     0x00000000000398cf      0x5e2 /usr/local/xenon/xenon/lib/32/libc.a(lib_a-mktime.o)
 .debug_loc     0x0000000000039eb1      0x679 /usr/local/xenon/xenon/lib/32/libc.a(lib_a-mktm_r.o)
 .debug_loc     0x000000000003a52a      0x102 /usr/local/xenon/xenon/lib/32/libc.a(lib_a-openr.o)
 .debug_loc     0x000000000003a62c       0xe6 /usr/local/xenon/xenon/lib/32/libc.a(lib_a-printf.o)
 .debug_loc     0x000000000003a712       0x9a /usr/local/xenon/xenon/lib/32/libc.a(lib_a-putchar.o)
 .debug_loc     0x000000000003a7ac      0x2e7 /usr/local/xenon/xenon/lib/32/libc.a(lib_a-putc.o)
 .debug_loc     0x000000000003aa93      0x11f /usr/local/xenon/xenon/lib/32/libc.a(lib_a-puts.o)
 .debug_loc     0x000000000003abb2       0x58 /usr/local/xenon/xenon/lib/32/libc.a(lib_a-rand.o)
 .debug_loc     0x000000000003ac0a       0x84 /usr/local/xenon/xenon/lib/32/libc.a(lib_a-realloc.o)
 .debug_loc     0x000000000003ac8e     0x1338 /usr/local/xenon/xenon/lib/32/libc.a(lib_a-reallocr.o)
 .debug_loc     0x000000000003bfc6      0x293 /usr/local/xenon/xenon/lib/32/libc.a(lib_a-reent.o)
 .debug_loc     0x000000000003c259      0x1e7 /usr/local/xenon/xenon/lib/32/libc.a(lib_a-refill.o)
 .debug_loc     0x000000000003c440       0xaa /usr/local/xenon/xenon/lib/32/libc.a(lib_a-sbrkr.o)
 .debug_loc     0x000000000003c4ea       0x42 /usr/local/xenon/xenon/lib/32/libc.a(lib_a-setbuf.o)
 .debug_loc     0x000000000003c52c      0x247 /usr/local/xenon/xenon/lib/32/libc.a(lib_a-setvbuf.o)
 .debug_loc     0x000000000003c773      0x302 /usr/local/xenon/xenon/lib/32/libc.a(lib_a-snprintf.o)
 .debug_loc     0x000000000003ca75      0x120 /usr/local/xenon/xenon/lib/32/libc.a(lib_a-sprintf.o)
 .debug_loc     0x000000000003cb95      0x3ee /usr/local/xenon/xenon/lib/32/libc.a(lib_a-stdio.o)
 .debug_loc     0x000000000003cf83       0xcc /usr/local/xenon/xenon/lib/32/libc.a(lib_a-strcat.o)
 .debug_loc     0x000000000003d04f      0x17a /usr/local/xenon/xenon/lib/32/libc.a(lib_a-strchr.o)
 .debug_loc     0x000000000003d1c9      0x142 /usr/local/xenon/xenon/lib/32/libc.a(lib_a-strcmp.o)
 .debug_loc     0x000000000003d30b       0xdf /usr/local/xenon/xenon/lib/32/libc.a(lib_a-strcpy.o)
 .debug_loc     0x000000000003d3ea       0x58 /usr/local/xenon/xenon/lib/32/libc.a(lib_a-strdup.o)
 .debug_loc     0x000000000003d442       0xc0 /usr/local/xenon/xenon/lib/32/libc.a(lib_a-strdup_r.o)
 .debug_loc     0x000000000003d502      0x1e5 /usr/local/xenon/xenon/lib/32/libc.a(lib_a-strlcat.o)
 .debug_loc     0x000000000003d6e7       0xfb /usr/local/xenon/xenon/lib/32/libc.a(lib_a-strlcpy.o)
 .debug_loc     0x000000000003d7e2       0xe1 /usr/local/xenon/xenon/lib/32/libc.a(lib_a-strlen.o)
 .debug_loc     0x000000000003d8c3      0x1fe /usr/local/xenon/xenon/lib/32/libc.a(lib_a-strncasecmp.o)
 .debug_loc     0x000000000003dac1      0x237 /usr/local/xenon/xenon/lib/32/libc.a(lib_a-strncmp.o)
 .debug_loc     0x000000000003dcf8      0x122 /usr/local/xenon/xenon/lib/32/libc.a(lib_a-strncpy.o)
 .debug_loc     0x000000000003de1a       0xd6 /usr/local/xenon/xenon/lib/32/libc.a(lib_a-strnlen.o)
 .debug_loc     0x000000000003def0       0x9b /usr/local/xenon/xenon/lib/32/libc.a(lib_a-strpbrk.o)
 .debug_loc     0x000000000003df8b      0x122 /usr/local/xenon/xenon/lib/32/libc.a(lib_a-strrchr.o)
 .debug_loc     0x000000000003e0ad       0x6e /usr/local/xenon/xenon/lib/32/libc.a(lib_a-strtok.o)
 .debug_loc     0x000000000003e11b      0x1ae /usr/local/xenon/xenon/lib/32/libc.a(lib_a-strtok_r.o)
 .debug_loc     0x000000000003e2c9      0x3c6 /usr/local/xenon/xenon/lib/32/libc.a(lib_a-strtol.o)
 .debug_loc     0x000000000003e68f       0xb0 /usr/local/xenon/xenon/lib/32/libc.a(lib_a-strtoull.o)
 .debug_loc     0x000000000003e73f      0x3d8 /usr/local/xenon/xenon/lib/32/libc.a(lib_a-strtoull_r.o)
 .debug_loc     0x000000000003eb17     0x2215 /usr/local/xenon/xenon/lib/32/libc.a(lib_a-svfprintf.o)
 .debug_loc     0x0000000000040d2c      0x1b3 /usr/local/xenon/xenon/lib/32/libc.a(lib_a-system.o)
 .debug_loc     0x0000000000040edf       0x6f /usr/local/xenon/xenon/lib/32/libc.a(lib_a-time.o)
 .debug_loc     0x0000000000040f4e       0x8f /usr/local/xenon/xenon/lib/32/libc.a(lib_a-towlower.o)
 .debug_loc     0x0000000000040fdd       0x8f /usr/local/xenon/xenon/lib/32/libc.a(lib_a-towupper.o)
 .debug_loc     0x000000000004106c     0x12ee /usr/local/xenon/xenon/lib/32/libc.a(lib_a-vfiprintf.o)
 .debug_loc     0x000000000004235a     0x230d /usr/local/xenon/xenon/lib/32/libc.a(lib_a-vfprintf.o)
 .debug_loc     0x0000000000044667      0x16c /usr/local/xenon/xenon/lib/32/libc.a(lib_a-vsprintf.o)
 .debug_loc     0x00000000000447d3      0x1d4 /usr/local/xenon/xenon/lib/32/libc.a(lib_a-wbuf.o)
 .debug_loc     0x00000000000449a7      0x2af /usr/local/xenon/xenon/lib/32/libc.a(lib_a-wcrtomb.o)
 .debug_loc     0x0000000000044c56       0x89 /usr/local/xenon/xenon/lib/32/libc.a(lib_a-wctob.o)
 .debug_loc     0x0000000000044cdf      0x121 /usr/local/xenon/xenon/lib/32/libc.a(lib_a-wctomb_r.o)
 .debug_loc     0x0000000000044e00      0x102 /usr/local/xenon/xenon/lib/32/libc.a(lib_a-writer.o)
 .debug_loc     0x0000000000044f02       0xbc /usr/local/xenon/xenon/lib/32/libc.a(lib_a-wsetup.o)
 .debug_loc     0x0000000000044fbe      0x22b /usr/local/xenon/xenon/lib/32/libc.a(lib_a-__call_atexit.o)
 .debug_loc     0x00000000000451e9       0xaa /usr/local/xenon/xenon/lib/32/libc.a(lib_a-closer.o)
 .debug_loc     0x0000000000045293       0x88 /usr/local/xenon/xenon/lib/32/libc.a(lib_a-div.o)
 .debug_loc     0x000000000004531b     0x2320 /usr/local/xenon/xenon/lib/32/libc.a(lib_a-dtoa.o)
 .debug_loc     0x000000000004763b      0x235 /usr/local/xenon/xenon/lib/32/libc.a(lib_a-execr.o)
 .debug_loc     0x0000000000047870       0xf6 /usr/local/xenon/xenon/lib/32/libc.a(lib_a-flags.o)
 .debug_loc     0x0000000000047966      0x3ec /usr/local/xenon/xenon/lib/32/libc.a(lib_a-fputwc.o)
 .debug_loc     0x0000000000047d52       0xd6 /usr/local/xenon/xenon/lib/32/libc.a(lib_a-gettimeofdayr.o)
 .debug_loc     0x0000000000047e28       0x2c /usr/local/xenon/xenon/lib/32/libc.a(lib_a-gettzinfo.o)
 .debug_loc     0x0000000000047e54       0xaa /usr/local/xenon/xenon/lib/32/libc.a(lib_a-isattyr.o)
 .debug_loc     0x0000000000047efe      0x102 /usr/local/xenon/xenon/lib/32/libc.a(lib_a-lseekr.o)
 .debug_loc     0x0000000000048000      0x4aa /usr/local/xenon/xenon/lib/32/libc.a(lib_a-mbsnrtowcs.o)
 .debug_loc     0x00000000000484aa     0x1ef5 /usr/local/xenon/xenon/lib/32/libc.a(lib_a-mprec.o)
 .debug_loc     0x000000000004a39f      0x102 /usr/local/xenon/xenon/lib/32/libc.a(lib_a-readr.o)
 .debug_loc     0x000000000004a4a1       0x38 /usr/local/xenon/xenon/lib/32/libc.a(lib_a-s_fpclassify.o)
 .debug_loc     0x000000000004a4d9     0x11a1 /usr/local/xenon/xenon/lib/32/libc.a(lib_a-svfiprintf.o)
 .debug_loc     0x000000000004b67a      0xa42 /usr/local/xenon/lib/gcc/xenon/4.7.1/32/libgcc.a(_udivdi3.o)
 .debug_loc     0x000000000004c0bc      0x987 /usr/local/xenon/lib/gcc/xenon/4.7.1/32/libgcc.a(_umoddi3.o)

.debug_aranges  0x0000000000000000     0x31c8
 .debug_aranges
                0x0000000000000000       0x30 /usr/local/xenon/lib/gcc/xenon/4.7.1/../../../../xenon/lib/../lib/crt1.o
 .debug_aranges
                0x0000000000000030       0x40 file.o
 .debug_aranges
                0x0000000000000070       0x38 log.o
 .debug_aranges
                0x00000000000000a8       0x40 main.o
 .debug_aranges
                0x00000000000000e8       0x40 mount.o
 .debug_aranges
                0x0000000000000128       0x58 tftp.o
 .debug_aranges
                0x0000000000000180      0x100 httpd.o
 .debug_aranges
                0x0000000000000280       0x38 httpd_flash.o
 .debug_aranges
                0x00000000000002b8       0x40 httpd_fuse.o
 .debug_aranges
                0x00000000000002f8       0x38 httpd_index.o
 .debug_aranges
                0x0000000000000330       0x38 httpd_keyvault.o
 .debug_aranges
                0x0000000000000368       0x50 kbootconf.o
 .debug_aranges
                0x00000000000003b8       0x40 puff.o
 .debug_aranges
                0x00000000000003f8       0x20 /usr/local/xenon/usr/lib/libxenon.a(argv.o)
 .debug_aranges
                0x0000000000000418       0x70 /usr/local/xenon/usr/lib/libxenon.a(console.o)
 .debug_aranges
                0x0000000000000488       0xe0 /usr/local/xenon/usr/lib/libxenon.a(ata.o)
 .debug_aranges
                0x0000000000000568       0xe0 /usr/local/xenon/usr/lib/libxenon.a(iso9660.o)
 .debug_aranges
                0x0000000000000648       0x30 /usr/local/xenon/usr/lib/libxenon.a(input.o)
 .debug_aranges
                0x0000000000000678      0x288 /usr/local/xenon/usr/lib/libxenon.a(newlib.o)
 .debug_aranges
                0x0000000000000900       0x50 /usr/local/xenon/usr/lib/libxenon.a(xenon_syscalls.o)
 .debug_aranges
                0x0000000000000950       0x28 /usr/local/xenon/usr/lib/libxenon.a(c_except.o)
 .debug_aranges
                0x0000000000000978       0x40 /usr/local/xenon/usr/lib/libxenon.a(vm.o)
 .debug_aranges
                0x00000000000009b8       0x38 /usr/local/xenon/usr/lib/libxenon.a(time.o)
 .debug_aranges
                0x00000000000009f0       0x60 /usr/local/xenon/usr/lib/libxenon.a(usbctrl.o)
 .debug_aranges
                0x0000000000000a50      0x110 /usr/local/xenon/usr/lib/libxenon.a(usbd.o)
 .debug_aranges
                0x0000000000000b60       0x20 /usr/local/xenon/usr/lib/libxenon.a(usbdevs.o)
 .debug_aranges
                0x0000000000000b80       0x38 /usr/local/xenon/usr/lib/libxenon.a(usbhid.o)
 .debug_aranges
                0x0000000000000bb8       0x78 /usr/local/xenon/usr/lib/libxenon.a(usbhub.o)
 .debug_aranges
                0x0000000000000c30       0x38 /usr/local/xenon/usr/lib/libxenon.a(usbmain.o)
 .debug_aranges
                0x0000000000000c68      0x228 /usr/local/xenon/usr/lib/libxenon.a(tinyehci.o)
 .debug_aranges
                0x0000000000000e90       0x38 /usr/local/xenon/usr/lib/libxenon.a(debug.o)
 .debug_aranges
                0x0000000000000ec8       0xb8 /usr/local/xenon/usr/lib/libxenon.a(xenon_smc.o)
 .debug_aranges
                0x0000000000000f80       0x78 /usr/local/xenon/usr/lib/libxenon.a(xenon_power.o)
 .debug_aranges
                0x0000000000000ff8       0x20 /usr/local/xenon/usr/lib/libxenon.a(xenon_secotp.o)
 .debug_aranges
                0x0000000000001018       0x38 /usr/local/xenon/usr/lib/libxenon.a(sound.o)
 .debug_aranges
                0x0000000000001050       0x38 /usr/local/xenon/usr/lib/libxenon.a(xenon_uart.o)
 .debug_aranges
                0x0000000000001088      0x100 /usr/local/xenon/usr/lib/libxenon.a(xenon_sfcx.o)
 .debug_aranges
                0x0000000000001188       0x38 /usr/local/xenon/usr/lib/libxenon.a(xenon_config.o)
 .debug_aranges
                0x00000000000011c0       0x90 /usr/local/xenon/usr/lib/libxenon.a(xenos.o)
 .debug_aranges
                0x0000000000001250       0x38 /usr/local/xenon/usr/lib/libxenon.a(xenos_edid.o)
 .debug_aranges
                0x0000000000001288       0x40 /usr/local/xenon/usr/lib/libxenon.a(mem.o)
 .debug_aranges
                0x00000000000012c8       0x90 /usr/local/xenon/usr/lib/libxenon.a(netif.o)
 .debug_aranges
                0x0000000000001358       0xa8 /usr/local/xenon/usr/lib/libxenon.a(pbuf.o)
 .debug_aranges
                0x0000000000001400       0x20 /usr/local/xenon/usr/lib/libxenon.a(stats.o)
 .debug_aranges
                0x0000000000001420      0x120 /usr/local/xenon/usr/lib/libxenon.a(tcp.o)
 .debug_aranges
                0x0000000000001540       0x48 /usr/local/xenon/usr/lib/libxenon.a(ip_addr.o)
 .debug_aranges
                0x0000000000001588       0x38 /usr/local/xenon/usr/lib/libxenon.a(ip.o)
 .debug_aranges
                0x00000000000015c0       0x50 /usr/local/xenon/usr/lib/libxenon.a(ip_frag.o)
 .debug_aranges
                0x0000000000001610       0x88 /usr/local/xenon/usr/lib/libxenon.a(tcp_out.o)
 .debug_aranges
                0x0000000000001698       0x68 /usr/local/xenon/usr/lib/libxenon.a(udp.o)
 .debug_aranges
                0x0000000000001700       0x78 /usr/local/xenon/usr/lib/libxenon.a(etharp.o)
 .debug_aranges
                0x0000000000001778       0xe8 /usr/local/xenon/usr/lib/libxenon.a(dhcp.o)
 .debug_aranges
                0x0000000000001860       0x58 /usr/local/xenon/usr/lib/libxenon.a(raw.o)
 .debug_aranges
                0x00000000000018b8       0x20 /usr/local/xenon/usr/lib/libxenon.a(timers.o)
 .debug_aranges
                0x00000000000018d8       0x40 /usr/local/xenon/usr/lib/libxenon.a(enet.o)
 .debug_aranges
                0x0000000000001918       0x38 /usr/local/xenon/usr/lib/libxenon.a(network.o)
 .debug_aranges
                0x0000000000001950       0x78 /usr/local/xenon/usr/lib/libxenon.a(elf.o)
 .debug_aranges
                0x00000000000019c8      0x100 /usr/local/xenon/usr/lib/libxenon.a(fdt_ro.o)
 .debug_aranges
                0x0000000000001ac8       0xa0 /usr/local/xenon/usr/lib/libxenon.a(fdt_rw.o)
 .debug_aranges
                0x0000000000001b68       0xa0 /usr/local/xenon/usr/lib/libxenon.a(xb360.o)
 .debug_aranges
                0x0000000000001c08       0x58 /usr/local/xenon/usr/lib/libxenon.a(lib_malloc.o)
 .debug_aranges
                0x0000000000001c60       0x38 /usr/local/xenon/usr/lib/libxenon.a(io.o)
 .debug_aranges
                0x0000000000001c98       0x28 /usr/local/xenon/usr/lib/libxenon.a(dummy.o)
 .debug_aranges
                0x0000000000001cc0       0x98 /usr/local/xenon/usr/lib/libxenon.a(ohci.o)
 .debug_aranges
                0x0000000000001d58       0x48 /usr/local/xenon/usr/lib/libxenon.a(usbdebug.o)
 .debug_aranges
                0x0000000000001da0       0x78 /usr/local/xenon/usr/lib/libxenon.a(usb_os.o)
 .debug_aranges
                0x0000000000001e18       0x30 /usr/local/xenon/usr/lib/libxenon.a(xenon_gpio.o)
 .debug_aranges
                0x0000000000001e48       0x20 /usr/local/xenon/usr/lib/libxenon.a(init.o)
 .debug_aranges
                0x0000000000001e68       0x38 /usr/local/xenon/usr/lib/libxenon.a(tcp_in.o)
 .debug_aranges
                0x0000000000001ea0       0x40 /usr/local/xenon/usr/lib/libxenon.a(inet_chksum.o)
 .debug_aranges
                0x0000000000001ee0       0x60 /usr/local/xenon/usr/lib/libxenon.a(dns.o)
 .debug_aranges
                0x0000000000001f40       0x30 /usr/local/xenon/usr/lib/libxenon.a(memp.o)
 .debug_aranges
                0x0000000000001f70       0x38 /usr/local/xenon/usr/lib/libxenon.a(icmp.o)
 .debug_aranges
                0x0000000000001fa8       0x60 /usr/local/xenon/usr/lib/libxenon.a(fdt.o)
 .debug_aranges
                0x0000000000002008       0x58 /usr/local/xenon/usr/lib/libxenon.a(hmac_sha1.o)
 .debug_aranges
                0x0000000000002060       0x28 /usr/local/xenon/usr/lib/libxenon.a(rc4.o)
 .debug_aranges
                0x0000000000002088       0x38 /usr/local/xenon/usr/lib/libxenon.a(sha1.o)
 .debug_aranges
                0x00000000000020c0       0x48 /usr/local/xenon/usr/lib/libxenon.a(lib_queue.o)
 .debug_aranges
                0x0000000000002108       0x20 /usr/local/xenon/usr/lib/libfat.a(libfat.o)
 .debug_aranges
                0x0000000000002128       0x20 /usr/local/xenon/usr/lib/libfat.a(partition.o)
 .debug_aranges
                0x0000000000002148       0x20 /usr/local/xenon/usr/lib/libfat.a(cache.o)
 .debug_aranges
                0x0000000000002168       0x20 /usr/local/xenon/usr/lib/libfat.a(directory.o)
 .debug_aranges
                0x0000000000002188       0x20 /usr/local/xenon/usr/lib/libfat.a(disc.o)
 .debug_aranges
                0x00000000000021a8       0x20 /usr/local/xenon/usr/lib/libfat.a(fatdir.o)
 .debug_aranges
                0x00000000000021c8       0x20 /usr/local/xenon/usr/lib/libfat.a(fatfile.o)
 .debug_aranges
                0x00000000000021e8       0x20 /usr/local/xenon/usr/lib/libfat.a(file_allocation_table.o)
 .debug_aranges
                0x0000000000002208       0x20 /usr/local/xenon/usr/lib/libfat.a(filetime.o)
 .debug_aranges
                0x0000000000002228       0x20 /usr/local/xenon/usr/lib/libfat.a(lock.o)
 .debug_aranges
                0x0000000000002248       0x20 /usr/local/xenon/usr/lib/libxtaf.a(xtaf.o)
 .debug_aranges
                0x0000000000002268       0x20 /usr/local/xenon/usr/lib/libxtaf.a(xtaf_partition.o)
 .debug_aranges
                0x0000000000002288       0x20 /usr/local/xenon/usr/lib/libxtaf.a(xtaf_util.o)
 .debug_aranges
                0x00000000000022a8       0x20 /usr/local/xenon/usr/lib/libxtaf.a(cache.o)
 .debug_aranges
                0x00000000000022c8       0x20 /usr/local/xenon/usr/lib/libxtaf.a(xtaf_dir.o)
 .debug_aranges
                0x00000000000022e8       0x20 /usr/local/xenon/usr/lib/libxtaf.a(xtaf_file.o)
 .debug_aranges
                0x0000000000002308       0x20 /usr/local/xenon/xenon/lib/32/libm.a(lib_a-s_ceil.o)
 .debug_aranges
                0x0000000000002328       0x20 /usr/local/xenon/xenon/lib/32/libm.a(lib_a-s_floor.o)
 .debug_aranges
                0x0000000000002348       0x20 /usr/local/xenon/lib/gcc/xenon/4.7.1/32/libgcc.a(crtsavgpr.o)
 .debug_aranges
                0x0000000000002368       0x20 /usr/local/xenon/lib/gcc/xenon/4.7.1/32/libgcc.a(crtresxgpr.o)
 .debug_aranges
                0x0000000000002388       0x20 /usr/local/xenon/lib/gcc/xenon/4.7.1/32/libgcc.a(unwind-dw2-fde-dip.o)
 .debug_aranges
                0x00000000000023a8       0x20 /usr/local/xenon/xenon/lib/32/libc.a(lib_a-assert.o)
 .debug_aranges
                0x00000000000023c8       0x20 /usr/local/xenon/xenon/lib/32/libc.a(lib_a-atoi.o)
 .debug_aranges
                0x00000000000023e8       0x20 /usr/local/xenon/xenon/lib/32/libc.a(lib_a-calloc.o)
 .debug_aranges
                0x0000000000002408       0x20 /usr/local/xenon/xenon/lib/32/libc.a(lib_a-callocr.o)
 .debug_aranges
                0x0000000000002428       0x18 /usr/local/xenon/xenon/lib/32/libc.a(lib_a-ctype_.o)
 .debug_aranges
                0x0000000000002440       0x20 /usr/local/xenon/xenon/lib/32/libc.a(lib_a-errno.o)
 .debug_aranges
                0x0000000000002460       0x20 /usr/local/xenon/xenon/lib/32/libc.a(lib_a-exit.o)
 .debug_aranges
                0x0000000000002480       0x20 /usr/local/xenon/xenon/lib/32/libc.a(lib_a-fclose.o)
 .debug_aranges
                0x00000000000024a0       0x20 /usr/local/xenon/xenon/lib/32/libc.a(lib_a-fflush.o)
 .debug_aranges
                0x00000000000024c0       0x20 /usr/local/xenon/xenon/lib/32/libc.a(lib_a-findfp.o)
 .debug_aranges
                0x00000000000024e0       0x20 /usr/local/xenon/xenon/lib/32/libc.a(lib_a-fiprintf.o)
 .debug_aranges
                0x0000000000002500       0x20 /usr/local/xenon/xenon/lib/32/libc.a(lib_a-fopen.o)
 .debug_aranges
                0x0000000000002520       0x20 /usr/local/xenon/xenon/lib/32/libc.a(lib_a-fprintf.o)
 .debug_aranges
                0x0000000000002540       0x20 /usr/local/xenon/xenon/lib/32/libc.a(lib_a-fputs.o)
 .debug_aranges
                0x0000000000002560       0x20 /usr/local/xenon/xenon/lib/32/libc.a(lib_a-fread.o)
 .debug_aranges
                0x0000000000002580       0x20 /usr/local/xenon/xenon/lib/32/libc.a(lib_a-freer.o)
 .debug_aranges
                0x00000000000025a0       0x20 /usr/local/xenon/xenon/lib/32/libc.a(lib_a-fseek.o)
 .debug_aranges
                0x00000000000025c0       0x20 /usr/local/xenon/xenon/lib/32/libc.a(lib_a-fstatr.o)
 .debug_aranges
                0x00000000000025e0       0x20 /usr/local/xenon/xenon/lib/32/libc.a(lib_a-ftell.o)
 .debug_aranges
                0x0000000000002600       0x20 /usr/local/xenon/xenon/lib/32/libc.a(lib_a-fvwrite.o)
 .debug_aranges
                0x0000000000002620       0x20 /usr/local/xenon/xenon/lib/32/libc.a(lib_a-fwalk.o)
 .debug_aranges
                0x0000000000002640       0x20 /usr/local/xenon/xenon/lib/32/libc.a(lib_a-getenv.o)
 .debug_aranges
                0x0000000000002660       0x20 /usr/local/xenon/xenon/lib/32/libc.a(lib_a-getenv_r.o)
 .debug_aranges
                0x0000000000002680       0x18 /usr/local/xenon/xenon/lib/32/libc.a(lib_a-impure.o)
 .debug_aranges
                0x0000000000002698       0x20 /usr/local/xenon/xenon/lib/32/libc.a(lib_a-lcltime_r.o)
 .debug_aranges
                0x00000000000026b8       0x20 /usr/local/xenon/xenon/lib/32/libc.a(lib_a-locale.o)
 .debug_aranges
                0x00000000000026d8       0x20 /usr/local/xenon/xenon/lib/32/libc.a(lib_a-makebuf.o)
 .debug_aranges
                0x00000000000026f8       0x20 /usr/local/xenon/xenon/lib/32/libc.a(lib_a-malign.o)
 .debug_aranges
                0x0000000000002718       0x20 /usr/local/xenon/xenon/lib/32/libc.a(lib_a-malignr.o)
 .debug_aranges
                0x0000000000002738       0x20 /usr/local/xenon/xenon/lib/32/libc.a(lib_a-malloc.o)
 .debug_aranges
                0x0000000000002758       0x20 /usr/local/xenon/xenon/lib/32/libc.a(lib_a-mallocr.o)
 .debug_aranges
                0x0000000000002778       0x20 /usr/local/xenon/xenon/lib/32/libc.a(lib_a-mbrtowc.o)
 .debug_aranges
                0x0000000000002798       0x20 /usr/local/xenon/xenon/lib/32/libc.a(lib_a-mbsrtowcs.o)
 .debug_aranges
                0x00000000000027b8       0x20 /usr/local/xenon/xenon/lib/32/libc.a(lib_a-mbtowc_r.o)
 .debug_aranges
                0x00000000000027d8       0x20 /usr/local/xenon/xenon/lib/32/libc.a(lib_a-memchr.o)
 .debug_aranges
                0x00000000000027f8       0x20 /usr/local/xenon/xenon/lib/32/libc.a(lib_a-memcmp.o)
 .debug_aranges
                0x0000000000002818       0x20 /usr/local/xenon/xenon/lib/32/libc.a(lib_a-memcpy.o)
 .debug_aranges
                0x0000000000002838       0x20 /usr/local/xenon/xenon/lib/32/libc.a(lib_a-memmove.o)
 .debug_aranges
                0x0000000000002858       0x20 /usr/local/xenon/xenon/lib/32/libc.a(lib_a-memset.o)
 .debug_aranges
                0x0000000000002878       0x20 /usr/local/xenon/xenon/lib/32/libc.a(lib_a-mktime.o)
 .debug_aranges
                0x0000000000002898       0x20 /usr/local/xenon/xenon/lib/32/libc.a(lib_a-mktm_r.o)
 .debug_aranges
                0x00000000000028b8       0x20 /usr/local/xenon/xenon/lib/32/libc.a(lib_a-openr.o)
 .debug_aranges
                0x00000000000028d8       0x20 /usr/local/xenon/xenon/lib/32/libc.a(lib_a-printf.o)
 .debug_aranges
                0x00000000000028f8       0x20 /usr/local/xenon/xenon/lib/32/libc.a(lib_a-putchar.o)
 .debug_aranges
                0x0000000000002918       0x20 /usr/local/xenon/xenon/lib/32/libc.a(lib_a-putc.o)
 .debug_aranges
                0x0000000000002938       0x20 /usr/local/xenon/xenon/lib/32/libc.a(lib_a-puts.o)
 .debug_aranges
                0x0000000000002958       0x20 /usr/local/xenon/xenon/lib/32/libc.a(lib_a-rand.o)
 .debug_aranges
                0x0000000000002978       0x20 /usr/local/xenon/xenon/lib/32/libc.a(lib_a-realloc.o)
 .debug_aranges
                0x0000000000002998       0x20 /usr/local/xenon/xenon/lib/32/libc.a(lib_a-reallocr.o)
 .debug_aranges
                0x00000000000029b8       0x20 /usr/local/xenon/xenon/lib/32/libc.a(lib_a-reent.o)
 .debug_aranges
                0x00000000000029d8       0x20 /usr/local/xenon/xenon/lib/32/libc.a(lib_a-refill.o)
 .debug_aranges
                0x00000000000029f8       0x20 /usr/local/xenon/xenon/lib/32/libc.a(lib_a-sbrkr.o)
 .debug_aranges
                0x0000000000002a18       0x20 /usr/local/xenon/xenon/lib/32/libc.a(lib_a-setbuf.o)
 .debug_aranges
                0x0000000000002a38       0x20 /usr/local/xenon/xenon/lib/32/libc.a(lib_a-setjmp.o)
 .debug_aranges
                0x0000000000002a58       0x20 /usr/local/xenon/xenon/lib/32/libc.a(lib_a-setvbuf.o)
 .debug_aranges
                0x0000000000002a78       0x20 /usr/local/xenon/xenon/lib/32/libc.a(lib_a-snprintf.o)
 .debug_aranges
                0x0000000000002a98       0x20 /usr/local/xenon/xenon/lib/32/libc.a(lib_a-sprintf.o)
 .debug_aranges
                0x0000000000002ab8       0x20 /usr/local/xenon/xenon/lib/32/libc.a(lib_a-stdio.o)
 .debug_aranges
                0x0000000000002ad8       0x20 /usr/local/xenon/xenon/lib/32/libc.a(lib_a-strcat.o)
 .debug_aranges
                0x0000000000002af8       0x20 /usr/local/xenon/xenon/lib/32/libc.a(lib_a-strchr.o)
 .debug_aranges
                0x0000000000002b18       0x20 /usr/local/xenon/xenon/lib/32/libc.a(lib_a-strcmp.o)
 .debug_aranges
                0x0000000000002b38       0x20 /usr/local/xenon/xenon/lib/32/libc.a(lib_a-strcpy.o)
 .debug_aranges
                0x0000000000002b58       0x20 /usr/local/xenon/xenon/lib/32/libc.a(lib_a-strdup.o)
 .debug_aranges
                0x0000000000002b78       0x20 /usr/local/xenon/xenon/lib/32/libc.a(lib_a-strdup_r.o)
 .debug_aranges
                0x0000000000002b98       0x20 /usr/local/xenon/xenon/lib/32/libc.a(lib_a-strlcat.o)
 .debug_aranges
                0x0000000000002bb8       0x20 /usr/local/xenon/xenon/lib/32/libc.a(lib_a-strlcpy.o)
 .debug_aranges
                0x0000000000002bd8       0x20 /usr/local/xenon/xenon/lib/32/libc.a(lib_a-strlen.o)
 .debug_aranges
                0x0000000000002bf8       0x20 /usr/local/xenon/xenon/lib/32/libc.a(lib_a-strncasecmp.o)
 .debug_aranges
                0x0000000000002c18       0x20 /usr/local/xenon/xenon/lib/32/libc.a(lib_a-strncmp.o)
 .debug_aranges
                0x0000000000002c38       0x20 /usr/local/xenon/xenon/lib/32/libc.a(lib_a-strncpy.o)
 .debug_aranges
                0x0000000000002c58       0x20 /usr/local/xenon/xenon/lib/32/libc.a(lib_a-strnlen.o)
 .debug_aranges
                0x0000000000002c78       0x20 /usr/local/xenon/xenon/lib/32/libc.a(lib_a-strpbrk.o)
 .debug_aranges
                0x0000000000002c98       0x20 /usr/local/xenon/xenon/lib/32/libc.a(lib_a-strrchr.o)
 .debug_aranges
                0x0000000000002cb8       0x20 /usr/local/xenon/xenon/lib/32/libc.a(lib_a-strtok.o)
 .debug_aranges
                0x0000000000002cd8       0x20 /usr/local/xenon/xenon/lib/32/libc.a(lib_a-strtok_r.o)
 .debug_aranges
                0x0000000000002cf8       0x20 /usr/local/xenon/xenon/lib/32/libc.a(lib_a-strtol.o)
 .debug_aranges
                0x0000000000002d18       0x20 /usr/local/xenon/xenon/lib/32/libc.a(lib_a-strtoull.o)
 .debug_aranges
                0x0000000000002d38       0x20 /usr/local/xenon/xenon/lib/32/libc.a(lib_a-strtoull_r.o)
 .debug_aranges
                0x0000000000002d58       0x20 /usr/local/xenon/xenon/lib/32/libc.a(lib_a-svfprintf.o)
 .debug_aranges
                0x0000000000002d78       0x20 /usr/local/xenon/xenon/lib/32/libc.a(lib_a-system.o)
 .debug_aranges
                0x0000000000002d98       0x20 /usr/local/xenon/xenon/lib/32/libc.a(lib_a-time.o)
 .debug_aranges
                0x0000000000002db8       0x20 /usr/local/xenon/xenon/lib/32/libc.a(lib_a-towlower.o)
 .debug_aranges
                0x0000000000002dd8       0x20 /usr/local/xenon/xenon/lib/32/libc.a(lib_a-towupper.o)
 .debug_aranges
                0x0000000000002df8       0x20 /usr/local/xenon/xenon/lib/32/libc.a(lib_a-tzlock.o)
 .debug_aranges
                0x0000000000002e18       0x18 /usr/local/xenon/xenon/lib/32/libc.a(lib_a-tzvars.o)
 .debug_aranges
                0x0000000000002e30       0x20 /usr/local/xenon/xenon/lib/32/libc.a(lib_a-vfiprintf.o)
 .debug_aranges
                0x0000000000002e50       0x20 /usr/local/xenon/xenon/lib/32/libc.a(lib_a-vfprintf.o)
 .debug_aranges
                0x0000000000002e70       0x20 /usr/local/xenon/xenon/lib/32/libc.a(lib_a-vsprintf.o)
 .debug_aranges
                0x0000000000002e90       0x20 /usr/local/xenon/xenon/lib/32/libc.a(lib_a-wbuf.o)
 .debug_aranges
                0x0000000000002eb0       0x20 /usr/local/xenon/xenon/lib/32/libc.a(lib_a-wcrtomb.o)
 .debug_aranges
                0x0000000000002ed0       0x20 /usr/local/xenon/xenon/lib/32/libc.a(lib_a-wctob.o)
 .debug_aranges
                0x0000000000002ef0       0x20 /usr/local/xenon/xenon/lib/32/libc.a(lib_a-wctomb_r.o)
 .debug_aranges
                0x0000000000002f10       0x20 /usr/local/xenon/xenon/lib/32/libc.a(lib_a-writer.o)
 .debug_aranges
                0x0000000000002f30       0x20 /usr/local/xenon/xenon/lib/32/libc.a(lib_a-wsetup.o)
 .debug_aranges
                0x0000000000002f50       0x20 /usr/local/xenon/xenon/lib/32/libc.a(lib_a-__call_atexit.o)
 .debug_aranges
                0x0000000000002f70       0x20 /usr/local/xenon/xenon/lib/32/libc.a(lib_a-closer.o)
 .debug_aranges
                0x0000000000002f90       0x20 /usr/local/xenon/xenon/lib/32/libc.a(lib_a-div.o)
 .debug_aranges
                0x0000000000002fb0       0x20 /usr/local/xenon/xenon/lib/32/libc.a(lib_a-dtoa.o)
 .debug_aranges
                0x0000000000002fd0       0x18 /usr/local/xenon/xenon/lib/32/libc.a(lib_a-environ.o)
 .debug_aranges
                0x0000000000002fe8       0x20 /usr/local/xenon/xenon/lib/32/libc.a(lib_a-envlock.o)
 .debug_aranges
                0x0000000000003008       0x20 /usr/local/xenon/xenon/lib/32/libc.a(lib_a-execr.o)
 .debug_aranges
                0x0000000000003028       0x20 /usr/local/xenon/xenon/lib/32/libc.a(lib_a-flags.o)
 .debug_aranges
                0x0000000000003048       0x20 /usr/local/xenon/xenon/lib/32/libc.a(lib_a-fputwc.o)
 .debug_aranges
                0x0000000000003068       0x20 /usr/local/xenon/xenon/lib/32/libc.a(lib_a-gettimeofdayr.o)
 .debug_aranges
                0x0000000000003088       0x20 /usr/local/xenon/xenon/lib/32/libc.a(lib_a-gettzinfo.o)
 .debug_aranges
                0x00000000000030a8       0x20 /usr/local/xenon/xenon/lib/32/libc.a(lib_a-isattyr.o)
 .debug_aranges
                0x00000000000030c8       0x20 /usr/local/xenon/xenon/lib/32/libc.a(lib_a-lseekr.o)
 .debug_aranges
                0x00000000000030e8       0x20 /usr/local/xenon/xenon/lib/32/libc.a(lib_a-mbsnrtowcs.o)
 .debug_aranges
                0x0000000000003108       0x20 /usr/local/xenon/xenon/lib/32/libc.a(lib_a-mprec.o)
 .debug_aranges
                0x0000000000003128       0x20 /usr/local/xenon/xenon/lib/32/libc.a(lib_a-readr.o)
 .debug_aranges
                0x0000000000003148       0x20 /usr/local/xenon/xenon/lib/32/libc.a(lib_a-s_fpclassify.o)
 .debug_aranges
                0x0000000000003168       0x20 /usr/local/xenon/xenon/lib/32/libc.a(lib_a-svfiprintf.o)
 .debug_aranges
                0x0000000000003188       0x20 /usr/local/xenon/lib/gcc/xenon/4.7.1/32/libgcc.a(_udivdi3.o)
 .debug_aranges
                0x00000000000031a8       0x20 /usr/local/xenon/lib/gcc/xenon/4.7.1/32/libgcc.a(_umoddi3.o)

.debug_ranges   0x0000000000000000     0x6778
 .debug_ranges  0x0000000000000000       0x20 /usr/local/xenon/lib/gcc/xenon/4.7.1/../../../../xenon/lib/../lib/crt1.o
 .debug_ranges  0x0000000000000020       0x48 file.o
 .debug_ranges  0x0000000000000068       0x50 log.o
 .debug_ranges  0x00000000000000b8       0x80 main.o
 .debug_ranges  0x0000000000000138       0x78 mount.o
 .debug_ranges  0x00000000000001b0      0x148 tftp.o
 .debug_ranges  0x00000000000002f8      0x298 httpd.o
 .debug_ranges  0x0000000000000590       0x28 httpd_flash.o
 .debug_ranges  0x00000000000005b8       0x50 httpd_fuse.o
 .debug_ranges  0x0000000000000608      0x108 httpd_index.o
 .debug_ranges  0x0000000000000710       0x58 httpd_keyvault.o
 .debug_ranges  0x0000000000000768       0xe0 kbootconf.o
 .debug_ranges  0x0000000000000848      0x180 puff.o
 .debug_ranges  0x00000000000009c8       0x10 /usr/local/xenon/usr/lib/libxenon.a(argv.o)
 .debug_ranges  0x00000000000009d8      0x128 /usr/local/xenon/usr/lib/libxenon.a(console.o)
 .debug_ranges  0x0000000000000b00      0x520 /usr/local/xenon/usr/lib/libxenon.a(ata.o)
 .debug_ranges  0x0000000000001020      0x360 /usr/local/xenon/usr/lib/libxenon.a(iso9660.o)
 .debug_ranges  0x0000000000001380       0x20 /usr/local/xenon/usr/lib/libxenon.a(input.o)
 .debug_ranges  0x00000000000013a0      0x300 /usr/local/xenon/usr/lib/libxenon.a(newlib.o)
 .debug_ranges  0x00000000000016a0       0x40 /usr/local/xenon/usr/lib/libxenon.a(xenon_syscalls.o)
 .debug_ranges  0x00000000000016e0       0xa0 /usr/local/xenon/usr/lib/libxenon.a(c_except.o)
 .debug_ranges  0x0000000000001780       0x30 /usr/local/xenon/usr/lib/libxenon.a(vm.o)
 .debug_ranges  0x00000000000017b0       0x28 /usr/local/xenon/usr/lib/libxenon.a(time.o)
 .debug_ranges  0x00000000000017d8      0x170 /usr/local/xenon/usr/lib/libxenon.a(usbctrl.o)
 .debug_ranges  0x0000000000001948      0x118 /usr/local/xenon/usr/lib/libxenon.a(usbd.o)
 .debug_ranges  0x0000000000001a60       0x10 /usr/local/xenon/usr/lib/libxenon.a(usbdevs.o)
 .debug_ranges  0x0000000000001a70       0x80 /usr/local/xenon/usr/lib/libxenon.a(usbhid.o)
 .debug_ranges  0x0000000000001af0       0x88 /usr/local/xenon/usr/lib/libxenon.a(usbhub.o)
 .debug_ranges  0x0000000000001b78       0x28 /usr/local/xenon/usr/lib/libxenon.a(usbmain.o)
 .debug_ranges  0x0000000000001ba0      0x6a8 /usr/local/xenon/usr/lib/libxenon.a(tinyehci.o)
 .debug_ranges  0x0000000000002248       0x28 /usr/local/xenon/usr/lib/libxenon.a(debug.o)
 .debug_ranges  0x0000000000002270       0xa8 /usr/local/xenon/usr/lib/libxenon.a(xenon_smc.o)
 .debug_ranges  0x0000000000002318      0x130 /usr/local/xenon/usr/lib/libxenon.a(xenon_power.o)
 .debug_ranges  0x0000000000002448       0x10 /usr/local/xenon/usr/lib/libxenon.a(xenon_secotp.o)
 .debug_ranges  0x0000000000002458       0x50 /usr/local/xenon/usr/lib/libxenon.a(sound.o)
 .debug_ranges  0x00000000000024a8       0x28 /usr/local/xenon/usr/lib/libxenon.a(xenon_uart.o)
 .debug_ranges  0x00000000000024d0      0x2b8 /usr/local/xenon/usr/lib/libxenon.a(xenon_sfcx.o)
 .debug_ranges  0x0000000000002788       0x88 /usr/local/xenon/usr/lib/libxenon.a(xenon_config.o)
 .debug_ranges  0x0000000000002810      0x3e0 /usr/local/xenon/usr/lib/libxenon.a(xenos.o)
 .debug_ranges  0x0000000000002bf0       0xb8 /usr/local/xenon/usr/lib/libxenon.a(xenos_edid.o)
 .debug_ranges  0x0000000000002ca8       0x60 /usr/local/xenon/usr/lib/libxenon.a(mem.o)
 .debug_ranges  0x0000000000002d08       0xb0 /usr/local/xenon/usr/lib/libxenon.a(netif.o)
 .debug_ranges  0x0000000000002db8       0xd0 /usr/local/xenon/usr/lib/libxenon.a(pbuf.o)
 .debug_ranges  0x0000000000002e88       0x10 /usr/local/xenon/usr/lib/libxenon.a(stats.o)
 .debug_ranges  0x0000000000002e98      0x1b0 /usr/local/xenon/usr/lib/libxenon.a(tcp.o)
 .debug_ranges  0x0000000000003048       0x38 /usr/local/xenon/usr/lib/libxenon.a(ip_addr.o)
 .debug_ranges  0x0000000000003080       0x28 /usr/local/xenon/usr/lib/libxenon.a(ip.o)
 .debug_ranges  0x00000000000030a8      0x178 /usr/local/xenon/usr/lib/libxenon.a(ip_frag.o)
 .debug_ranges  0x0000000000003220      0x118 /usr/local/xenon/usr/lib/libxenon.a(tcp_out.o)
 .debug_ranges  0x0000000000003338       0x58 /usr/local/xenon/usr/lib/libxenon.a(udp.o)
 .debug_ranges  0x0000000000003390      0x128 /usr/local/xenon/usr/lib/libxenon.a(etharp.o)
 .debug_ranges  0x00000000000034b8      0x368 /usr/local/xenon/usr/lib/libxenon.a(dhcp.o)
 .debug_ranges  0x0000000000003820       0x48 /usr/local/xenon/usr/lib/libxenon.a(raw.o)
 .debug_ranges  0x0000000000003868       0x10 /usr/local/xenon/usr/lib/libxenon.a(timers.o)
 .debug_ranges  0x0000000000003878      0x288 /usr/local/xenon/usr/lib/libxenon.a(enet.o)
 .debug_ranges  0x0000000000003b00       0x58 /usr/local/xenon/usr/lib/libxenon.a(network.o)
 .debug_ranges  0x0000000000003b58      0x498 /usr/local/xenon/usr/lib/libxenon.a(elf.o)
 .debug_ranges  0x0000000000003ff0      0x1f8 /usr/local/xenon/usr/lib/libxenon.a(fdt_ro.o)
 .debug_ranges  0x00000000000041e8      0x380 /usr/local/xenon/usr/lib/libxenon.a(fdt_rw.o)
 .debug_ranges  0x0000000000004568       0xb8 /usr/local/xenon/usr/lib/libxenon.a(xb360.o)
 .debug_ranges  0x0000000000004620       0x98 /usr/local/xenon/usr/lib/libxenon.a(lib_malloc.o)
 .debug_ranges  0x00000000000046b8       0x28 /usr/local/xenon/usr/lib/libxenon.a(io.o)
 .debug_ranges  0x00000000000046e0       0x18 /usr/local/xenon/usr/lib/libxenon.a(dummy.o)
 .debug_ranges  0x00000000000046f8      0x168 /usr/local/xenon/usr/lib/libxenon.a(ohci.o)
 .debug_ranges  0x0000000000004860       0x38 /usr/local/xenon/usr/lib/libxenon.a(usbdebug.o)
 .debug_ranges  0x0000000000004898       0x68 /usr/local/xenon/usr/lib/libxenon.a(usb_os.o)
 .debug_ranges  0x0000000000004900       0x20 /usr/local/xenon/usr/lib/libxenon.a(xenon_gpio.o)
 .debug_ranges  0x0000000000004920       0x10 /usr/local/xenon/usr/lib/libxenon.a(init.o)
 .debug_ranges  0x0000000000004930       0xc8 /usr/local/xenon/usr/lib/libxenon.a(tcp_in.o)
 .debug_ranges  0x00000000000049f8       0x30 /usr/local/xenon/usr/lib/libxenon.a(inet_chksum.o)
 .debug_ranges  0x0000000000004a28       0xe0 /usr/local/xenon/usr/lib/libxenon.a(dns.o)
 .debug_ranges  0x0000000000004b08       0x20 /usr/local/xenon/usr/lib/libxenon.a(memp.o)
 .debug_ranges  0x0000000000004b28       0x40 /usr/local/xenon/usr/lib/libxenon.a(icmp.o)
 .debug_ranges  0x0000000000004b68       0x68 /usr/local/xenon/usr/lib/libxenon.a(fdt.o)
 .debug_ranges  0x0000000000004bd0       0x48 /usr/local/xenon/usr/lib/libxenon.a(hmac_sha1.o)
 .debug_ranges  0x0000000000004c18       0x18 /usr/local/xenon/usr/lib/libxenon.a(rc4.o)
 .debug_ranges  0x0000000000004c30       0x28 /usr/local/xenon/usr/lib/libxenon.a(sha1.o)
 .debug_ranges  0x0000000000004c58       0x38 /usr/local/xenon/usr/lib/libxenon.a(lib_queue.o)
 .debug_ranges  0x0000000000004c90       0xb0 /usr/local/xenon/usr/lib/libfat.a(libfat.o)
 .debug_ranges  0x0000000000004d40      0x1d8 /usr/local/xenon/usr/lib/libfat.a(partition.o)
 .debug_ranges  0x0000000000004f18       0xa0 /usr/local/xenon/usr/lib/libfat.a(cache.o)
 .debug_ranges  0x0000000000004fb8      0x140 /usr/local/xenon/usr/lib/libfat.a(directory.o)
 .debug_ranges  0x00000000000050f8      0x140 /usr/local/xenon/usr/lib/libfat.a(fatdir.o)
 .debug_ranges  0x0000000000005238       0xb0 /usr/local/xenon/usr/lib/libfat.a(fatfile.o)
 .debug_ranges  0x00000000000052e8       0x78 /usr/local/xenon/usr/lib/libfat.a(file_allocation_table.o)
 .debug_ranges  0x0000000000005360       0xa0 /usr/local/xenon/usr/lib/libxtaf.a(xtaf.o)
 .debug_ranges  0x0000000000005400       0x98 /usr/local/xenon/usr/lib/libxtaf.a(xtaf_partition.o)
 .debug_ranges  0x0000000000005498       0xc8 /usr/local/xenon/usr/lib/libxtaf.a(cache.o)
 .debug_ranges  0x0000000000005560       0x30 /usr/local/xenon/usr/lib/libxtaf.a(xtaf_dir.o)
 .debug_ranges  0x0000000000005590      0x1b0 /usr/local/xenon/usr/lib/libxtaf.a(xtaf_file.o)
 .debug_ranges  0x0000000000005740       0x40 /usr/local/xenon/xenon/lib/32/libm.a(lib_a-s_ceil.o)
 .debug_ranges  0x0000000000005780       0x48 /usr/local/xenon/xenon/lib/32/libm.a(lib_a-s_floor.o)
 .debug_ranges  0x00000000000057c8      0x398 /usr/local/xenon/lib/gcc/xenon/4.7.1/32/libgcc.a(unwind-dw2-fde-dip.o)
 .debug_ranges  0x0000000000005b60       0x30 /usr/local/xenon/xenon/lib/32/libc.a(lib_a-callocr.o)
 .debug_ranges  0x0000000000005b90       0x50 /usr/local/xenon/xenon/lib/32/libc.a(lib_a-fflush.o)
 .debug_ranges  0x0000000000005be0       0x38 /usr/local/xenon/xenon/lib/32/libc.a(lib_a-fread.o)
 .debug_ranges  0x0000000000005c18       0x20 /usr/local/xenon/xenon/lib/32/libc.a(lib_a-fvwrite.o)
 .debug_ranges  0x0000000000005c38       0x70 /usr/local/xenon/xenon/lib/32/libc.a(lib_a-mallocr.o)
 .debug_ranges  0x0000000000005ca8       0x78 /usr/local/xenon/xenon/lib/32/libc.a(lib_a-mktime.o)
 .debug_ranges  0x0000000000005d20       0x78 /usr/local/xenon/xenon/lib/32/libc.a(lib_a-mktm_r.o)
 .debug_ranges  0x0000000000005d98      0x150 /usr/local/xenon/xenon/lib/32/libc.a(lib_a-reallocr.o)
 .debug_ranges  0x0000000000005ee8       0x50 /usr/local/xenon/xenon/lib/32/libc.a(lib_a-strncasecmp.o)
 .debug_ranges  0x0000000000005f38      0x1a8 /usr/local/xenon/xenon/lib/32/libc.a(lib_a-svfprintf.o)
 .debug_ranges  0x00000000000060e0       0x30 /usr/local/xenon/xenon/lib/32/libc.a(lib_a-system.o)
 .debug_ranges  0x0000000000006110       0x18 /usr/local/xenon/xenon/lib/32/libc.a(lib_a-towlower.o)
 .debug_ranges  0x0000000000006128       0x18 /usr/local/xenon/xenon/lib/32/libc.a(lib_a-towupper.o)
 .debug_ranges  0x0000000000006140      0x100 /usr/local/xenon/xenon/lib/32/libc.a(lib_a-vfiprintf.o)
 .debug_ranges  0x0000000000006240      0x1f8 /usr/local/xenon/xenon/lib/32/libc.a(lib_a-vfprintf.o)
 .debug_ranges  0x0000000000006438       0x28 /usr/local/xenon/xenon/lib/32/libc.a(lib_a-__call_atexit.o)
 .debug_ranges  0x0000000000006460       0x80 /usr/local/xenon/xenon/lib/32/libc.a(lib_a-fputwc.o)
 .debug_ranges  0x00000000000064e0       0x68 /usr/local/xenon/xenon/lib/32/libc.a(lib_a-svfiprintf.o)
 .debug_ranges  0x0000000000006548       0xf0 /usr/local/xenon/lib/gcc/xenon/4.7.1/32/libgcc.a(_udivdi3.o)
 .debug_ranges  0x0000000000006638      0x140 /usr/local/xenon/lib/gcc/xenon/4.7.1/32/libgcc.a(_umoddi3.o)

.debug_line     0x0000000000000000    0x24491
 .debug_line    0x0000000000000000       0xa3 /usr/local/xenon/lib/gcc/xenon/4.7.1/../../../../xenon/lib/../lib/crt1.o
 .debug_line    0x00000000000000a3      0x57f file.o
 .debug_line    0x0000000000000622      0x1b5 log.o
 .debug_line    0x00000000000007d7      0x5bf main.o
 .debug_line    0x0000000000000d96      0x4bf mount.o
 .debug_line    0x0000000000001255      0x518 tftp.o
 .debug_line    0x000000000000176d      0x66e httpd.o
 .debug_line    0x0000000000001ddb      0x280 httpd_flash.o
 .debug_line    0x000000000000205b      0x2df httpd_fuse.o
 .debug_line    0x000000000000233a      0x2ef httpd_index.o
 .debug_line    0x0000000000002629      0x2b9 httpd_keyvault.o
 .debug_line    0x00000000000028e2      0x711 kbootconf.o
 .debug_line    0x0000000000002ff3      0x35b puff.o
 .debug_line    0x000000000000334e       0x66 /usr/local/xenon/usr/lib/libxenon.a(argv.o)
 .debug_line    0x00000000000033b4      0x2bf /usr/local/xenon/usr/lib/libxenon.a(console.o)
 .debug_line    0x0000000000003673      0x701 /usr/local/xenon/usr/lib/libxenon.a(ata.o)
 .debug_line    0x0000000000003d74      0x797 /usr/local/xenon/usr/lib/libxenon.a(iso9660.o)
 .debug_line    0x000000000000450b       0xd2 /usr/local/xenon/usr/lib/libxenon.a(input.o)
 .debug_line    0x00000000000045dd      0xb82 /usr/local/xenon/usr/lib/libxenon.a(newlib.o)
 .debug_line    0x000000000000515f      0x333 /usr/local/xenon/usr/lib/libxenon.a(xenon_syscalls.o)
 .debug_line    0x0000000000005492      0x206 /usr/local/xenon/usr/lib/libxenon.a(c_except.o)
 .debug_line    0x0000000000005698      0x177 /usr/local/xenon/usr/lib/libxenon.a(vm.o)
 .debug_line    0x000000000000580f      0x114 /usr/local/xenon/usr/lib/libxenon.a(time.o)
 .debug_line    0x0000000000005923      0x3bd /usr/local/xenon/usr/lib/libxenon.a(usbctrl.o)
 .debug_line    0x0000000000005ce0      0x58e /usr/local/xenon/usr/lib/libxenon.a(usbd.o)
 .debug_line    0x000000000000626e      0x156 /usr/local/xenon/usr/lib/libxenon.a(usbdevs.o)
 .debug_line    0x00000000000063c4      0x1c7 /usr/local/xenon/usr/lib/libxenon.a(usbhid.o)
 .debug_line    0x000000000000658b      0x36f /usr/local/xenon/usr/lib/libxenon.a(usbhub.o)
 .debug_line    0x00000000000068fa      0x1d6 /usr/local/xenon/usr/lib/libxenon.a(usbmain.o)
 .debug_line    0x0000000000006ad0     0x1179 /usr/local/xenon/usr/lib/libxenon.a(tinyehci.o)
 .debug_line    0x0000000000007c49      0x1eb /usr/local/xenon/usr/lib/libxenon.a(debug.o)
 .debug_line    0x0000000000007e34      0x3de /usr/local/xenon/usr/lib/libxenon.a(xenon_smc.o)
 .debug_line    0x0000000000008212      0x40b /usr/local/xenon/usr/lib/libxenon.a(xenon_power.o)
 .debug_line    0x000000000000861d       0xa2 /usr/local/xenon/usr/lib/libxenon.a(xenon_secotp.o)
 .debug_line    0x00000000000086bf      0x1cc /usr/local/xenon/usr/lib/libxenon.a(sound.o)
 .debug_line    0x000000000000888b      0x107 /usr/local/xenon/usr/lib/libxenon.a(xenon_uart.o)
 .debug_line    0x0000000000008992      0x793 /usr/local/xenon/usr/lib/libxenon.a(xenon_sfcx.o)
 .debug_line    0x0000000000009125      0x1ab /usr/local/xenon/usr/lib/libxenon.a(xenon_config.o)
 .debug_line    0x00000000000092d0      0x745 /usr/local/xenon/usr/lib/libxenon.a(xenos.o)
 .debug_line    0x0000000000009a15      0x293 /usr/local/xenon/usr/lib/libxenon.a(xenos_edid.o)
 .debug_line    0x0000000000009ca8      0x277 /usr/local/xenon/usr/lib/libxenon.a(mem.o)
 .debug_line    0x0000000000009f1f      0x386 /usr/local/xenon/usr/lib/libxenon.a(netif.o)
 .debug_line    0x000000000000a2a5      0x63c /usr/local/xenon/usr/lib/libxenon.a(pbuf.o)
 .debug_line    0x000000000000a8e1       0xbb /usr/local/xenon/usr/lib/libxenon.a(stats.o)
 .debug_line    0x000000000000a99c      0x82a /usr/local/xenon/usr/lib/libxenon.a(tcp.o)
 .debug_line    0x000000000000b1c6      0x29b /usr/local/xenon/usr/lib/libxenon.a(ip_addr.o)
 .debug_line    0x000000000000b461      0x344 /usr/local/xenon/usr/lib/libxenon.a(ip.o)
 .debug_line    0x000000000000b7a5      0x43e /usr/local/xenon/usr/lib/libxenon.a(ip_frag.o)
 .debug_line    0x000000000000bbe3      0x731 /usr/local/xenon/usr/lib/libxenon.a(tcp_out.o)
 .debug_line    0x000000000000c314      0x4b1 /usr/local/xenon/usr/lib/libxenon.a(udp.o)
 .debug_line    0x000000000000c7c5      0x576 /usr/local/xenon/usr/lib/libxenon.a(etharp.o)
 .debug_line    0x000000000000cd3b      0x8ee /usr/local/xenon/usr/lib/libxenon.a(dhcp.o)
 .debug_line    0x000000000000d629      0x27c /usr/local/xenon/usr/lib/libxenon.a(raw.o)
 .debug_line    0x000000000000d8a5       0x51 /usr/local/xenon/usr/lib/libxenon.a(timers.o)
 .debug_line    0x000000000000d8f6      0x465 /usr/local/xenon/usr/lib/libxenon.a(enet.o)
 .debug_line    0x000000000000dd5b      0x28d /usr/local/xenon/usr/lib/libxenon.a(network.o)
 .debug_line    0x000000000000dfe8      0x5f7 /usr/local/xenon/usr/lib/libxenon.a(elf.o)
 .debug_line    0x000000000000e5df      0x56b /usr/local/xenon/usr/lib/libxenon.a(fdt_ro.o)
 .debug_line    0x000000000000eb4a      0x4de /usr/local/xenon/usr/lib/libxenon.a(fdt_rw.o)
 .debug_line    0x000000000000f028      0x544 /usr/local/xenon/usr/lib/libxenon.a(xb360.o)
 .debug_line    0x000000000000f56c      0x1e0 /usr/local/xenon/usr/lib/libxenon.a(lib_malloc.o)
 .debug_line    0x000000000000f74c       0xbf /usr/local/xenon/usr/lib/libxenon.a(io.o)
 .debug_line    0x000000000000f80b       0xea /usr/local/xenon/usr/lib/libxenon.a(dummy.o)
 .debug_line    0x000000000000f8f5      0x62d /usr/local/xenon/usr/lib/libxenon.a(ohci.o)
 .debug_line    0x000000000000ff22      0x2ed /usr/local/xenon/usr/lib/libxenon.a(usbdebug.o)
 .debug_line    0x000000000001020f      0x219 /usr/local/xenon/usr/lib/libxenon.a(usb_os.o)
 .debug_line    0x0000000000010428       0xf4 /usr/local/xenon/usr/lib/libxenon.a(xenon_gpio.o)
 .debug_line    0x000000000001051c       0xab /usr/local/xenon/usr/lib/libxenon.a(init.o)
 .debug_line    0x00000000000105c7      0x6a9 /usr/local/xenon/usr/lib/libxenon.a(tcp_in.o)
 .debug_line    0x0000000000010c70      0x234 /usr/local/xenon/usr/lib/libxenon.a(inet_chksum.o)
 .debug_line    0x0000000000010ea4      0x3ce /usr/local/xenon/usr/lib/libxenon.a(dns.o)
 .debug_line    0x0000000000011272      0x1ea /usr/local/xenon/usr/lib/libxenon.a(memp.o)
 .debug_line    0x000000000001145c      0x273 /usr/local/xenon/usr/lib/libxenon.a(icmp.o)
 .debug_line    0x00000000000116cf      0x273 /usr/local/xenon/usr/lib/libxenon.a(fdt.o)
 .debug_line    0x0000000000011942      0x1e0 /usr/local/xenon/usr/lib/libxenon.a(hmac_sha1.o)
 .debug_line    0x0000000000011b22       0x9c /usr/local/xenon/usr/lib/libxenon.a(rc4.o)
 .debug_line    0x0000000000011bbe      0x25a /usr/local/xenon/usr/lib/libxenon.a(sha1.o)
 .debug_line    0x0000000000011e18       0xe9 /usr/local/xenon/usr/lib/libxenon.a(lib_queue.o)
 .debug_line    0x0000000000011f01      0x417 /usr/local/xenon/usr/lib/libfat.a(libfat.o)
 .debug_line    0x0000000000012318      0x60b /usr/local/xenon/usr/lib/libfat.a(partition.o)
 .debug_line    0x0000000000012923      0x3df /usr/local/xenon/usr/lib/libfat.a(cache.o)
 .debug_line    0x0000000000012d02      0x8d9 /usr/local/xenon/usr/lib/libfat.a(directory.o)
 .debug_line    0x00000000000135db      0x128 /usr/local/xenon/usr/lib/libfat.a(disc.o)
 .debug_line    0x0000000000013703      0x57c /usr/local/xenon/usr/lib/libfat.a(fatdir.o)
 .debug_line    0x0000000000013c7f      0x794 /usr/local/xenon/usr/lib/libfat.a(fatfile.o)
 .debug_line    0x0000000000014413      0x36f /usr/local/xenon/usr/lib/libfat.a(file_allocation_table.o)
 .debug_line    0x0000000000014782      0x14c /usr/local/xenon/usr/lib/libfat.a(filetime.o)
 .debug_line    0x00000000000148ce       0x74 /usr/local/xenon/usr/lib/libfat.a(lock.o)
 .debug_line    0x0000000000014942      0x2ff /usr/local/xenon/usr/lib/libxtaf.a(xtaf.o)
 .debug_line    0x0000000000014c41      0x3b3 /usr/local/xenon/usr/lib/libxtaf.a(xtaf_partition.o)
 .debug_line    0x0000000000014ff4      0x132 /usr/local/xenon/usr/lib/libxtaf.a(xtaf_util.o)
 .debug_line    0x0000000000015126      0x3e4 /usr/local/xenon/usr/lib/libxtaf.a(cache.o)
 .debug_line    0x000000000001550a      0x2ea /usr/local/xenon/usr/lib/libxtaf.a(xtaf_dir.o)
 .debug_line    0x00000000000157f4      0x515 /usr/local/xenon/usr/lib/libxtaf.a(xtaf_file.o)
 .debug_line    0x0000000000015d09      0x196 /usr/local/xenon/xenon/lib/32/libm.a(lib_a-s_ceil.o)
 .debug_line    0x0000000000015e9f      0x1a1 /usr/local/xenon/xenon/lib/32/libm.a(lib_a-s_floor.o)
 .debug_line    0x0000000000016040       0x78 /usr/local/xenon/lib/gcc/xenon/4.7.1/32/libgcc.a(crtsavgpr.o)
 .debug_line    0x00000000000160b8       0x7c /usr/local/xenon/lib/gcc/xenon/4.7.1/32/libgcc.a(crtresxgpr.o)
 .debug_line    0x0000000000016134      0x6d8 /usr/local/xenon/lib/gcc/xenon/4.7.1/32/libgcc.a(unwind-dw2-fde-dip.o)
 .debug_line    0x000000000001680c      0x183 /usr/local/xenon/xenon/lib/32/libc.a(lib_a-assert.o)
 .debug_line    0x000000000001698f      0x15b /usr/local/xenon/xenon/lib/32/libc.a(lib_a-atoi.o)
 .debug_line    0x0000000000016aea      0x15d /usr/local/xenon/xenon/lib/32/libc.a(lib_a-calloc.o)
 .debug_line    0x0000000000016c47      0x143 /usr/local/xenon/xenon/lib/32/libc.a(lib_a-callocr.o)
 .debug_line    0x0000000000016d8a       0x68 /usr/local/xenon/xenon/lib/32/libc.a(lib_a-ctype_.o)
 .debug_line    0x0000000000016df2      0x115 /usr/local/xenon/xenon/lib/32/libc.a(lib_a-errno.o)
 .debug_line    0x0000000000016f07      0x172 /usr/local/xenon/xenon/lib/32/libc.a(lib_a-exit.o)
 .debug_line    0x0000000000017079      0x1b8 /usr/local/xenon/xenon/lib/32/libc.a(lib_a-fclose.o)
 .debug_line    0x0000000000017231      0x2a0 /usr/local/xenon/xenon/lib/32/libc.a(lib_a-fflush.o)
 .debug_line    0x00000000000174d1      0x24b /usr/local/xenon/xenon/lib/32/libc.a(lib_a-findfp.o)
 .debug_line    0x000000000001771c      0x17d /usr/local/xenon/xenon/lib/32/libc.a(lib_a-fiprintf.o)
 .debug_line    0x0000000000017899      0x1a2 /usr/local/xenon/xenon/lib/32/libc.a(lib_a-fopen.o)
 .debug_line    0x0000000000017a3b      0x17c /usr/local/xenon/xenon/lib/32/libc.a(lib_a-fprintf.o)
 .debug_line    0x0000000000017bb7      0x1a8 /usr/local/xenon/xenon/lib/32/libc.a(lib_a-fputs.o)
 .debug_line    0x0000000000017d5f      0x22d /usr/local/xenon/xenon/lib/32/libc.a(lib_a-fread.o)
 .debug_line    0x0000000000017f8c      0x283 /usr/local/xenon/xenon/lib/32/libc.a(lib_a-freer.o)
 .debug_line    0x000000000001820f      0x2dd /usr/local/xenon/xenon/lib/32/libc.a(lib_a-fseek.o)
 .debug_line    0x00000000000184ec      0x177 /usr/local/xenon/xenon/lib/32/libc.a(lib_a-fstatr.o)
 .debug_line    0x0000000000018663      0x1b6 /usr/local/xenon/xenon/lib/32/libc.a(lib_a-ftell.o)
 .debug_line    0x0000000000018819      0x2be /usr/local/xenon/xenon/lib/32/libc.a(lib_a-fvwrite.o)
 .debug_line    0x0000000000018ad7      0x1ae /usr/local/xenon/xenon/lib/32/libc.a(lib_a-fwalk.o)
 .debug_line    0x0000000000018c85      0x165 /usr/local/xenon/xenon/lib/32/libc.a(lib_a-getenv.o)
 .debug_line    0x0000000000018dea      0x1a9 /usr/local/xenon/xenon/lib/32/libc.a(lib_a-getenv_r.o)
 .debug_line    0x0000000000018f93       0xf9 /usr/local/xenon/xenon/lib/32/libc.a(lib_a-impure.o)
 .debug_line    0x000000000001908c      0x113 /usr/local/xenon/xenon/lib/32/libc.a(lib_a-lcltime_r.o)
 .debug_line    0x000000000001919f      0x1c0 /usr/local/xenon/xenon/lib/32/libc.a(lib_a-locale.o)
 .debug_line    0x000000000001935f      0x1fc /usr/local/xenon/xenon/lib/32/libc.a(lib_a-makebuf.o)
 .debug_line    0x000000000001955b      0x15d /usr/local/xenon/xenon/lib/32/libc.a(lib_a-malign.o)
 .debug_line    0x00000000000196b8      0x19b /usr/local/xenon/xenon/lib/32/libc.a(lib_a-malignr.o)
 .debug_line    0x0000000000019853      0x163 /usr/local/xenon/xenon/lib/32/libc.a(lib_a-malloc.o)
 .debug_line    0x00000000000199b6      0x3af /usr/local/xenon/xenon/lib/32/libc.a(lib_a-mallocr.o)
 .debug_line    0x0000000000019d65      0x195 /usr/local/xenon/xenon/lib/32/libc.a(lib_a-mbrtowc.o)
 .debug_line    0x0000000000019efa      0x168 /usr/local/xenon/xenon/lib/32/libc.a(lib_a-mbsrtowcs.o)
 .debug_line    0x000000000001a062      0x18c /usr/local/xenon/xenon/lib/32/libc.a(lib_a-mbtowc_r.o)
 .debug_line    0x000000000001a1ee      0x134 /usr/local/xenon/xenon/lib/32/libc.a(lib_a-memchr.o)
 .debug_line    0x000000000001a322      0x125 /usr/local/xenon/xenon/lib/32/libc.a(lib_a-memcmp.o)
 .debug_line    0x000000000001a447      0x178 /usr/local/xenon/xenon/lib/32/libc.a(lib_a-memcpy.o)
 .debug_line    0x000000000001a5bf      0x198 /usr/local/xenon/xenon/lib/32/libc.a(lib_a-memmove.o)
 .debug_line    0x000000000001a757      0x179 /usr/local/xenon/xenon/lib/32/libc.a(lib_a-memset.o)
 .debug_line    0x000000000001a8d0      0x356 /usr/local/xenon/xenon/lib/32/libc.a(lib_a-mktime.o)
 .debug_line    0x000000000001ac26      0x399 /usr/local/xenon/xenon/lib/32/libc.a(lib_a-mktm_r.o)
 .debug_line    0x000000000001afbf      0x175 /usr/local/xenon/xenon/lib/32/libc.a(lib_a-openr.o)
 .debug_line    0x000000000001b134      0x17f /usr/local/xenon/xenon/lib/32/libc.a(lib_a-printf.o)
 .debug_line    0x000000000001b2b3      0x15f /usr/local/xenon/xenon/lib/32/libc.a(lib_a-putchar.o)
 .debug_line    0x000000000001b412      0x25c /usr/local/xenon/xenon/lib/32/libc.a(lib_a-putc.o)
 .debug_line    0x000000000001b66e      0x193 /usr/local/xenon/xenon/lib/32/libc.a(lib_a-puts.o)
 .debug_line    0x000000000001b801      0x162 /usr/local/xenon/xenon/lib/32/libc.a(lib_a-rand.o)
 .debug_line    0x000000000001b963      0x15e /usr/local/xenon/xenon/lib/32/libc.a(lib_a-realloc.o)
 .debug_line    0x000000000001bac1      0x2c0 /usr/local/xenon/xenon/lib/32/libc.a(lib_a-reallocr.o)
 .debug_line    0x000000000001bd81      0x1ac /usr/local/xenon/xenon/lib/32/libc.a(lib_a-reent.o)
 .debug_line    0x000000000001bf2d      0x21d /usr/local/xenon/xenon/lib/32/libc.a(lib_a-refill.o)
 .debug_line    0x000000000001c14a      0x16d /usr/local/xenon/xenon/lib/32/libc.a(lib_a-sbrkr.o)
 .debug_line    0x000000000001c2b7      0x157 /usr/local/xenon/xenon/lib/32/libc.a(lib_a-setbuf.o)
 .debug_line    0x000000000001c40e      0x10c /usr/local/xenon/xenon/lib/32/libc.a(lib_a-setjmp.o)
 .debug_line    0x000000000001c51a      0x1eb /usr/local/xenon/xenon/lib/32/libc.a(lib_a-setvbuf.o)
 .debug_line    0x000000000001c705      0x235 /usr/local/xenon/xenon/lib/32/libc.a(lib_a-snprintf.o)
 .debug_line    0x000000000001c93a      0x1b3 /usr/local/xenon/xenon/lib/32/libc.a(lib_a-sprintf.o)
 .debug_line    0x000000000001caed      0x1bf /usr/local/xenon/xenon/lib/32/libc.a(lib_a-stdio.o)
 .debug_line    0x000000000001ccac       0xdd /usr/local/xenon/xenon/lib/32/libc.a(lib_a-strcat.o)
 .debug_line    0x000000000001cd89      0x11b /usr/local/xenon/xenon/lib/32/libc.a(lib_a-strchr.o)
 .debug_line    0x000000000001cea4       0xe9 /usr/local/xenon/xenon/lib/32/libc.a(lib_a-strcmp.o)
 .debug_line    0x000000000001cf8d       0xe3 /usr/local/xenon/xenon/lib/32/libc.a(lib_a-strcpy.o)
 .debug_line    0x000000000001d070      0x159 /usr/local/xenon/xenon/lib/32/libc.a(lib_a-strdup.o)
 .debug_line    0x000000000001d1c9      0x168 /usr/local/xenon/xenon/lib/32/libc.a(lib_a-strdup_r.o)
 .debug_line    0x000000000001d331      0x11f /usr/local/xenon/xenon/lib/32/libc.a(lib_a-strlcat.o)
 .debug_line    0x000000000001d450      0x112 /usr/local/xenon/xenon/lib/32/libc.a(lib_a-strlcpy.o)
 .debug_line    0x000000000001d562      0x11c /usr/local/xenon/xenon/lib/32/libc.a(lib_a-strlen.o)
 .debug_line    0x000000000001d67e      0x138 /usr/local/xenon/xenon/lib/32/libc.a(lib_a-strncasecmp.o)
 .debug_line    0x000000000001d7b6      0x196 /usr/local/xenon/xenon/lib/32/libc.a(lib_a-strncmp.o)
 .debug_line    0x000000000001d94c      0x151 /usr/local/xenon/xenon/lib/32/libc.a(lib_a-strncpy.o)
 .debug_line    0x000000000001da9d       0xff /usr/local/xenon/xenon/lib/32/libc.a(lib_a-strnlen.o)
 .debug_line    0x000000000001db9c       0xd0 /usr/local/xenon/xenon/lib/32/libc.a(lib_a-strpbrk.o)
 .debug_line    0x000000000001dc6c       0xd2 /usr/local/xenon/xenon/lib/32/libc.a(lib_a-strrchr.o)
 .debug_line    0x000000000001dd3e      0x15e /usr/local/xenon/xenon/lib/32/libc.a(lib_a-strtok.o)
 .debug_line    0x000000000001de9c      0x10c /usr/local/xenon/xenon/lib/32/libc.a(lib_a-strtok_r.o)
 .debug_line    0x000000000001dfa8      0x1f5 /usr/local/xenon/xenon/lib/32/libc.a(lib_a-strtol.o)
 .debug_line    0x000000000001e19d      0x160 /usr/local/xenon/xenon/lib/32/libc.a(lib_a-strtoull.o)
 .debug_line    0x000000000001e2fd      0x1e9 /usr/local/xenon/xenon/lib/32/libc.a(lib_a-strtoull_r.o)
 .debug_line    0x000000000001e4e6      0xb97 /usr/local/xenon/xenon/lib/32/libc.a(lib_a-svfprintf.o)
 .debug_line    0x000000000001f07d      0x192 /usr/local/xenon/xenon/lib/32/libc.a(lib_a-system.o)
 .debug_line    0x000000000001f20f      0x16f /usr/local/xenon/xenon/lib/32/libc.a(lib_a-time.o)
 .debug_line    0x000000000001f37e      0x126 /usr/local/xenon/xenon/lib/32/libc.a(lib_a-towlower.o)
 .debug_line    0x000000000001f4a4      0x126 /usr/local/xenon/xenon/lib/32/libc.a(lib_a-towupper.o)
 .debug_line    0x000000000001f5ca       0x6a /usr/local/xenon/xenon/lib/32/libc.a(lib_a-tzlock.o)
 .debug_line    0x000000000001f634       0x67 /usr/local/xenon/xenon/lib/32/libc.a(lib_a-tzvars.o)
 .debug_line    0x000000000001f69b      0x8cb /usr/local/xenon/xenon/lib/32/libc.a(lib_a-vfiprintf.o)
 .debug_line    0x000000000001ff66      0xc0e /usr/local/xenon/xenon/lib/32/libc.a(lib_a-vfprintf.o)
 .debug_line    0x0000000000020b74      0x18d /usr/local/xenon/xenon/lib/32/libc.a(lib_a-vsprintf.o)
 .debug_line    0x0000000000020d01      0x1e1 /usr/local/xenon/xenon/lib/32/libc.a(lib_a-wbuf.o)
 .debug_line    0x0000000000020ee2      0x195 /usr/local/xenon/xenon/lib/32/libc.a(lib_a-wcrtomb.o)
 .debug_line    0x0000000000021077      0x188 /usr/local/xenon/xenon/lib/32/libc.a(lib_a-wctob.o)
 .debug_line    0x00000000000211ff      0x189 /usr/local/xenon/xenon/lib/32/libc.a(lib_a-wctomb_r.o)
 .debug_line    0x0000000000021388      0x16e /usr/local/xenon/xenon/lib/32/libc.a(lib_a-writer.o)
 .debug_line    0x00000000000214f6      0x1de /usr/local/xenon/xenon/lib/32/libc.a(lib_a-wsetup.o)
 .debug_line    0x00000000000216d4      0x1d7 /usr/local/xenon/xenon/lib/32/libc.a(lib_a-__call_atexit.o)
 .debug_line    0x00000000000218ab      0x16e /usr/local/xenon/xenon/lib/32/libc.a(lib_a-closer.o)
 .debug_line    0x0000000000021a19       0xd7 /usr/local/xenon/xenon/lib/32/libc.a(lib_a-div.o)
 .debug_line    0x0000000000021af0      0x75f /usr/local/xenon/xenon/lib/32/libc.a(lib_a-dtoa.o)
 .debug_line    0x000000000002224f       0x5d /usr/local/xenon/xenon/lib/32/libc.a(lib_a-environ.o)
 .debug_line    0x00000000000222ac      0x15a /usr/local/xenon/xenon/lib/32/libc.a(lib_a-envlock.o)
 .debug_line    0x0000000000022406      0x1a5 /usr/local/xenon/xenon/lib/32/libc.a(lib_a-execr.o)
 .debug_line    0x00000000000225ab      0x135 /usr/local/xenon/xenon/lib/32/libc.a(lib_a-flags.o)
 .debug_line    0x00000000000226e0      0x1d9 /usr/local/xenon/xenon/lib/32/libc.a(lib_a-fputwc.o)
 .debug_line    0x00000000000228b9      0x17f /usr/local/xenon/xenon/lib/32/libc.a(lib_a-gettimeofdayr.o)
 .debug_line    0x0000000000022a38      0x106 /usr/local/xenon/xenon/lib/32/libc.a(lib_a-gettzinfo.o)
 .debug_line    0x0000000000022b3e      0x16f /usr/local/xenon/xenon/lib/32/libc.a(lib_a-isattyr.o)
 .debug_line    0x0000000000022cad      0x179 /usr/local/xenon/xenon/lib/32/libc.a(lib_a-lseekr.o)
 .debug_line    0x0000000000022e26      0x1bb /usr/local/xenon/xenon/lib/32/libc.a(lib_a-mbsnrtowcs.o)
 .debug_line    0x0000000000022fe1      0x757 /usr/local/xenon/xenon/lib/32/libc.a(lib_a-mprec.o)
 .debug_line    0x0000000000023738      0x16d /usr/local/xenon/xenon/lib/32/libc.a(lib_a-readr.o)
 .debug_line    0x00000000000238a5      0x177 /usr/local/xenon/xenon/lib/32/libc.a(lib_a-s_fpclassify.o)
 .debug_line    0x0000000000023a1c      0x8a8 /usr/local/xenon/xenon/lib/32/libc.a(lib_a-svfiprintf.o)
 .debug_line    0x00000000000242c4       0xd5 /usr/local/xenon/lib/gcc/xenon/4.7.1/32/libgcc.a(_udivdi3.o)
 .debug_line    0x0000000000024399       0xf8 /usr/local/xenon/lib/gcc/xenon/4.7.1/32/libgcc.a(_umoddi3.o)

.debug_str      0x0000000000000000    0x14498
 .debug_str     0x0000000000000000      0x130 /usr/local/xenon/lib/gcc/xenon/4.7.1/../../../../xenon/lib/../lib/crt1.o
                                        0x18b (size before relaxing)
 .debug_str     0x0000000000000130      0x727 file.o
                                        0x9cd (size before relaxing)
 .debug_str     0x0000000000000857       0x93 log.o
                                        0x54a (size before relaxing)
 .debug_str     0x00000000000008ea      0x302 main.o
                                        0x86c (size before relaxing)
 .debug_str     0x0000000000000bec      0x511 mount.o
                                        0xd68 (size before relaxing)
 .debug_str     0x00000000000010fd      0x3cf tftp.o
                                        0x73a (size before relaxing)
 .debug_str     0x00000000000014cc      0x797 httpd.o
                                        0xa55 (size before relaxing)
 .debug_str     0x0000000000001c63       0xf4 httpd_flash.o
                                        0x491 (size before relaxing)
 .debug_str     0x0000000000001d57       0xec httpd_fuse.o
                                        0x3ce (size before relaxing)
 .debug_str     0x0000000000001e43       0xaf httpd_index.o
                                        0x3b3 (size before relaxing)
 .debug_str     0x0000000000001ef2       0xfa httpd_keyvault.o
                                        0x4d8 (size before relaxing)
 .debug_str     0x0000000000001fec      0x498 kbootconf.o
                                        0xa14 (size before relaxing)
 .debug_str     0x0000000000002484      0x117 puff.o
                                        0x1df (size before relaxing)
 .debug_str     0x000000000000259b       0x1b /usr/local/xenon/usr/lib/libxenon.a(argv.o)
                                        0x118 (size before relaxing)
 .debug_str     0x00000000000025b6      0x17c /usr/local/xenon/usr/lib/libxenon.a(console.o)
                                        0x300 (size before relaxing)
 .debug_str     0x0000000000002732      0x612 /usr/local/xenon/usr/lib/libxenon.a(ata.o)
                                        0x91f (size before relaxing)
 .debug_str     0x0000000000002d44      0x437 /usr/local/xenon/usr/lib/libxenon.a(iso9660.o)
                                        0xd9d (size before relaxing)
 .debug_str     0x000000000000317b       0x59 /usr/local/xenon/usr/lib/libxenon.a(input.o)
                                        0x19e (size before relaxing)
 .debug_str     0x00000000000031d4      0x4a4 /usr/local/xenon/usr/lib/libxenon.a(newlib.o)
                                        0xdff (size before relaxing)
 .debug_str     0x0000000000003678      0x180 /usr/local/xenon/usr/lib/libxenon.a(xenon_syscalls.o)
                                        0x77f (size before relaxing)
 .debug_str     0x00000000000037f8       0x98 /usr/local/xenon/usr/lib/libxenon.a(c_except.o)
                                        0x22a (size before relaxing)
 .debug_str     0x0000000000003890      0x113 /usr/local/xenon/usr/lib/libxenon.a(vm.o)
                                        0x222 (size before relaxing)
 .debug_str     0x00000000000039a3       0x28 /usr/local/xenon/usr/lib/libxenon.a(time.o)
                                        0x105 (size before relaxing)
 .debug_str     0x00000000000039cb      0x84f /usr/local/xenon/usr/lib/libxenon.a(usbctrl.o)
                                        0xa39 (size before relaxing)
 .debug_str     0x000000000000421a      0x395 /usr/local/xenon/usr/lib/libxenon.a(usbd.o)
                                        0xaf7 (size before relaxing)
 .debug_str     0x00000000000045af       0xa6 /usr/local/xenon/usr/lib/libxenon.a(usbdevs.o)
                                        0x711 (size before relaxing)
 .debug_str     0x0000000000004655      0x112 /usr/local/xenon/usr/lib/libxenon.a(usbhid.o)
                                        0x92e (size before relaxing)
 .debug_str     0x0000000000004767      0x3bf /usr/local/xenon/usr/lib/libxenon.a(usbhub.o)
                                        0xc9d (size before relaxing)
 .debug_str     0x0000000000004b26       0x92 /usr/local/xenon/usr/lib/libxenon.a(usbmain.o)
                                        0x65b (size before relaxing)
 .debug_str     0x0000000000004bb8      0xbd6 /usr/local/xenon/usr/lib/libxenon.a(tinyehci.o)
                                       0x122b (size before relaxing)
 .debug_str     0x000000000000578e       0x73 /usr/local/xenon/usr/lib/libxenon.a(debug.o)
                                        0x177 (size before relaxing)
 .debug_str     0x0000000000005801      0x1b4 /usr/local/xenon/usr/lib/libxenon.a(xenon_smc.o)
                                        0x38d (size before relaxing)
 .debug_str     0x00000000000059b5      0x147 /usr/local/xenon/usr/lib/libxenon.a(xenon_power.o)
                                        0x32e (size before relaxing)
 .debug_str     0x0000000000005afc       0x27 /usr/local/xenon/usr/lib/libxenon.a(xenon_secotp.o)
                                        0x112 (size before relaxing)
 .debug_str     0x0000000000005b23       0xce /usr/local/xenon/usr/lib/libxenon.a(sound.o)
                                        0x24c (size before relaxing)
 .debug_str     0x0000000000005bf1       0x26 /usr/local/xenon/usr/lib/libxenon.a(xenon_uart.o)
                                        0x10b (size before relaxing)
 .debug_str     0x0000000000005c17      0x279 /usr/local/xenon/usr/lib/libxenon.a(xenon_sfcx.o)
                                        0x5ca (size before relaxing)
 .debug_str     0x0000000000005e90      0x1a5 /usr/local/xenon/usr/lib/libxenon.a(xenon_config.o)
                                        0x414 (size before relaxing)
 .debug_str     0x0000000000006035      0x7cd /usr/local/xenon/usr/lib/libxenon.a(xenos.o)
                                        0xa8d (size before relaxing)
 .debug_str     0x0000000000006802       0xc4 /usr/local/xenon/usr/lib/libxenon.a(xenos_edid.o)
                                        0x605 (size before relaxing)
 .debug_str     0x00000000000068c6      0x106 /usr/local/xenon/usr/lib/libxenon.a(mem.o)
                                        0x2da (size before relaxing)
 .debug_str     0x00000000000069cc      0x172 /usr/local/xenon/usr/lib/libxenon.a(netif.o)
                                        0x86d (size before relaxing)
 .debug_str     0x0000000000006b3e      0x1fe /usr/local/xenon/usr/lib/libxenon.a(pbuf.o)
                                        0x4bb (size before relaxing)
 .debug_str     0x0000000000006d3c       0x2b /usr/local/xenon/usr/lib/libxenon.a(stats.o)
                                        0x23b (size before relaxing)
 .debug_str     0x0000000000006d67      0x32d /usr/local/xenon/usr/lib/libxenon.a(tcp.o)
                                        0xa30 (size before relaxing)
 .debug_str     0x0000000000007094       0x92 /usr/local/xenon/usr/lib/libxenon.a(ip_addr.o)
                                        0x2b6 (size before relaxing)
 .debug_str     0x0000000000007126      0x185 /usr/local/xenon/usr/lib/libxenon.a(ip.o)
                                        0x714 (size before relaxing)
 .debug_str     0x00000000000072ab      0x28d /usr/local/xenon/usr/lib/libxenon.a(ip_frag.o)
                                        0x769 (size before relaxing)
 .debug_str     0x0000000000007538      0x16c /usr/local/xenon/usr/lib/libxenon.a(tcp_out.o)
                                        0x8d1 (size before relaxing)
 .debug_str     0x00000000000076a4       0x95 /usr/local/xenon/usr/lib/libxenon.a(udp.o)
                                        0x7bb (size before relaxing)
 .debug_str     0x0000000000007739      0x2ce /usr/local/xenon/usr/lib/libxenon.a(etharp.o)
                                        0x8f4 (size before relaxing)
 .debug_str     0x0000000000007a07      0x32c /usr/local/xenon/usr/lib/libxenon.a(dhcp.o)
                                        0x963 (size before relaxing)
 .debug_str     0x0000000000007d33       0x86 /usr/local/xenon/usr/lib/libxenon.a(raw.o)
                                        0x4a8 (size before relaxing)
 .debug_str     0x0000000000007db9       0x21 /usr/local/xenon/usr/lib/libxenon.a(timers.o)
                                         0xf9 (size before relaxing)
 .debug_str     0x0000000000007dda      0x144 /usr/local/xenon/usr/lib/libxenon.a(enet.o)
                                        0x5c3 (size before relaxing)
 .debug_str     0x0000000000007f1e       0x62 /usr/local/xenon/usr/lib/libxenon.a(network.o)
                                        0x5a0 (size before relaxing)
 .debug_str     0x0000000000007f80      0x2f9 /usr/local/xenon/usr/lib/libxenon.a(elf.o)
                                        0x68e (size before relaxing)
 .debug_str     0x0000000000008279      0x3e2 /usr/local/xenon/usr/lib/libxenon.a(fdt_ro.o)
                                        0x5fc (size before relaxing)
 .debug_str     0x000000000000865b      0x30d /usr/local/xenon/usr/lib/libxenon.a(fdt_rw.o)
                                        0x64e (size before relaxing)
 .debug_str     0x0000000000008968      0x228 /usr/local/xenon/usr/lib/libxenon.a(xb360.o)
                                        0xa14 (size before relaxing)
 .debug_str     0x0000000000008b90      0x11a /usr/local/xenon/usr/lib/libxenon.a(lib_malloc.o)
                                        0x2d1 (size before relaxing)
 .debug_str     0x0000000000008caa       0x17 /usr/local/xenon/usr/lib/libxenon.a(io.o)
                                         0xfe (size before relaxing)
 .debug_str     0x0000000000008cc1       0x34 /usr/local/xenon/usr/lib/libxenon.a(dummy.o)
                                        0x59b (size before relaxing)
 .debug_str     0x0000000000008cf5      0x558 /usr/local/xenon/usr/lib/libxenon.a(ohci.o)
                                        0xeeb (size before relaxing)
 .debug_str     0x000000000000924d       0xef /usr/local/xenon/usr/lib/libxenon.a(usbdebug.o)
                                        0x971 (size before relaxing)
 .debug_str     0x000000000000933c       0x5b /usr/local/xenon/usr/lib/libxenon.a(usb_os.o)
                                        0x242 (size before relaxing)
 .debug_str     0x0000000000009397       0x25 /usr/local/xenon/usr/lib/libxenon.a(xenon_gpio.o)
                                        0x139 (size before relaxing)
 .debug_str     0x00000000000093bc       0x32 /usr/local/xenon/usr/lib/libxenon.a(init.o)
                                        0x122 (size before relaxing)
 .debug_str     0x00000000000093ee      0x119 /usr/local/xenon/usr/lib/libxenon.a(tcp_in.o)
                                        0x815 (size before relaxing)
 .debug_str     0x0000000000009507       0x90 /usr/local/xenon/usr/lib/libxenon.a(inet_chksum.o)
                                        0x1ed (size before relaxing)
 .debug_str     0x0000000000009597      0x1b2 /usr/local/xenon/usr/lib/libxenon.a(dns.o)
                                        0x4c5 (size before relaxing)
 .debug_str     0x0000000000009749       0x48 /usr/local/xenon/usr/lib/libxenon.a(memp.o)
                                        0x2a5 (size before relaxing)
 .debug_str     0x0000000000009791       0x5c /usr/local/xenon/usr/lib/libxenon.a(icmp.o)
                                        0x4cc (size before relaxing)
 .debug_str     0x00000000000097ed       0x28 /usr/local/xenon/usr/lib/libxenon.a(fdt.o)
                                        0x297 (size before relaxing)
 .debug_str     0x0000000000009815       0x3e /usr/local/xenon/usr/lib/libxenon.a(hmac_sha1.o)
                                        0x234 (size before relaxing)
 .debug_str     0x0000000000009853       0x1a /usr/local/xenon/usr/lib/libxenon.a(rc4.o)
                                         0x9f (size before relaxing)
 .debug_str     0x000000000000986d       0x4a /usr/local/xenon/usr/lib/libxenon.a(sha1.o)
                                        0x19c (size before relaxing)
 .debug_str     0x00000000000098b7       0x4a /usr/local/xenon/usr/lib/libxenon.a(lib_queue.o)
                                        0x155 (size before relaxing)
 .debug_str     0x0000000000009901      0x38c /usr/local/xenon/usr/lib/libfat.a(libfat.o)
                                        0xd24 (size before relaxing)
 .debug_str     0x0000000000009c8d      0x57f /usr/local/xenon/usr/lib/libfat.a(partition.o)
                                       0x1124 (size before relaxing)
 .debug_str     0x000000000000a20c      0x1ce /usr/local/xenon/usr/lib/libfat.a(cache.o)
                                        0x546 (size before relaxing)
 .debug_str     0x000000000000a3da      0x7e2 /usr/local/xenon/usr/lib/libfat.a(directory.o)
                                        0xe79 (size before relaxing)
 .debug_str     0x000000000000abbc       0x89 /usr/local/xenon/usr/lib/libfat.a(disc.o)
                                        0x2d0 (size before relaxing)
 .debug_str     0x000000000000ac45      0x1ff /usr/local/xenon/usr/lib/libfat.a(fatdir.o)
                                        0xf0e (size before relaxing)
 .debug_str     0x000000000000ae44      0x22f /usr/local/xenon/usr/lib/libfat.a(fatfile.o)
                                        0xfa8 (size before relaxing)
 .debug_str     0x000000000000b073       0xbb /usr/local/xenon/usr/lib/libfat.a(file_allocation_table.o)
                                        0x61c (size before relaxing)
 .debug_str     0x000000000000b12e       0x6d /usr/local/xenon/usr/lib/libfat.a(filetime.o)
                                        0x1cb (size before relaxing)
 .debug_str     0x000000000000b19b       0x42 /usr/local/xenon/usr/lib/libfat.a(lock.o)
                                        0x12e (size before relaxing)
 .debug_str     0x000000000000b1dd      0x305 /usr/local/xenon/usr/lib/libxtaf.a(xtaf.o)
                                        0x728 (size before relaxing)
 .debug_str     0x000000000000b4e2      0x1b1 /usr/local/xenon/usr/lib/libxtaf.a(xtaf_partition.o)
                                        0xdf8 (size before relaxing)
 .debug_str     0x000000000000b693       0x51 /usr/local/xenon/usr/lib/libxtaf.a(xtaf_util.o)
                                        0x1d6 (size before relaxing)
 .debug_str     0x000000000000b6e4      0x158 /usr/local/xenon/usr/lib/libxtaf.a(cache.o)
                                        0x53b (size before relaxing)
 .debug_str     0x000000000000b83c       0x7d /usr/local/xenon/usr/lib/libxtaf.a(xtaf_dir.o)
                                        0xc07 (size before relaxing)
 .debug_str     0x000000000000b8b9       0x98 /usr/local/xenon/usr/lib/libxtaf.a(xtaf_file.o)
                                        0xdc8 (size before relaxing)
 .debug_str     0x000000000000b951       0xad /usr/local/xenon/xenon/lib/32/libm.a(lib_a-s_ceil.o)
                                        0x17b (size before relaxing)
 .debug_str     0x000000000000b9fe       0x41 /usr/local/xenon/xenon/lib/32/libm.a(lib_a-s_floor.o)
                                        0x17d (size before relaxing)
 .debug_str     0x000000000000ba3f     0x605e /usr/local/xenon/lib/gcc/xenon/4.7.1/32/libgcc.a(unwind-dw2-fde-dip.o)
                                       0x61a2 (size before relaxing)
 .debug_str     0x0000000000011a9d       0x90 /usr/local/xenon/xenon/lib/32/libc.a(lib_a-assert.o)
                                        0x51a (size before relaxing)
 .debug_str     0x0000000000011b2d       0x53 /usr/local/xenon/xenon/lib/32/libc.a(lib_a-atoi.o)
                                        0x4e5 (size before relaxing)
 .debug_str     0x0000000000011b80       0x46 /usr/local/xenon/xenon/lib/32/libc.a(lib_a-calloc.o)
                                        0x4f2 (size before relaxing)
 .debug_str     0x0000000000011bc6       0x81 /usr/local/xenon/xenon/lib/32/libc.a(lib_a-callocr.o)
                                        0x52b (size before relaxing)
 .debug_str     0x0000000000011c47       0x82 /usr/local/xenon/xenon/lib/32/libc.a(lib_a-ctype_.o)
                                         0xaa (size before relaxing)
 .debug_str     0x0000000000011cc9       0x79 /usr/local/xenon/xenon/lib/32/libc.a(lib_a-errno.o)
                                        0x4da (size before relaxing)
 .debug_str     0x0000000000011d42       0x5e /usr/local/xenon/xenon/lib/32/libc.a(lib_a-exit.o)
                                        0x4fb (size before relaxing)
 .debug_str     0x0000000000011da0       0xc4 /usr/local/xenon/xenon/lib/32/libc.a(lib_a-fclose.o)
                                        0x52e (size before relaxing)
 .debug_str     0x0000000000011e64       0x6b /usr/local/xenon/xenon/lib/32/libc.a(lib_a-fflush.o)
                                        0x53c (size before relaxing)
 .debug_str     0x0000000000011ecf       0xd6 /usr/local/xenon/xenon/lib/32/libc.a(lib_a-findfp.o)
                                        0x5eb (size before relaxing)
 .debug_str     0x0000000000011fa5       0x56 /usr/local/xenon/xenon/lib/32/libc.a(lib_a-fiprintf.o)
                                        0x54a (size before relaxing)
 .debug_str     0x0000000000011ffb       0x5c /usr/local/xenon/xenon/lib/32/libc.a(lib_a-fopen.o)
                                        0x543 (size before relaxing)
 .debug_str     0x0000000000012057       0x53 /usr/local/xenon/xenon/lib/32/libc.a(lib_a-fprintf.o)
                                        0x546 (size before relaxing)
 .debug_str     0x00000000000120aa       0x92 /usr/local/xenon/xenon/lib/32/libc.a(lib_a-fputs.o)
                                        0x54c (size before relaxing)
 .debug_str     0x000000000001213c       0x71 /usr/local/xenon/xenon/lib/32/libc.a(lib_a-fread.o)
                                        0x549 (size before relaxing)
 .debug_str     0x00000000000121ad       0xee /usr/local/xenon/xenon/lib/32/libc.a(lib_a-freer.o)
                                        0x64b (size before relaxing)
 .debug_str     0x000000000001229b       0x5b /usr/local/xenon/xenon/lib/32/libc.a(lib_a-fseek.o)
                                        0x64d (size before relaxing)
 .debug_str     0x00000000000122f6       0x80 /usr/local/xenon/xenon/lib/32/libc.a(lib_a-fstatr.o)
                                        0x5cf (size before relaxing)
 .debug_str     0x0000000000012376       0x43 /usr/local/xenon/xenon/lib/32/libc.a(lib_a-ftell.o)
                                        0x4f8 (size before relaxing)
 .debug_str     0x00000000000123b9       0x69 /usr/local/xenon/xenon/lib/32/libc.a(lib_a-fvwrite.o)
                                        0x584 (size before relaxing)
 .debug_str     0x0000000000012422       0x49 /usr/local/xenon/xenon/lib/32/libc.a(lib_a-fwalk.o)
                                        0x4f7 (size before relaxing)
 .debug_str     0x000000000001246b       0x57 /usr/local/xenon/xenon/lib/32/libc.a(lib_a-getenv.o)
                                        0x4fc (size before relaxing)
 .debug_str     0x00000000000124c2       0x6a /usr/local/xenon/xenon/lib/32/libc.a(lib_a-getenv_r.o)
                                        0x52f (size before relaxing)
 .debug_str     0x000000000001252c       0x47 /usr/local/xenon/xenon/lib/32/libc.a(lib_a-impure.o)
                                        0x4f2 (size before relaxing)
 .debug_str     0x0000000000012573       0x89 /usr/local/xenon/xenon/lib/32/libc.a(lib_a-lcltime_r.o)
                                        0x180 (size before relaxing)
 .debug_str     0x00000000000125fc      0x243 /usr/local/xenon/xenon/lib/32/libc.a(lib_a-locale.o)
                                        0x74f (size before relaxing)
 .debug_str     0x000000000001283f       0x51 /usr/local/xenon/xenon/lib/32/libc.a(lib_a-makebuf.o)
                                        0x5fb (size before relaxing)
 .debug_str     0x0000000000012890       0x4f /usr/local/xenon/xenon/lib/32/libc.a(lib_a-malign.o)
                                        0x4fe (size before relaxing)
 .debug_str     0x00000000000128df       0x31 /usr/local/xenon/xenon/lib/32/libc.a(lib_a-malignr.o)
                                        0x57c (size before relaxing)
 .debug_str     0x0000000000012910       0x3c /usr/local/xenon/xenon/lib/32/libc.a(lib_a-malloc.o)
                                        0x506 (size before relaxing)
 .debug_str     0x000000000001294c       0xc0 /usr/local/xenon/xenon/lib/32/libc.a(lib_a-mallocr.o)
                                        0x701 (size before relaxing)
 .debug_str     0x0000000000012a0c       0x51 /usr/local/xenon/xenon/lib/32/libc.a(lib_a-mbrtowc.o)
                                        0x523 (size before relaxing)
 .debug_str     0x0000000000012a5d       0x5a /usr/local/xenon/xenon/lib/32/libc.a(lib_a-mbsrtowcs.o)
                                        0x516 (size before relaxing)
 .debug_str     0x0000000000012ab7       0x57 /usr/local/xenon/xenon/lib/32/libc.a(lib_a-mbtowc_r.o)
                                        0x52b (size before relaxing)
 .debug_str     0x0000000000012b0e       0x8a /usr/local/xenon/xenon/lib/32/libc.a(lib_a-memchr.o)
                                        0x142 (size before relaxing)
 .debug_str     0x0000000000012b98       0x3c /usr/local/xenon/xenon/lib/32/libc.a(lib_a-memcmp.o)
                                        0x128 (size before relaxing)
 .debug_str     0x0000000000012bd4       0x63 /usr/local/xenon/xenon/lib/32/libc.a(lib_a-memcpy.o)
                                        0x14f (size before relaxing)
 .debug_str     0x0000000000012c37       0x46 /usr/local/xenon/xenon/lib/32/libc.a(lib_a-memmove.o)
                                        0x15b (size before relaxing)
 .debug_str     0x0000000000012c7d       0x49 /usr/local/xenon/xenon/lib/32/libc.a(lib_a-memset.o)
                                        0x13c (size before relaxing)
 .debug_str     0x0000000000012cc6      0x140 /usr/local/xenon/xenon/lib/32/libc.a(lib_a-mktime.o)
                                        0x29e (size before relaxing)
 .debug_str     0x0000000000012e06       0x96 /usr/local/xenon/xenon/lib/32/libc.a(lib_a-mktm_r.o)
                                        0x285 (size before relaxing)
 .debug_str     0x0000000000012e9c       0x3a /usr/local/xenon/xenon/lib/32/libc.a(lib_a-openr.o)
                                        0x4e9 (size before relaxing)
 .debug_str     0x0000000000012ed6       0x45 /usr/local/xenon/xenon/lib/32/libc.a(lib_a-printf.o)
                                        0x543 (size before relaxing)
 .debug_str     0x0000000000012f1b       0x4f /usr/local/xenon/xenon/lib/32/libc.a(lib_a-putchar.o)
                                        0x4f4 (size before relaxing)
 .debug_str     0x0000000000012f6a       0x48 /usr/local/xenon/xenon/lib/32/libc.a(lib_a-putc.o)
                                        0x4fc (size before relaxing)
 .debug_str     0x0000000000012fb2       0x41 /usr/local/xenon/xenon/lib/32/libc.a(lib_a-puts.o)
                                        0x53a (size before relaxing)
 .debug_str     0x0000000000012ff3       0x40 /usr/local/xenon/xenon/lib/32/libc.a(lib_a-rand.o)
                                        0x4e3 (size before relaxing)
 .debug_str     0x0000000000013033       0x3d /usr/local/xenon/xenon/lib/32/libc.a(lib_a-realloc.o)
                                        0x4f7 (size before relaxing)
 .debug_str     0x0000000000013070       0x3e /usr/local/xenon/xenon/lib/32/libc.a(lib_a-reallocr.o)
                                        0x5d3 (size before relaxing)
 .debug_str     0x00000000000130ae       0x74 /usr/local/xenon/xenon/lib/32/libc.a(lib_a-reent.o)
                                        0x51f (size before relaxing)
 .debug_str     0x0000000000013122       0x4d /usr/local/xenon/xenon/lib/32/libc.a(lib_a-refill.o)
                                        0x53d (size before relaxing)
 .debug_str     0x000000000001316f       0x3a /usr/local/xenon/xenon/lib/32/libc.a(lib_a-sbrkr.o)
                                        0x4e8 (size before relaxing)
 .debug_str     0x00000000000131a9       0x43 /usr/local/xenon/xenon/lib/32/libc.a(lib_a-setbuf.o)
                                        0x4e2 (size before relaxing)
 .debug_str     0x00000000000131ec       0x3c /usr/local/xenon/xenon/lib/32/libc.a(lib_a-setvbuf.o)
                                        0x513 (size before relaxing)
 .debug_str     0x0000000000013228       0x56 /usr/local/xenon/xenon/lib/32/libc.a(lib_a-snprintf.o)
                                        0x556 (size before relaxing)
 .debug_str     0x000000000001327e       0x47 /usr/local/xenon/xenon/lib/32/libc.a(lib_a-sprintf.o)
                                        0x547 (size before relaxing)
 .debug_str     0x00000000000132c5       0x70 /usr/local/xenon/xenon/lib/32/libc.a(lib_a-stdio.o)
                                        0x54c (size before relaxing)
 .debug_str     0x0000000000013335       0x47 /usr/local/xenon/xenon/lib/32/libc.a(lib_a-strcat.o)
                                        0x133 (size before relaxing)
 .debug_str     0x000000000001337c       0x3c /usr/local/xenon/xenon/lib/32/libc.a(lib_a-strchr.o)
                                        0x133 (size before relaxing)
 .debug_str     0x00000000000133b8       0x3c /usr/local/xenon/xenon/lib/32/libc.a(lib_a-strcmp.o)
                                        0x121 (size before relaxing)
 .debug_str     0x00000000000133f4       0x3c /usr/local/xenon/xenon/lib/32/libc.a(lib_a-strcpy.o)
                                        0x143 (size before relaxing)
 .debug_str     0x0000000000013430       0x4d /usr/local/xenon/xenon/lib/32/libc.a(lib_a-strdup.o)
                                        0x4e6 (size before relaxing)
 .debug_str     0x000000000001347d       0x3e /usr/local/xenon/xenon/lib/32/libc.a(lib_a-strdup_r.o)
                                        0x503 (size before relaxing)
 .debug_str     0x00000000000134bb       0x3d /usr/local/xenon/xenon/lib/32/libc.a(lib_a-strlcat.o)
                                        0x136 (size before relaxing)
 .debug_str     0x00000000000134f8       0x3d /usr/local/xenon/xenon/lib/32/libc.a(lib_a-strlcpy.o)
                                        0x12a (size before relaxing)
 .debug_str     0x0000000000013535       0x3c /usr/local/xenon/xenon/lib/32/libc.a(lib_a-strlen.o)
                                        0x13b (size before relaxing)
 .debug_str     0x0000000000013571       0x46 /usr/local/xenon/xenon/lib/32/libc.a(lib_a-strncasecmp.o)
                                        0x14a (size before relaxing)
 .debug_str     0x00000000000135b7       0x3d /usr/local/xenon/xenon/lib/32/libc.a(lib_a-strncmp.o)
                                        0x12a (size before relaxing)
 .debug_str     0x00000000000135f4       0x3d /usr/local/xenon/xenon/lib/32/libc.a(lib_a-strncpy.o)
                                        0x152 (size before relaxing)
 .debug_str     0x0000000000013631       0x3d /usr/local/xenon/xenon/lib/32/libc.a(lib_a-strnlen.o)
                                        0x130 (size before relaxing)
 .debug_str     0x000000000001366e       0x3d /usr/local/xenon/xenon/lib/32/libc.a(lib_a-strpbrk.o)
                                        0x123 (size before relaxing)
 .debug_str     0x00000000000136ab       0x3d /usr/local/xenon/xenon/lib/32/libc.a(lib_a-strrchr.o)
                                        0x12f (size before relaxing)
 .debug_str     0x00000000000136e8       0x4e /usr/local/xenon/xenon/lib/32/libc.a(lib_a-strtok.o)
                                        0x4ed (size before relaxing)
 .debug_str     0x0000000000013736       0x62 /usr/local/xenon/xenon/lib/32/libc.a(lib_a-strtok_r.o)
                                        0x15a (size before relaxing)
 .debug_str     0x0000000000013798       0x4a /usr/local/xenon/xenon/lib/32/libc.a(lib_a-strtol.o)
                                        0x518 (size before relaxing)
 .debug_str     0x00000000000137e2       0x53 /usr/local/xenon/xenon/lib/32/libc.a(lib_a-strtoull.o)
                                        0x4f1 (size before relaxing)
 .debug_str     0x0000000000013835       0x40 /usr/local/xenon/xenon/lib/32/libc.a(lib_a-strtoull_r.o)
                                        0x50b (size before relaxing)
 .debug_str     0x0000000000013875      0x156 /usr/local/xenon/xenon/lib/32/libc.a(lib_a-svfprintf.o)
                                        0x878 (size before relaxing)
 .debug_str     0x00000000000139cb       0x60 /usr/local/xenon/xenon/lib/32/libc.a(lib_a-system.o)
                                        0x52a (size before relaxing)
 .debug_str     0x0000000000013a2b       0x48 /usr/local/xenon/xenon/lib/32/libc.a(lib_a-time.o)
                                        0x50e (size before relaxing)
 .debug_str     0x0000000000013a73       0x3d /usr/local/xenon/xenon/lib/32/libc.a(lib_a-towlower.o)
                                        0x138 (size before relaxing)
 .debug_str     0x0000000000013ab0       0x3d /usr/local/xenon/xenon/lib/32/libc.a(lib_a-towupper.o)
                                        0x138 (size before relaxing)
 .debug_str     0x0000000000013aed       0x4b /usr/local/xenon/xenon/lib/32/libc.a(lib_a-tzlock.o)
                                        0x13d (size before relaxing)
 .debug_str     0x0000000000013b38       0x4c /usr/local/xenon/xenon/lib/32/libc.a(lib_a-tzvars.o)
                                        0x132 (size before relaxing)
 .debug_str     0x0000000000013b84       0x2f /usr/local/xenon/xenon/lib/32/libc.a(lib_a-vfiprintf.o)
                                        0x6ad (size before relaxing)
 .debug_str     0x0000000000013bb3        0x9 /usr/local/xenon/xenon/lib/32/libc.a(lib_a-vfprintf.o)
                                        0x8bb (size before relaxing)
 .debug_str     0x0000000000013bbc       0x49 /usr/local/xenon/xenon/lib/32/libc.a(lib_a-vsprintf.o)
                                        0x533 (size before relaxing)
 .debug_str     0x0000000000013c05       0x41 /usr/local/xenon/xenon/lib/32/libc.a(lib_a-wbuf.o)
                                        0x506 (size before relaxing)
 .debug_str     0x0000000000013c46       0x51 /usr/local/xenon/xenon/lib/32/libc.a(lib_a-wcrtomb.o)
                                        0x523 (size before relaxing)
 .debug_str     0x0000000000013c97       0x3b /usr/local/xenon/xenon/lib/32/libc.a(lib_a-wctob.o)
                                        0x514 (size before relaxing)
 .debug_str     0x0000000000013cd2       0x5e /usr/local/xenon/xenon/lib/32/libc.a(lib_a-wctomb_r.o)
                                        0x532 (size before relaxing)
 .debug_str     0x0000000000013d30       0x3b /usr/local/xenon/xenon/lib/32/libc.a(lib_a-writer.o)
                                        0x4ec (size before relaxing)
 .debug_str     0x0000000000013d6b       0x3b /usr/local/xenon/xenon/lib/32/libc.a(lib_a-wsetup.o)
                                        0x501 (size before relaxing)
 .debug_str     0x0000000000013da6       0x51 /usr/local/xenon/xenon/lib/32/libc.a(lib_a-__call_atexit.o)
                                        0x511 (size before relaxing)
 .debug_str     0x0000000000013df7       0x3b /usr/local/xenon/xenon/lib/32/libc.a(lib_a-closer.o)
                                        0x4dc (size before relaxing)
 .debug_str     0x0000000000013e32       0x3f /usr/local/xenon/xenon/lib/32/libc.a(lib_a-div.o)
                                        0x128 (size before relaxing)
 .debug_str     0x0000000000013e71      0x152 /usr/local/xenon/xenon/lib/32/libc.a(lib_a-dtoa.o)
                                        0x644 (size before relaxing)
 .debug_str     0x0000000000013fc3       0x49 /usr/local/xenon/xenon/lib/32/libc.a(lib_a-environ.o)
                                         0xab (size before relaxing)
 .debug_str     0x000000000001400c       0x4f /usr/local/xenon/xenon/lib/32/libc.a(lib_a-envlock.o)
                                        0x4f4 (size before relaxing)
 .debug_str     0x000000000001405b       0x44 /usr/local/xenon/xenon/lib/32/libc.a(lib_a-execr.o)
                                        0x50e (size before relaxing)
 .debug_str     0x000000000001409f       0x3f /usr/local/xenon/xenon/lib/32/libc.a(lib_a-flags.o)
                                        0x4d9 (size before relaxing)
 .debug_str     0x00000000000140de       0x44 /usr/local/xenon/xenon/lib/32/libc.a(lib_a-fputwc.o)
                                        0x53c (size before relaxing)
 .debug_str     0x0000000000014122       0x42 /usr/local/xenon/xenon/lib/32/libc.a(lib_a-gettimeofdayr.o)
                                        0x52e (size before relaxing)
 .debug_str     0x0000000000014164       0x3d /usr/local/xenon/xenon/lib/32/libc.a(lib_a-gettzinfo.o)
                                        0x199 (size before relaxing)
 .debug_str     0x00000000000141a1       0x3c /usr/local/xenon/xenon/lib/32/libc.a(lib_a-isattyr.o)
                                        0x4df (size before relaxing)
 .debug_str     0x00000000000141dd       0x3b /usr/local/xenon/xenon/lib/32/libc.a(lib_a-lseekr.o)
                                        0x4f0 (size before relaxing)
 .debug_str     0x0000000000014218       0x53 /usr/local/xenon/xenon/lib/32/libc.a(lib_a-mbsnrtowcs.o)
                                        0x52a (size before relaxing)
 .debug_str     0x000000000001426b       0x9c /usr/local/xenon/xenon/lib/32/libc.a(lib_a-mprec.o)
                                        0x5fe (size before relaxing)
 .debug_str     0x0000000000014307       0x3a /usr/local/xenon/xenon/lib/32/libc.a(lib_a-readr.o)
                                        0x4e9 (size before relaxing)
 .debug_str     0x0000000000014341       0x82 /usr/local/xenon/xenon/lib/32/libc.a(lib_a-s_fpclassify.o)
                                        0x17a (size before relaxing)
 .debug_str     0x00000000000143c3        0xe /usr/local/xenon/xenon/lib/32/libc.a(lib_a-svfiprintf.o)
                                        0x67b (size before relaxing)
 .debug_str     0x00000000000143d1       0xbd /usr/local/xenon/lib/gcc/xenon/4.7.1/32/libgcc.a(_udivdi3.o)
                                        0x196 (size before relaxing)
 .debug_str     0x000000000001448e        0xa /usr/local/xenon/lib/gcc/xenon/4.7.1/32/libgcc.a(_umoddi3.o)
                                        0x196 (size before relaxing)

.comment        0x0000000000000000       0x11
 .comment       0x0000000000000000       0x11 /usr/local/xenon/lib/gcc/xenon/4.7.1/../../../../xenon/lib/../lib/crt1.o
                                         0x12 (size before relaxing)
 .comment       0x0000000000000000       0x12 /usr/local/xenon/lib/gcc/xenon/4.7.1/32/crtbegin.o
 .comment       0x0000000000000000       0x12 file.o
 .comment       0x0000000000000000       0x12 log.o
 .comment       0x0000000000000000       0x12 main.o
 .comment       0x0000000000000000       0x12 mount.o
 .comment       0x0000000000000000       0x12 tftp.o
 .comment       0x0000000000000000       0x12 httpd.o
 .comment       0x0000000000000000       0x12 httpd_flash.o
 .comment       0x0000000000000000       0x12 httpd_fuse.o
 .comment       0x0000000000000000       0x12 httpd_index.o
 .comment       0x0000000000000000       0x12 httpd_keyvault.o
 .comment       0x0000000000000000       0x12 kbootconf.o
 .comment       0x0000000000000000       0x12 puff.o
 .comment       0x0000000000000000       0x12 /usr/local/xenon/usr/lib/libxenon.a(argv.o)
 .comment       0x0000000000000000       0x12 /usr/local/xenon/usr/lib/libxenon.a(console.o)
 .comment       0x0000000000000000       0x12 /usr/local/xenon/usr/lib/libxenon.a(ata.o)
 .comment       0x0000000000000000       0x12 /usr/local/xenon/usr/lib/libxenon.a(iso9660.o)
 .comment       0x0000000000000000       0x12 /usr/local/xenon/usr/lib/libxenon.a(input.o)
 .comment       0x0000000000000000       0x12 /usr/local/xenon/usr/lib/libxenon.a(newlib.o)
 .comment       0x0000000000000000       0x12 /usr/local/xenon/usr/lib/libxenon.a(xenon_syscalls.o)
 .comment       0x0000000000000000       0x12 /usr/local/xenon/usr/lib/libxenon.a(c_except.o)
 .comment       0x0000000000000000       0x12 /usr/local/xenon/usr/lib/libxenon.a(vm.o)
 .comment       0x0000000000000000       0x12 /usr/local/xenon/usr/lib/libxenon.a(time.o)
 .comment       0x0000000000000000       0x12 /usr/local/xenon/usr/lib/libxenon.a(usbctrl.o)
 .comment       0x0000000000000000       0x12 /usr/local/xenon/usr/lib/libxenon.a(usbd.o)
 .comment       0x0000000000000000       0x12 /usr/local/xenon/usr/lib/libxenon.a(usbdevs.o)
 .comment       0x0000000000000000       0x12 /usr/local/xenon/usr/lib/libxenon.a(usbhid.o)
 .comment       0x0000000000000000       0x12 /usr/local/xenon/usr/lib/libxenon.a(usbhub.o)
 .comment       0x0000000000000000       0x12 /usr/local/xenon/usr/lib/libxenon.a(usbmain.o)
 .comment       0x0000000000000000       0x12 /usr/local/xenon/usr/lib/libxenon.a(tinyehci.o)
 .comment       0x0000000000000000       0x12 /usr/local/xenon/usr/lib/libxenon.a(debug.o)
 .comment       0x0000000000000000       0x12 /usr/local/xenon/usr/lib/libxenon.a(xenon_smc.o)
 .comment       0x0000000000000000       0x12 /usr/local/xenon/usr/lib/libxenon.a(xenon_power.o)
 .comment       0x0000000000000000       0x12 /usr/local/xenon/usr/lib/libxenon.a(xenon_secotp.o)
 .comment       0x0000000000000000       0x12 /usr/local/xenon/usr/lib/libxenon.a(sound.o)
 .comment       0x0000000000000000       0x12 /usr/local/xenon/usr/lib/libxenon.a(xenon_uart.o)
 .comment       0x0000000000000000       0x12 /usr/local/xenon/usr/lib/libxenon.a(xenon_sfcx.o)
 .comment       0x0000000000000000       0x12 /usr/local/xenon/usr/lib/libxenon.a(xenon_config.o)
 .comment       0x0000000000000000       0x12 /usr/local/xenon/usr/lib/libxenon.a(xenos.o)
 .comment       0x0000000000000000       0x12 /usr/local/xenon/usr/lib/libxenon.a(xenos_edid.o)
 .comment       0x0000000000000000       0x12 /usr/local/xenon/usr/lib/libxenon.a(mem.o)
 .comment       0x0000000000000000       0x12 /usr/local/xenon/usr/lib/libxenon.a(netif.o)
 .comment       0x0000000000000000       0x12 /usr/local/xenon/usr/lib/libxenon.a(pbuf.o)
 .comment       0x0000000000000000       0x12 /usr/local/xenon/usr/lib/libxenon.a(stats.o)
 .comment       0x0000000000000000       0x12 /usr/local/xenon/usr/lib/libxenon.a(tcp.o)
 .comment       0x0000000000000000       0x12 /usr/local/xenon/usr/lib/libxenon.a(ip_addr.o)
 .comment       0x0000000000000000       0x12 /usr/local/xenon/usr/lib/libxenon.a(ip.o)
 .comment       0x0000000000000000       0x12 /usr/local/xenon/usr/lib/libxenon.a(ip_frag.o)
 .comment       0x0000000000000000       0x12 /usr/local/xenon/usr/lib/libxenon.a(tcp_out.o)
 .comment       0x0000000000000000       0x12 /usr/local/xenon/usr/lib/libxenon.a(udp.o)
 .comment       0x0000000000000000       0x12 /usr/local/xenon/usr/lib/libxenon.a(etharp.o)
 .comment       0x0000000000000000       0x12 /usr/local/xenon/usr/lib/libxenon.a(dhcp.o)
 .comment       0x0000000000000000       0x12 /usr/local/xenon/usr/lib/libxenon.a(raw.o)
 .comment       0x0000000000000000       0x12 /usr/local/xenon/usr/lib/libxenon.a(timers.o)
 .comment       0x0000000000000000       0x12 /usr/local/xenon/usr/lib/libxenon.a(enet.o)
 .comment       0x0000000000000000       0x12 /usr/local/xenon/usr/lib/libxenon.a(network.o)
 .comment       0x0000000000000000       0x12 /usr/local/xenon/usr/lib/libxenon.a(elf.o)
 .comment       0x0000000000000000       0x12 /usr/local/xenon/usr/lib/libxenon.a(fdt_ro.o)
 .comment       0x0000000000000000       0x12 /usr/local/xenon/usr/lib/libxenon.a(fdt_rw.o)
 .comment       0x0000000000000000       0x12 /usr/local/xenon/usr/lib/libxenon.a(xb360.o)
 .comment       0x0000000000000000       0x12 /usr/local/xenon/usr/lib/libxenon.a(lib_malloc.o)
 .comment       0x0000000000000000       0x12 /usr/local/xenon/usr/lib/libxenon.a(io.o)
 .comment       0x0000000000000000       0x12 /usr/local/xenon/usr/lib/libxenon.a(dummy.o)
 .comment       0x0000000000000000       0x12 /usr/local/xenon/usr/lib/libxenon.a(ohci.o)
 .comment       0x0000000000000000       0x12 /usr/local/xenon/usr/lib/libxenon.a(usbdebug.o)
 .comment       0x0000000000000000       0x12 /usr/local/xenon/usr/lib/libxenon.a(usb_os.o)
 .comment       0x0000000000000000       0x12 /usr/local/xenon/usr/lib/libxenon.a(xenon_gpio.o)
 .comment       0x0000000000000000       0x12 /usr/local/xenon/usr/lib/libxenon.a(init.o)
 .comment       0x0000000000000000       0x12 /usr/local/xenon/usr/lib/libxenon.a(tcp_in.o)
 .comment       0x0000000000000000       0x12 /usr/local/xenon/usr/lib/libxenon.a(inet_chksum.o)
 .comment       0x0000000000000000       0x12 /usr/local/xenon/usr/lib/libxenon.a(dns.o)
 .comment       0x0000000000000000       0x12 /usr/local/xenon/usr/lib/libxenon.a(memp.o)
 .comment       0x0000000000000000       0x12 /usr/local/xenon/usr/lib/libxenon.a(icmp.o)
 .comment       0x0000000000000000       0x12 /usr/local/xenon/usr/lib/libxenon.a(fdt.o)
 .comment       0x0000000000000000       0x12 /usr/local/xenon/usr/lib/libxenon.a(hmac_sha1.o)
 .comment       0x0000000000000000       0x12 /usr/local/xenon/usr/lib/libxenon.a(rc4.o)
 .comment       0x0000000000000000       0x12 /usr/local/xenon/usr/lib/libxenon.a(sha1.o)
 .comment       0x0000000000000000       0x12 /usr/local/xenon/usr/lib/libxenon.a(lib_queue.o)
 .comment       0x0000000000000000       0x12 /usr/local/xenon/usr/lib/libfat.a(libfat.o)
 .comment       0x0000000000000000       0x12 /usr/local/xenon/usr/lib/libfat.a(partition.o)
 .comment       0x0000000000000000       0x12 /usr/local/xenon/usr/lib/libfat.a(cache.o)
 .comment       0x0000000000000000       0x12 /usr/local/xenon/usr/lib/libfat.a(directory.o)
 .comment       0x0000000000000000       0x12 /usr/local/xenon/usr/lib/libfat.a(disc.o)
 .comment       0x0000000000000000       0x12 /usr/local/xenon/usr/lib/libfat.a(fatdir.o)
 .comment       0x0000000000000000       0x12 /usr/local/xenon/usr/lib/libfat.a(fatfile.o)
 .comment       0x0000000000000000       0x12 /usr/local/xenon/usr/lib/libfat.a(file_allocation_table.o)
 .comment       0x0000000000000000       0x12 /usr/local/xenon/usr/lib/libfat.a(filetime.o)
 .comment       0x0000000000000000       0x12 /usr/local/xenon/usr/lib/libfat.a(lock.o)
 .comment       0x0000000000000000       0x12 /usr/local/xenon/usr/lib/libext2fs.a(ext2.o)
 .comment       0x0000000000000000       0x12 /usr/local/xenon/usr/lib/libext2fs.a(ext2_internal.o)
 .comment       0x0000000000000000       0x12 /usr/local/xenon/usr/lib/libext2fs.a(freefs.o)
 .comment       0x0000000000000000       0x12 /usr/local/xenon/usr/lib/libext2fs.a(gekko_io.o)
 .comment       0x0000000000000000       0x12 /usr/local/xenon/usr/lib/libext2fs.a(inode.o)
 .comment       0x0000000000000000       0x12 /usr/local/xenon/usr/lib/libext2fs.a(io_manager.o)
 .comment       0x0000000000000000       0x12 /usr/local/xenon/usr/lib/libext2fs.a(link.o)
 .comment       0x0000000000000000       0x12 /usr/local/xenon/usr/lib/libext2fs.a(mkdir.o)
 .comment       0x0000000000000000       0x12 /usr/local/xenon/usr/lib/libext2fs.a(namei.o)
 .comment       0x0000000000000000       0x12 /usr/local/xenon/usr/lib/libext2fs.a(newdir.o)
 .comment       0x0000000000000000       0x12 /usr/local/xenon/usr/lib/libext2fs.a(openfs.o)
 .comment       0x0000000000000000       0x12 /usr/local/xenon/usr/lib/libext2fs.a(punch.o)
 .comment       0x0000000000000000       0x12 /usr/local/xenon/usr/lib/libext2fs.a(read_bb.o)
 .comment       0x0000000000000000       0x12 /usr/local/xenon/usr/lib/libext2fs.a(rw_bitmaps.o)
 .comment       0x0000000000000000       0x12 /usr/local/xenon/usr/lib/libext2fs.a(swapfs.o)
 .comment       0x0000000000000000       0x12 /usr/local/xenon/usr/lib/libext2fs.a(unlink.o)
 .comment       0x0000000000000000       0x12 /usr/local/xenon/usr/lib/libext2fs.a(valid_blk.o)
 .comment       0x0000000000000000       0x12 /usr/local/xenon/usr/lib/libext2fs.a(alloc.o)
 .comment       0x0000000000000000       0x12 /usr/local/xenon/usr/lib/libext2fs.a(alloc_stats.o)
 .comment       0x0000000000000000       0x12 /usr/local/xenon/usr/lib/libext2fs.a(badblocks.o)
 .comment       0x0000000000000000       0x12 /usr/local/xenon/usr/lib/libext2fs.a(bitmaps.o)
 .comment       0x0000000000000000       0x12 /usr/local/xenon/usr/lib/libext2fs.a(bitops.o)
 .comment       0x0000000000000000       0x12 /usr/local/xenon/usr/lib/libext2fs.a(blknum.o)
 .comment       0x0000000000000000       0x12 /usr/local/xenon/usr/lib/libext2fs.a(block.o)
 .comment       0x0000000000000000       0x12 /usr/local/xenon/usr/lib/libext2fs.a(closefs.o)
 .comment       0x0000000000000000       0x12 /usr/local/xenon/usr/lib/libext2fs.a(csum.o)
 .comment       0x0000000000000000       0x12 /usr/local/xenon/usr/lib/libext2fs.a(dirblock.o)
 .comment       0x0000000000000000       0x12 /usr/local/xenon/usr/lib/libext2fs.a(dir_iterate.o)
 .comment       0x0000000000000000       0x12 /usr/local/xenon/usr/lib/libext2fs.a(disc_cache.o)
 .comment       0x0000000000000000       0x12 /usr/local/xenon/usr/lib/libext2fs.a(expanddir.o)
 .comment       0x0000000000000000       0x12 /usr/local/xenon/usr/lib/libext2fs.a(ext2dir.o)
 .comment       0x0000000000000000       0x12 /usr/local/xenon/usr/lib/libext2fs.a(ext2file.o)
 .comment       0x0000000000000000       0x12 /usr/local/xenon/usr/lib/libext2fs.a(extent.o)
 .comment       0x0000000000000000       0x12 /usr/local/xenon/usr/lib/libext2fs.a(fileio.o)
 .comment       0x0000000000000000       0x12 /usr/local/xenon/usr/lib/libext2fs.a(gen_bitmap64.o)
 .comment       0x0000000000000000       0x12 /usr/local/xenon/usr/lib/libext2fs.a(gen_bitmap.o)
 .comment       0x0000000000000000       0x12 /usr/local/xenon/usr/lib/libext2fs.a(i_block.o)
 .comment       0x0000000000000000       0x12 /usr/local/xenon/usr/lib/libext2fs.a(ind_block.o)
 .comment       0x0000000000000000       0x12 /usr/local/xenon/usr/lib/libext2fs.a(inline.o)
 .comment       0x0000000000000000       0x12 /usr/local/xenon/usr/lib/libext2fs.a(lookup.o)
 .comment       0x0000000000000000       0x12 /usr/local/xenon/usr/lib/libext2fs.a(mmp.o)
 .comment       0x0000000000000000       0x12 /usr/local/xenon/usr/lib/libext2fs.a(progress.o)
 .comment       0x0000000000000000       0x12 /usr/local/xenon/usr/lib/libext2fs.a(blkmap64_ba.o)
 .comment       0x0000000000000000       0x12 /usr/local/xenon/usr/lib/libext2fs.a(bmap.o)
 .comment       0x0000000000000000       0x12 /usr/local/xenon/usr/lib/libext2fs.a(crc16.o)
 .comment       0x0000000000000000       0x12 /usr/local/xenon/usr/lib/libext2fs.a(llseek.o)
 .comment       0x0000000000000000       0x12 /usr/local/xenon/usr/lib/libxtaf.a(xtaf.o)
 .comment       0x0000000000000000       0x12 /usr/local/xenon/usr/lib/libxtaf.a(xtaf_partition.o)
 .comment       0x0000000000000000       0x12 /usr/local/xenon/usr/lib/libxtaf.a(xtaf_util.o)
 .comment       0x0000000000000000       0x12 /usr/local/xenon/usr/lib/libxtaf.a(cache.o)
 .comment       0x0000000000000000       0x12 /usr/local/xenon/usr/lib/libxtaf.a(xtaf_dir.o)
 .comment       0x0000000000000000       0x12 /usr/local/xenon/usr/lib/libxtaf.a(xtaf_file.o)
 .comment       0x0000000000000000       0x12 /usr/local/xenon/xenon/lib/32/libm.a(lib_a-s_ceil.o)
 .comment       0x0000000000000000       0x12 /usr/local/xenon/xenon/lib/32/libm.a(lib_a-s_floor.o)
 .comment       0x0000000000000000       0x12 /usr/local/xenon/lib/gcc/xenon/4.7.1/32/libgcc.a(unwind-dw2-fde-dip.o)
 .comment       0x0000000000000000       0x12 /usr/local/xenon/xenon/lib/32/libc.a(lib_a-assert.o)
 .comment       0x0000000000000000       0x12 /usr/local/xenon/xenon/lib/32/libc.a(lib_a-atoi.o)
 .comment       0x0000000000000000       0x12 /usr/local/xenon/xenon/lib/32/libc.a(lib_a-calloc.o)
 .comment       0x0000000000000000       0x12 /usr/local/xenon/xenon/lib/32/libc.a(lib_a-callocr.o)
 .comment       0x0000000000000000       0x12 /usr/local/xenon/xenon/lib/32/libc.a(lib_a-ctype_.o)
 .comment       0x0000000000000000       0x12 /usr/local/xenon/xenon/lib/32/libc.a(lib_a-errno.o)
 .comment       0x0000000000000000       0x12 /usr/local/xenon/xenon/lib/32/libc.a(lib_a-exit.o)
 .comment       0x0000000000000000       0x12 /usr/local/xenon/xenon/lib/32/libc.a(lib_a-fclose.o)
 .comment       0x0000000000000000       0x12 /usr/local/xenon/xenon/lib/32/libc.a(lib_a-fflush.o)
 .comment       0x0000000000000000       0x12 /usr/local/xenon/xenon/lib/32/libc.a(lib_a-findfp.o)
 .comment       0x0000000000000000       0x12 /usr/local/xenon/xenon/lib/32/libc.a(lib_a-fiprintf.o)
 .comment       0x0000000000000000       0x12 /usr/local/xenon/xenon/lib/32/libc.a(lib_a-fopen.o)
 .comment       0x0000000000000000       0x12 /usr/local/xenon/xenon/lib/32/libc.a(lib_a-fprintf.o)
 .comment       0x0000000000000000       0x12 /usr/local/xenon/xenon/lib/32/libc.a(lib_a-fputs.o)
 .comment       0x0000000000000000       0x12 /usr/local/xenon/xenon/lib/32/libc.a(lib_a-fread.o)
 .comment       0x0000000000000000       0x12 /usr/local/xenon/xenon/lib/32/libc.a(lib_a-freer.o)
 .comment       0x0000000000000000       0x12 /usr/local/xenon/xenon/lib/32/libc.a(lib_a-fseek.o)
 .comment       0x0000000000000000       0x12 /usr/local/xenon/xenon/lib/32/libc.a(lib_a-fstatr.o)
 .comment       0x0000000000000000       0x12 /usr/local/xenon/xenon/lib/32/libc.a(lib_a-ftell.o)
 .comment       0x0000000000000000       0x12 /usr/local/xenon/xenon/lib/32/libc.a(lib_a-fvwrite.o)
 .comment       0x0000000000000000       0x12 /usr/local/xenon/xenon/lib/32/libc.a(lib_a-fwalk.o)
 .comment       0x0000000000000000       0x12 /usr/local/xenon/xenon/lib/32/libc.a(lib_a-getenv.o)
 .comment       0x0000000000000000       0x12 /usr/local/xenon/xenon/lib/32/libc.a(lib_a-getenv_r.o)
 .comment       0x0000000000000000       0x12 /usr/local/xenon/xenon/lib/32/libc.a(lib_a-impure.o)
 .comment       0x0000000000000000       0x12 /usr/local/xenon/xenon/lib/32/libc.a(lib_a-lcltime_r.o)
 .comment       0x0000000000000000       0x12 /usr/local/xenon/xenon/lib/32/libc.a(lib_a-locale.o)
 .comment       0x0000000000000000       0x12 /usr/local/xenon/xenon/lib/32/libc.a(lib_a-makebuf.o)
 .comment       0x0000000000000000       0x12 /usr/local/xenon/xenon/lib/32/libc.a(lib_a-malign.o)
 .comment       0x0000000000000000       0x12 /usr/local/xenon/xenon/lib/32/libc.a(lib_a-malignr.o)
 .comment       0x0000000000000000       0x12 /usr/local/xenon/xenon/lib/32/libc.a(lib_a-malloc.o)
 .comment       0x0000000000000000       0x12 /usr/local/xenon/xenon/lib/32/libc.a(lib_a-mallocr.o)
 .comment       0x0000000000000000       0x12 /usr/local/xenon/xenon/lib/32/libc.a(lib_a-mbrtowc.o)
 .comment       0x0000000000000000       0x12 /usr/local/xenon/xenon/lib/32/libc.a(lib_a-mbsrtowcs.o)
 .comment       0x0000000000000000       0x12 /usr/local/xenon/xenon/lib/32/libc.a(lib_a-mbtowc_r.o)
 .comment       0x0000000000000000       0x12 /usr/local/xenon/xenon/lib/32/libc.a(lib_a-memchr.o)
 .comment       0x0000000000000000       0x12 /usr/local/xenon/xenon/lib/32/libc.a(lib_a-memcmp.o)
 .comment       0x0000000000000000       0x12 /usr/local/xenon/xenon/lib/32/libc.a(lib_a-memcpy.o)
 .comment       0x0000000000000000       0x12 /usr/local/xenon/xenon/lib/32/libc.a(lib_a-memmove.o)
 .comment       0x0000000000000000       0x12 /usr/local/xenon/xenon/lib/32/libc.a(lib_a-memset.o)
 .comment       0x0000000000000000       0x12 /usr/local/xenon/xenon/lib/32/libc.a(lib_a-mktime.o)
 .comment       0x0000000000000000       0x12 /usr/local/xenon/xenon/lib/32/libc.a(lib_a-mktm_r.o)
 .comment       0x0000000000000000       0x12 /usr/local/xenon/xenon/lib/32/libc.a(lib_a-openr.o)
 .comment       0x0000000000000000       0x12 /usr/local/xenon/xenon/lib/32/libc.a(lib_a-printf.o)
 .comment       0x0000000000000000       0x12 /usr/local/xenon/xenon/lib/32/libc.a(lib_a-putchar.o)
 .comment       0x0000000000000000       0x12 /usr/local/xenon/xenon/lib/32/libc.a(lib_a-putc.o)
 .comment       0x0000000000000000       0x12 /usr/local/xenon/xenon/lib/32/libc.a(lib_a-puts.o)
 .comment       0x0000000000000000       0x12 /usr/local/xenon/xenon/lib/32/libc.a(lib_a-rand.o)
 .comment       0x0000000000000000       0x12 /usr/local/xenon/xenon/lib/32/libc.a(lib_a-realloc.o)
 .comment       0x0000000000000000       0x12 /usr/local/xenon/xenon/lib/32/libc.a(lib_a-reallocr.o)
 .comment       0x0000000000000000       0x12 /usr/local/xenon/xenon/lib/32/libc.a(lib_a-reent.o)
 .comment       0x0000000000000000       0x12 /usr/local/xenon/xenon/lib/32/libc.a(lib_a-refill.o)
 .comment       0x0000000000000000       0x12 /usr/local/xenon/xenon/lib/32/libc.a(lib_a-sbrkr.o)
 .comment       0x0000000000000000       0x12 /usr/local/xenon/xenon/lib/32/libc.a(lib_a-setbuf.o)
 .comment       0x0000000000000000       0x12 /usr/local/xenon/xenon/lib/32/libc.a(lib_a-setvbuf.o)
 .comment       0x0000000000000000       0x12 /usr/local/xenon/xenon/lib/32/libc.a(lib_a-snprintf.o)
 .comment       0x0000000000000000       0x12 /usr/local/xenon/xenon/lib/32/libc.a(lib_a-sprintf.o)
 .comment       0x0000000000000000       0x12 /usr/local/xenon/xenon/lib/32/libc.a(lib_a-stdio.o)
 .comment       0x0000000000000000       0x12 /usr/local/xenon/xenon/lib/32/libc.a(lib_a-strcat.o)
 .comment       0x0000000000000000       0x12 /usr/local/xenon/xenon/lib/32/libc.a(lib_a-strchr.o)
 .comment       0x0000000000000000       0x12 /usr/local/xenon/xenon/lib/32/libc.a(lib_a-strcmp.o)
 .comment       0x0000000000000000       0x12 /usr/local/xenon/xenon/lib/32/libc.a(lib_a-strcpy.o)
 .comment       0x0000000000000000       0x12 /usr/local/xenon/xenon/lib/32/libc.a(lib_a-strdup.o)
 .comment       0x0000000000000000       0x12 /usr/local/xenon/xenon/lib/32/libc.a(lib_a-strdup_r.o)
 .comment       0x0000000000000000       0x12 /usr/local/xenon/xenon/lib/32/libc.a(lib_a-strlcat.o)
 .comment       0x0000000000000000       0x12 /usr/local/xenon/xenon/lib/32/libc.a(lib_a-strlcpy.o)
 .comment       0x0000000000000000       0x12 /usr/local/xenon/xenon/lib/32/libc.a(lib_a-strlen.o)
 .comment       0x0000000000000000       0x12 /usr/local/xenon/xenon/lib/32/libc.a(lib_a-strncasecmp.o)
 .comment       0x0000000000000000       0x12 /usr/local/xenon/xenon/lib/32/libc.a(lib_a-strncmp.o)
 .comment       0x0000000000000000       0x12 /usr/local/xenon/xenon/lib/32/libc.a(lib_a-strncpy.o)
 .comment       0x0000000000000000       0x12 /usr/local/xenon/xenon/lib/32/libc.a(lib_a-strnlen.o)
 .comment       0x0000000000000000       0x12 /usr/local/xenon/xenon/lib/32/libc.a(lib_a-strpbrk.o)
 .comment       0x0000000000000000       0x12 /usr/local/xenon/xenon/lib/32/libc.a(lib_a-strrchr.o)
 .comment       0x0000000000000000       0x12 /usr/local/xenon/xenon/lib/32/libc.a(lib_a-strtok.o)
 .comment       0x0000000000000000       0x12 /usr/local/xenon/xenon/lib/32/libc.a(lib_a-strtok_r.o)
 .comment       0x0000000000000000       0x12 /usr/local/xenon/xenon/lib/32/libc.a(lib_a-strtol.o)
 .comment       0x0000000000000000       0x12 /usr/local/xenon/xenon/lib/32/libc.a(lib_a-strtoull.o)
 .comment       0x0000000000000000       0x12 /usr/local/xenon/xenon/lib/32/libc.a(lib_a-strtoull_r.o)
 .comment       0x0000000000000000       0x12 /usr/local/xenon/xenon/lib/32/libc.a(lib_a-svfprintf.o)
 .comment       0x0000000000000000       0x12 /usr/local/xenon/xenon/lib/32/libc.a(lib_a-system.o)
 .comment       0x0000000000000000       0x12 /usr/local/xenon/xenon/lib/32/libc.a(lib_a-time.o)
 .comment       0x0000000000000000       0x12 /usr/local/xenon/xenon/lib/32/libc.a(lib_a-towlower.o)
 .comment       0x0000000000000000       0x12 /usr/local/xenon/xenon/lib/32/libc.a(lib_a-towupper.o)
 .comment       0x0000000000000000       0x12 /usr/local/xenon/xenon/lib/32/libc.a(lib_a-tzlock.o)
 .comment       0x0000000000000000       0x12 /usr/local/xenon/xenon/lib/32/libc.a(lib_a-tzvars.o)
 .comment       0x0000000000000000       0x12 /usr/local/xenon/xenon/lib/32/libc.a(lib_a-vfiprintf.o)
 .comment       0x0000000000000000       0x12 /usr/local/xenon/xenon/lib/32/libc.a(lib_a-vfprintf.o)
 .comment       0x0000000000000000       0x12 /usr/local/xenon/xenon/lib/32/libc.a(lib_a-vsprintf.o)
 .comment       0x0000000000000000       0x12 /usr/local/xenon/xenon/lib/32/libc.a(lib_a-wbuf.o)
 .comment       0x0000000000000000       0x12 /usr/local/xenon/xenon/lib/32/libc.a(lib_a-wcrtomb.o)
 .comment       0x0000000000000000       0x12 /usr/local/xenon/xenon/lib/32/libc.a(lib_a-wctob.o)
 .comment       0x0000000000000000       0x12 /usr/local/xenon/xenon/lib/32/libc.a(lib_a-wctomb_r.o)
 .comment       0x0000000000000000       0x12 /usr/local/xenon/xenon/lib/32/libc.a(lib_a-writer.o)
 .comment       0x0000000000000000       0x12 /usr/local/xenon/xenon/lib/32/libc.a(lib_a-wsetup.o)
 .comment       0x0000000000000000       0x12 /usr/local/xenon/xenon/lib/32/libc.a(lib_a-__call_atexit.o)
 .comment       0x0000000000000000       0x12 /usr/local/xenon/xenon/lib/32/libc.a(lib_a-closer.o)
 .comment       0x0000000000000000       0x12 /usr/local/xenon/xenon/lib/32/libc.a(lib_a-div.o)
 .comment       0x0000000000000000       0x12 /usr/local/xenon/xenon/lib/32/libc.a(lib_a-dtoa.o)
 .comment       0x0000000000000000       0x12 /usr/local/xenon/xenon/lib/32/libc.a(lib_a-environ.o)
 .comment       0x0000000000000000       0x12 /usr/local/xenon/xenon/lib/32/libc.a(lib_a-envlock.o)
 .comment       0x0000000000000000       0x12 /usr/local/xenon/xenon/lib/32/libc.a(lib_a-execr.o)
 .comment       0x0000000000000000       0x12 /usr/local/xenon/xenon/lib/32/libc.a(lib_a-flags.o)
 .comment       0x0000000000000000       0x12 /usr/local/xenon/xenon/lib/32/libc.a(lib_a-fputwc.o)
 .comment       0x0000000000000000       0x12 /usr/local/xenon/xenon/lib/32/libc.a(lib_a-gettimeofdayr.o)
 .comment       0x0000000000000000       0x12 /usr/local/xenon/xenon/lib/32/libc.a(lib_a-gettzinfo.o)
 .comment       0x0000000000000000       0x12 /usr/local/xenon/xenon/lib/32/libc.a(lib_a-isattyr.o)
 .comment       0x0000000000000000       0x12 /usr/local/xenon/xenon/lib/32/libc.a(lib_a-lseekr.o)
 .comment       0x0000000000000000       0x12 /usr/local/xenon/xenon/lib/32/libc.a(lib_a-mbsnrtowcs.o)
 .comment       0x0000000000000000       0x12 /usr/local/xenon/xenon/lib/32/libc.a(lib_a-mprec.o)
 .comment       0x0000000000000000       0x12 /usr/local/xenon/xenon/lib/32/libc.a(lib_a-readr.o)
 .comment       0x0000000000000000       0x12 /usr/local/xenon/xenon/lib/32/libc.a(lib_a-s_fpclassify.o)
 .comment       0x0000000000000000       0x12 /usr/local/xenon/xenon/lib/32/libc.a(lib_a-svfiprintf.o)
 .comment       0x0000000000000000       0x12 /usr/local/xenon/lib/gcc/xenon/4.7.1/32/libgcc.a(_udivdi3.o)
 .comment       0x0000000000000000       0x12 /usr/local/xenon/lib/gcc/xenon/4.7.1/32/libgcc.a(_umoddi3.o)
 .comment       0x0000000000000000       0x12 /usr/local/xenon/lib/gcc/xenon/4.7.1/32/crtend.o

.note.GNU-stack
                0x0000000000000000        0x0
 .note.GNU-stack
                0x0000000000000000        0x0 /usr/local/xenon/lib/gcc/xenon/4.7.1/../../../../xenon/lib/../lib/crt1.o
 .note.GNU-stack
                0x0000000000000000        0x0 /usr/local/xenon/lib/gcc/xenon/4.7.1/32/crtbegin.o
 .note.GNU-stack
                0x0000000000000000        0x0 file.o
 .note.GNU-stack
                0x0000000000000000        0x0 log.o
 .note.GNU-stack
                0x0000000000000000        0x0 main.o
 .note.GNU-stack
                0x0000000000000000        0x0 mount.o
 .note.GNU-stack
                0x0000000000000000        0x0 tftp.o
 .note.GNU-stack
                0x0000000000000000        0x0 httpd.o
 .note.GNU-stack
                0x0000000000000000        0x0 httpd_flash.o
 .note.GNU-stack
                0x0000000000000000        0x0 httpd_fuse.o
 .note.GNU-stack
                0x0000000000000000        0x0 httpd_index.o
 .note.GNU-stack
                0x0000000000000000        0x0 httpd_keyvault.o
 .note.GNU-stack
                0x0000000000000000        0x0 kbootconf.o
 .note.GNU-stack
                0x0000000000000000        0x0 puff.o
 .note.GNU-stack
                0x0000000000000000        0x0 /usr/local/xenon/usr/lib/libxenon.a(argv.o)
 .note.GNU-stack
                0x0000000000000000        0x0 /usr/local/xenon/usr/lib/libxenon.a(console.o)
 .note.GNU-stack
                0x0000000000000000        0x0 /usr/local/xenon/usr/lib/libxenon.a(ata.o)
 .note.GNU-stack
                0x0000000000000000        0x0 /usr/local/xenon/usr/lib/libxenon.a(iso9660.o)
 .note.GNU-stack
                0x0000000000000000        0x0 /usr/local/xenon/usr/lib/libxenon.a(input.o)
 .note.GNU-stack
                0x0000000000000000        0x0 /usr/local/xenon/usr/lib/libxenon.a(newlib.o)
 .note.GNU-stack
                0x0000000000000000        0x0 /usr/local/xenon/usr/lib/libxenon.a(xenon_syscalls.o)
 .note.GNU-stack
                0x0000000000000000        0x0 /usr/local/xenon/usr/lib/libxenon.a(c_except.o)
 .note.GNU-stack
                0x0000000000000000        0x0 /usr/local/xenon/usr/lib/libxenon.a(vm.o)
 .note.GNU-stack
                0x0000000000000000        0x0 /usr/local/xenon/usr/lib/libxenon.a(time.o)
 .note.GNU-stack
                0x0000000000000000        0x0 /usr/local/xenon/usr/lib/libxenon.a(usbctrl.o)
 .note.GNU-stack
                0x0000000000000000        0x0 /usr/local/xenon/usr/lib/libxenon.a(usbd.o)
 .note.GNU-stack
                0x0000000000000000        0x0 /usr/local/xenon/usr/lib/libxenon.a(usbdevs.o)
 .note.GNU-stack
                0x0000000000000000        0x0 /usr/local/xenon/usr/lib/libxenon.a(usbhid.o)
 .note.GNU-stack
                0x0000000000000000        0x0 /usr/local/xenon/usr/lib/libxenon.a(usbhub.o)
 .note.GNU-stack
                0x0000000000000000        0x0 /usr/local/xenon/usr/lib/libxenon.a(usbmain.o)
 .note.GNU-stack
                0x0000000000000000        0x0 /usr/local/xenon/usr/lib/libxenon.a(tinyehci.o)
 .note.GNU-stack
                0x0000000000000000        0x0 /usr/local/xenon/usr/lib/libxenon.a(debug.o)
 .note.GNU-stack
                0x0000000000000000        0x0 /usr/local/xenon/usr/lib/libxenon.a(xenon_smc.o)
 .note.GNU-stack
                0x0000000000000000        0x0 /usr/local/xenon/usr/lib/libxenon.a(xenon_power.o)
 .note.GNU-stack
                0x0000000000000000        0x0 /usr/local/xenon/usr/lib/libxenon.a(xenon_secotp.o)
 .note.GNU-stack
                0x0000000000000000        0x0 /usr/local/xenon/usr/lib/libxenon.a(sound.o)
 .note.GNU-stack
                0x0000000000000000        0x0 /usr/local/xenon/usr/lib/libxenon.a(xenon_uart.o)
 .note.GNU-stack
                0x0000000000000000        0x0 /usr/local/xenon/usr/lib/libxenon.a(xenon_sfcx.o)
 .note.GNU-stack
                0x0000000000000000        0x0 /usr/local/xenon/usr/lib/libxenon.a(xenon_config.o)
 .note.GNU-stack
                0x0000000000000000        0x0 /usr/local/xenon/usr/lib/libxenon.a(xenos.o)
 .note.GNU-stack
                0x0000000000000000        0x0 /usr/local/xenon/usr/lib/libxenon.a(xenos_edid.o)
 .note.GNU-stack
                0x0000000000000000        0x0 /usr/local/xenon/usr/lib/libxenon.a(mem.o)
 .note.GNU-stack
                0x0000000000000000        0x0 /usr/local/xenon/usr/lib/libxenon.a(netif.o)
 .note.GNU-stack
                0x0000000000000000        0x0 /usr/local/xenon/usr/lib/libxenon.a(pbuf.o)
 .note.GNU-stack
                0x0000000000000000        0x0 /usr/local/xenon/usr/lib/libxenon.a(stats.o)
 .note.GNU-stack
                0x0000000000000000        0x0 /usr/local/xenon/usr/lib/libxenon.a(tcp.o)
 .note.GNU-stack
                0x0000000000000000        0x0 /usr/local/xenon/usr/lib/libxenon.a(ip_addr.o)
 .note.GNU-stack
                0x0000000000000000        0x0 /usr/local/xenon/usr/lib/libxenon.a(ip.o)
 .note.GNU-stack
                0x0000000000000000        0x0 /usr/local/xenon/usr/lib/libxenon.a(ip_frag.o)
 .note.GNU-stack
                0x0000000000000000        0x0 /usr/local/xenon/usr/lib/libxenon.a(tcp_out.o)
 .note.GNU-stack
                0x0000000000000000        0x0 /usr/local/xenon/usr/lib/libxenon.a(udp.o)
 .note.GNU-stack
                0x0000000000000000        0x0 /usr/local/xenon/usr/lib/libxenon.a(etharp.o)
 .note.GNU-stack
                0x0000000000000000        0x0 /usr/local/xenon/usr/lib/libxenon.a(dhcp.o)
 .note.GNU-stack
                0x0000000000000000        0x0 /usr/local/xenon/usr/lib/libxenon.a(raw.o)
 .note.GNU-stack
                0x0000000000000000        0x0 /usr/local/xenon/usr/lib/libxenon.a(timers.o)
 .note.GNU-stack
                0x0000000000000000        0x0 /usr/local/xenon/usr/lib/libxenon.a(enet.o)
 .note.GNU-stack
                0x0000000000000000        0x0 /usr/local/xenon/usr/lib/libxenon.a(network.o)
 .note.GNU-stack
                0x0000000000000000        0x0 /usr/local/xenon/usr/lib/libxenon.a(elf.o)
 .note.GNU-stack
                0x0000000000000000        0x0 /usr/local/xenon/usr/lib/libxenon.a(fdt_ro.o)
 .note.GNU-stack
                0x0000000000000000        0x0 /usr/local/xenon/usr/lib/libxenon.a(fdt_rw.o)
 .note.GNU-stack
                0x0000000000000000        0x0 /usr/local/xenon/usr/lib/libxenon.a(xb360.o)
 .note.GNU-stack
                0x0000000000000000        0x0 /usr/local/xenon/usr/lib/libxenon.a(lib_malloc.o)
 .note.GNU-stack
                0x0000000000000000        0x0 /usr/local/xenon/usr/lib/libxenon.a(io.o)
 .note.GNU-stack
                0x0000000000000000        0x0 /usr/local/xenon/usr/lib/libxenon.a(dummy.o)
 .note.GNU-stack
                0x0000000000000000        0x0 /usr/local/xenon/usr/lib/libxenon.a(ohci.o)
 .note.GNU-stack
                0x0000000000000000        0x0 /usr/local/xenon/usr/lib/libxenon.a(usbdebug.o)
 .note.GNU-stack
                0x0000000000000000        0x0 /usr/local/xenon/usr/lib/libxenon.a(usb_os.o)
 .note.GNU-stack
                0x0000000000000000        0x0 /usr/local/xenon/usr/lib/libxenon.a(xenon_gpio.o)
 .note.GNU-stack
                0x0000000000000000        0x0 /usr/local/xenon/usr/lib/libxenon.a(init.o)
 .note.GNU-stack
                0x0000000000000000        0x0 /usr/local/xenon/usr/lib/libxenon.a(tcp_in.o)
 .note.GNU-stack
                0x0000000000000000        0x0 /usr/local/xenon/usr/lib/libxenon.a(inet_chksum.o)
 .note.GNU-stack
                0x0000000000000000        0x0 /usr/local/xenon/usr/lib/libxenon.a(dns.o)
 .note.GNU-stack
                0x0000000000000000        0x0 /usr/local/xenon/usr/lib/libxenon.a(memp.o)
 .note.GNU-stack
                0x0000000000000000        0x0 /usr/local/xenon/usr/lib/libxenon.a(icmp.o)
 .note.GNU-stack
                0x0000000000000000        0x0 /usr/local/xenon/usr/lib/libxenon.a(fdt.o)
 .note.GNU-stack
                0x0000000000000000        0x0 /usr/local/xenon/usr/lib/libxenon.a(hmac_sha1.o)
 .note.GNU-stack
                0x0000000000000000        0x0 /usr/local/xenon/usr/lib/libxenon.a(rc4.o)
 .note.GNU-stack
                0x0000000000000000        0x0 /usr/local/xenon/usr/lib/libxenon.a(sha1.o)
 .note.GNU-stack
                0x0000000000000000        0x0 /usr/local/xenon/usr/lib/libxenon.a(lib_queue.o)
 .note.GNU-stack
                0x0000000000000000        0x0 /usr/local/xenon/usr/lib/libfat.a(libfat.o)
 .note.GNU-stack
                0x0000000000000000        0x0 /usr/local/xenon/usr/lib/libfat.a(partition.o)
 .note.GNU-stack
                0x0000000000000000        0x0 /usr/local/xenon/usr/lib/libfat.a(cache.o)
 .note.GNU-stack
                0x0000000000000000        0x0 /usr/local/xenon/usr/lib/libfat.a(directory.o)
 .note.GNU-stack
                0x0000000000000000        0x0 /usr/local/xenon/usr/lib/libfat.a(disc.o)
 .note.GNU-stack
                0x0000000000000000        0x0 /usr/local/xenon/usr/lib/libfat.a(fatdir.o)
 .note.GNU-stack
                0x0000000000000000        0x0 /usr/local/xenon/usr/lib/libfat.a(fatfile.o)
 .note.GNU-stack
                0x0000000000000000        0x0 /usr/local/xenon/usr/lib/libfat.a(file_allocation_table.o)
 .note.GNU-stack
                0x0000000000000000        0x0 /usr/local/xenon/usr/lib/libfat.a(filetime.o)
 .note.GNU-stack
                0x0000000000000000        0x0 /usr/local/xenon/usr/lib/libfat.a(lock.o)
 .note.GNU-stack
                0x0000000000000000        0x0 /usr/local/xenon/usr/lib/libext2fs.a(ext2.o)
 .note.GNU-stack
                0x0000000000000000        0x0 /usr/local/xenon/usr/lib/libext2fs.a(ext2_internal.o)
 .note.GNU-stack
                0x0000000000000000        0x0 /usr/local/xenon/usr/lib/libext2fs.a(freefs.o)
 .note.GNU-stack
                0x0000000000000000        0x0 /usr/local/xenon/usr/lib/libext2fs.a(gekko_io.o)
 .note.GNU-stack
                0x0000000000000000        0x0 /usr/local/xenon/usr/lib/libext2fs.a(inode.o)
 .note.GNU-stack
                0x0000000000000000        0x0 /usr/local/xenon/usr/lib/libext2fs.a(io_manager.o)
 .note.GNU-stack
                0x0000000000000000        0x0 /usr/local/xenon/usr/lib/libext2fs.a(link.o)
 .note.GNU-stack
                0x0000000000000000        0x0 /usr/local/xenon/usr/lib/libext2fs.a(mkdir.o)
 .note.GNU-stack
                0x0000000000000000        0x0 /usr/local/xenon/usr/lib/libext2fs.a(namei.o)
 .note.GNU-stack
                0x0000000000000000        0x0 /usr/local/xenon/usr/lib/libext2fs.a(newdir.o)
 .note.GNU-stack
                0x0000000000000000        0x0 /usr/local/xenon/usr/lib/libext2fs.a(openfs.o)
 .note.GNU-stack
                0x0000000000000000        0x0 /usr/local/xenon/usr/lib/libext2fs.a(punch.o)
 .note.GNU-stack
                0x0000000000000000        0x0 /usr/local/xenon/usr/lib/libext2fs.a(read_bb.o)
 .note.GNU-stack
                0x0000000000000000        0x0 /usr/local/xenon/usr/lib/libext2fs.a(rw_bitmaps.o)
 .note.GNU-stack
                0x0000000000000000        0x0 /usr/local/xenon/usr/lib/libext2fs.a(swapfs.o)
 .note.GNU-stack
                0x0000000000000000        0x0 /usr/local/xenon/usr/lib/libext2fs.a(unlink.o)
 .note.GNU-stack
                0x0000000000000000        0x0 /usr/local/xenon/usr/lib/libext2fs.a(valid_blk.o)
 .note.GNU-stack
                0x0000000000000000        0x0 /usr/local/xenon/usr/lib/libext2fs.a(alloc.o)
 .note.GNU-stack
                0x0000000000000000        0x0 /usr/local/xenon/usr/lib/libext2fs.a(alloc_stats.o)
 .note.GNU-stack
                0x0000000000000000        0x0 /usr/local/xenon/usr/lib/libext2fs.a(badblocks.o)
 .note.GNU-stack
                0x0000000000000000        0x0 /usr/local/xenon/usr/lib/libext2fs.a(bitmaps.o)
 .note.GNU-stack
                0x0000000000000000        0x0 /usr/local/xenon/usr/lib/libext2fs.a(bitops.o)
 .note.GNU-stack
                0x0000000000000000        0x0 /usr/local/xenon/usr/lib/libext2fs.a(blknum.o)
 .note.GNU-stack
                0x0000000000000000        0x0 /usr/local/xenon/usr/lib/libext2fs.a(block.o)
 .note.GNU-stack
                0x0000000000000000        0x0 /usr/local/xenon/usr/lib/libext2fs.a(closefs.o)
 .note.GNU-stack
                0x0000000000000000        0x0 /usr/local/xenon/usr/lib/libext2fs.a(csum.o)
 .note.GNU-stack
                0x0000000000000000        0x0 /usr/local/xenon/usr/lib/libext2fs.a(dirblock.o)
 .note.GNU-stack
                0x0000000000000000        0x0 /usr/local/xenon/usr/lib/libext2fs.a(dir_iterate.o)
 .note.GNU-stack
                0x0000000000000000        0x0 /usr/local/xenon/usr/lib/libext2fs.a(disc_cache.o)
 .note.GNU-stack
                0x0000000000000000        0x0 /usr/local/xenon/usr/lib/libext2fs.a(expanddir.o)
 .note.GNU-stack
                0x0000000000000000        0x0 /usr/local/xenon/usr/lib/libext2fs.a(ext2dir.o)
 .note.GNU-stack
                0x0000000000000000        0x0 /usr/local/xenon/usr/lib/libext2fs.a(ext2file.o)
 .note.GNU-stack
                0x0000000000000000        0x0 /usr/local/xenon/usr/lib/libext2fs.a(extent.o)
 .note.GNU-stack
                0x0000000000000000        0x0 /usr/local/xenon/usr/lib/libext2fs.a(fileio.o)
 .note.GNU-stack
                0x0000000000000000        0x0 /usr/local/xenon/usr/lib/libext2fs.a(gen_bitmap64.o)
 .note.GNU-stack
                0x0000000000000000        0x0 /usr/local/xenon/usr/lib/libext2fs.a(gen_bitmap.o)
 .note.GNU-stack
                0x0000000000000000        0x0 /usr/local/xenon/usr/lib/libext2fs.a(i_block.o)
 .note.GNU-stack
                0x0000000000000000        0x0 /usr/local/xenon/usr/lib/libext2fs.a(ind_block.o)
 .note.GNU-stack
                0x0000000000000000        0x0 /usr/local/xenon/usr/lib/libext2fs.a(inline.o)
 .note.GNU-stack
                0x0000000000000000        0x0 /usr/local/xenon/usr/lib/libext2fs.a(lookup.o)
 .note.GNU-stack
                0x0000000000000000        0x0 /usr/local/xenon/usr/lib/libext2fs.a(mmp.o)
 .note.GNU-stack
                0x0000000000000000        0x0 /usr/local/xenon/usr/lib/libext2fs.a(progress.o)
 .note.GNU-stack
                0x0000000000000000        0x0 /usr/local/xenon/usr/lib/libext2fs.a(blkmap64_ba.o)
 .note.GNU-stack
                0x0000000000000000        0x0 /usr/local/xenon/usr/lib/libext2fs.a(bmap.o)
 .note.GNU-stack
                0x0000000000000000        0x0 /usr/local/xenon/usr/lib/libext2fs.a(crc16.o)
 .note.GNU-stack
                0x0000000000000000        0x0 /usr/local/xenon/usr/lib/libext2fs.a(llseek.o)
 .note.GNU-stack
                0x0000000000000000        0x0 /usr/local/xenon/usr/lib/libxtaf.a(xtaf.o)
 .note.GNU-stack
                0x0000000000000000        0x0 /usr/local/xenon/usr/lib/libxtaf.a(xtaf_partition.o)
 .note.GNU-stack
                0x0000000000000000        0x0 /usr/local/xenon/usr/lib/libxtaf.a(xtaf_util.o)
 .note.GNU-stack
                0x0000000000000000        0x0 /usr/local/xenon/usr/lib/libxtaf.a(cache.o)
 .note.GNU-stack
                0x0000000000000000        0x0 /usr/local/xenon/usr/lib/libxtaf.a(xtaf_dir.o)
 .note.GNU-stack
                0x0000000000000000        0x0 /usr/local/xenon/usr/lib/libxtaf.a(xtaf_file.o)
 .note.GNU-stack
                0x0000000000000000        0x0 /usr/local/xenon/xenon/lib/32/libm.a(lib_a-s_ceil.o)
 .note.GNU-stack
                0x0000000000000000        0x0 /usr/local/xenon/xenon/lib/32/libm.a(lib_a-s_floor.o)
 .note.GNU-stack
                0x0000000000000000        0x0 /usr/local/xenon/lib/gcc/xenon/4.7.1/32/libgcc.a(crtsavgpr.o)
 .note.GNU-stack
                0x0000000000000000        0x0 /usr/local/xenon/lib/gcc/xenon/4.7.1/32/libgcc.a(crtresxgpr.o)
 .note.GNU-stack
                0x0000000000000000        0x0 /usr/local/xenon/lib/gcc/xenon/4.7.1/32/libgcc.a(unwind-dw2-fde-dip.o)
 .note.GNU-stack
                0x0000000000000000        0x0 /usr/local/xenon/xenon/lib/32/libc.a(lib_a-assert.o)
 .note.GNU-stack
                0x0000000000000000        0x0 /usr/local/xenon/xenon/lib/32/libc.a(lib_a-atoi.o)
 .note.GNU-stack
                0x0000000000000000        0x0 /usr/local/xenon/xenon/lib/32/libc.a(lib_a-calloc.o)
 .note.GNU-stack
                0x0000000000000000        0x0 /usr/local/xenon/xenon/lib/32/libc.a(lib_a-callocr.o)
 .note.GNU-stack
                0x0000000000000000        0x0 /usr/local/xenon/xenon/lib/32/libc.a(lib_a-ctype_.o)
 .note.GNU-stack
                0x0000000000000000        0x0 /usr/local/xenon/xenon/lib/32/libc.a(lib_a-errno.o)
 .note.GNU-stack
                0x0000000000000000        0x0 /usr/local/xenon/xenon/lib/32/libc.a(lib_a-exit.o)
 .note.GNU-stack
                0x0000000000000000        0x0 /usr/local/xenon/xenon/lib/32/libc.a(lib_a-fclose.o)
 .note.GNU-stack
                0x0000000000000000        0x0 /usr/local/xenon/xenon/lib/32/libc.a(lib_a-fflush.o)
 .note.GNU-stack
                0x0000000000000000        0x0 /usr/local/xenon/xenon/lib/32/libc.a(lib_a-findfp.o)
 .note.GNU-stack
                0x0000000000000000        0x0 /usr/local/xenon/xenon/lib/32/libc.a(lib_a-fiprintf.o)
 .note.GNU-stack
                0x0000000000000000        0x0 /usr/local/xenon/xenon/lib/32/libc.a(lib_a-fopen.o)
 .note.GNU-stack
                0x0000000000000000        0x0 /usr/local/xenon/xenon/lib/32/libc.a(lib_a-fprintf.o)
 .note.GNU-stack
                0x0000000000000000        0x0 /usr/local/xenon/xenon/lib/32/libc.a(lib_a-fputs.o)
 .note.GNU-stack
                0x0000000000000000        0x0 /usr/local/xenon/xenon/lib/32/libc.a(lib_a-fread.o)
 .note.GNU-stack
                0x0000000000000000        0x0 /usr/local/xenon/xenon/lib/32/libc.a(lib_a-freer.o)
 .note.GNU-stack
                0x0000000000000000        0x0 /usr/local/xenon/xenon/lib/32/libc.a(lib_a-fseek.o)
 .note.GNU-stack
                0x0000000000000000        0x0 /usr/local/xenon/xenon/lib/32/libc.a(lib_a-fstatr.o)
 .note.GNU-stack
                0x0000000000000000        0x0 /usr/local/xenon/xenon/lib/32/libc.a(lib_a-ftell.o)
 .note.GNU-stack
                0x0000000000000000        0x0 /usr/local/xenon/xenon/lib/32/libc.a(lib_a-fvwrite.o)
 .note.GNU-stack
                0x0000000000000000        0x0 /usr/local/xenon/xenon/lib/32/libc.a(lib_a-fwalk.o)
 .note.GNU-stack
                0x0000000000000000        0x0 /usr/local/xenon/xenon/lib/32/libc.a(lib_a-getenv.o)
 .note.GNU-stack
                0x0000000000000000        0x0 /usr/local/xenon/xenon/lib/32/libc.a(lib_a-getenv_r.o)
 .note.GNU-stack
                0x0000000000000000        0x0 /usr/local/xenon/xenon/lib/32/libc.a(lib_a-impure.o)
 .note.GNU-stack
                0x0000000000000000        0x0 /usr/local/xenon/xenon/lib/32/libc.a(lib_a-lcltime_r.o)
 .note.GNU-stack
                0x0000000000000000        0x0 /usr/local/xenon/xenon/lib/32/libc.a(lib_a-locale.o)
 .note.GNU-stack
                0x0000000000000000        0x0 /usr/local/xenon/xenon/lib/32/libc.a(lib_a-makebuf.o)
 .note.GNU-stack
                0x0000000000000000        0x0 /usr/local/xenon/xenon/lib/32/libc.a(lib_a-malign.o)
 .note.GNU-stack
                0x0000000000000000        0x0 /usr/local/xenon/xenon/lib/32/libc.a(lib_a-malignr.o)
 .note.GNU-stack
                0x0000000000000000        0x0 /usr/local/xenon/xenon/lib/32/libc.a(lib_a-malloc.o)
 .note.GNU-stack
                0x0000000000000000        0x0 /usr/local/xenon/xenon/lib/32/libc.a(lib_a-mallocr.o)
 .note.GNU-stack
                0x0000000000000000        0x0 /usr/local/xenon/xenon/lib/32/libc.a(lib_a-mbrtowc.o)
 .note.GNU-stack
                0x0000000000000000        0x0 /usr/local/xenon/xenon/lib/32/libc.a(lib_a-mbsrtowcs.o)
 .note.GNU-stack
                0x0000000000000000        0x0 /usr/local/xenon/xenon/lib/32/libc.a(lib_a-mbtowc_r.o)
 .note.GNU-stack
                0x0000000000000000        0x0 /usr/local/xenon/xenon/lib/32/libc.a(lib_a-memchr.o)
 .note.GNU-stack
                0x0000000000000000        0x0 /usr/local/xenon/xenon/lib/32/libc.a(lib_a-memcmp.o)
 .note.GNU-stack
                0x0000000000000000        0x0 /usr/local/xenon/xenon/lib/32/libc.a(lib_a-memcpy.o)
 .note.GNU-stack
                0x0000000000000000        0x0 /usr/local/xenon/xenon/lib/32/libc.a(lib_a-memmove.o)
 .note.GNU-stack
                0x0000000000000000        0x0 /usr/local/xenon/xenon/lib/32/libc.a(lib_a-memset.o)
 .note.GNU-stack
                0x0000000000000000        0x0 /usr/local/xenon/xenon/lib/32/libc.a(lib_a-mktime.o)
 .note.GNU-stack
                0x0000000000000000        0x0 /usr/local/xenon/xenon/lib/32/libc.a(lib_a-mktm_r.o)
 .note.GNU-stack
                0x0000000000000000        0x0 /usr/local/xenon/xenon/lib/32/libc.a(lib_a-openr.o)
 .note.GNU-stack
                0x0000000000000000        0x0 /usr/local/xenon/xenon/lib/32/libc.a(lib_a-printf.o)
 .note.GNU-stack
                0x0000000000000000        0x0 /usr/local/xenon/xenon/lib/32/libc.a(lib_a-putchar.o)
 .note.GNU-stack
                0x0000000000000000        0x0 /usr/local/xenon/xenon/lib/32/libc.a(lib_a-putc.o)
 .note.GNU-stack
                0x0000000000000000        0x0 /usr/local/xenon/xenon/lib/32/libc.a(lib_a-puts.o)
 .note.GNU-stack
                0x0000000000000000        0x0 /usr/local/xenon/xenon/lib/32/libc.a(lib_a-rand.o)
 .note.GNU-stack
                0x0000000000000000        0x0 /usr/local/xenon/xenon/lib/32/libc.a(lib_a-realloc.o)
 .note.GNU-stack
                0x0000000000000000        0x0 /usr/local/xenon/xenon/lib/32/libc.a(lib_a-reallocr.o)
 .note.GNU-stack
                0x0000000000000000        0x0 /usr/local/xenon/xenon/lib/32/libc.a(lib_a-reent.o)
 .note.GNU-stack
                0x0000000000000000        0x0 /usr/local/xenon/xenon/lib/32/libc.a(lib_a-refill.o)
 .note.GNU-stack
                0x0000000000000000        0x0 /usr/local/xenon/xenon/lib/32/libc.a(lib_a-sbrkr.o)
 .note.GNU-stack
                0x0000000000000000        0x0 /usr/local/xenon/xenon/lib/32/libc.a(lib_a-setbuf.o)
 .note.GNU-stack
                0x0000000000000000        0x0 /usr/local/xenon/xenon/lib/32/libc.a(lib_a-setjmp.o)
 .note.GNU-stack
                0x0000000000000000        0x0 /usr/local/xenon/xenon/lib/32/libc.a(lib_a-setvbuf.o)
 .note.GNU-stack
                0x0000000000000000        0x0 /usr/local/xenon/xenon/lib/32/libc.a(lib_a-snprintf.o)
 .note.GNU-stack
                0x0000000000000000        0x0 /usr/local/xenon/xenon/lib/32/libc.a(lib_a-sprintf.o)
 .note.GNU-stack
                0x0000000000000000        0x0 /usr/local/xenon/xenon/lib/32/libc.a(lib_a-stdio.o)
 .note.GNU-stack
                0x0000000000000000        0x0 /usr/local/xenon/xenon/lib/32/libc.a(lib_a-strcat.o)
 .note.GNU-stack
                0x0000000000000000        0x0 /usr/local/xenon/xenon/lib/32/libc.a(lib_a-strchr.o)
 .note.GNU-stack
                0x0000000000000000        0x0 /usr/local/xenon/xenon/lib/32/libc.a(lib_a-strcmp.o)
 .note.GNU-stack
                0x0000000000000000        0x0 /usr/local/xenon/xenon/lib/32/libc.a(lib_a-strcpy.o)
 .note.GNU-stack
                0x0000000000000000        0x0 /usr/local/xenon/xenon/lib/32/libc.a(lib_a-strdup.o)
 .note.GNU-stack
                0x0000000000000000        0x0 /usr/local/xenon/xenon/lib/32/libc.a(lib_a-strdup_r.o)
 .note.GNU-stack
                0x0000000000000000        0x0 /usr/local/xenon/xenon/lib/32/libc.a(lib_a-strlcat.o)
 .note.GNU-stack
                0x0000000000000000        0x0 /usr/local/xenon/xenon/lib/32/libc.a(lib_a-strlcpy.o)
 .note.GNU-stack
                0x0000000000000000        0x0 /usr/local/xenon/xenon/lib/32/libc.a(lib_a-strlen.o)
 .note.GNU-stack
                0x0000000000000000        0x0 /usr/local/xenon/xenon/lib/32/libc.a(lib_a-strncasecmp.o)
 .note.GNU-stack
                0x0000000000000000        0x0 /usr/local/xenon/xenon/lib/32/libc.a(lib_a-strncmp.o)
 .note.GNU-stack
                0x0000000000000000        0x0 /usr/local/xenon/xenon/lib/32/libc.a(lib_a-strncpy.o)
 .note.GNU-stack
                0x0000000000000000        0x0 /usr/local/xenon/xenon/lib/32/libc.a(lib_a-strnlen.o)
 .note.GNU-stack
                0x0000000000000000        0x0 /usr/local/xenon/xenon/lib/32/libc.a(lib_a-strpbrk.o)
 .note.GNU-stack
                0x0000000000000000        0x0 /usr/local/xenon/xenon/lib/32/libc.a(lib_a-strrchr.o)
 .note.GNU-stack
                0x0000000000000000        0x0 /usr/local/xenon/xenon/lib/32/libc.a(lib_a-strtok.o)
 .note.GNU-stack
                0x0000000000000000        0x0 /usr/local/xenon/xenon/lib/32/libc.a(lib_a-strtok_r.o)
 .note.GNU-stack
                0x0000000000000000        0x0 /usr/local/xenon/xenon/lib/32/libc.a(lib_a-strtol.o)
 .note.GNU-stack
                0x0000000000000000        0x0 /usr/local/xenon/xenon/lib/32/libc.a(lib_a-strtoull.o)
 .note.GNU-stack
                0x0000000000000000        0x0 /usr/local/xenon/xenon/lib/32/libc.a(lib_a-strtoull_r.o)
 .note.GNU-stack
                0x0000000000000000        0x0 /usr/local/xenon/xenon/lib/32/libc.a(lib_a-svfprintf.o)
 .note.GNU-stack
                0x0000000000000000        0x0 /usr/local/xenon/xenon/lib/32/libc.a(lib_a-system.o)
 .note.GNU-stack
                0x0000000000000000        0x0 /usr/local/xenon/xenon/lib/32/libc.a(lib_a-time.o)
 .note.GNU-stack
                0x0000000000000000        0x0 /usr/local/xenon/xenon/lib/32/libc.a(lib_a-towlower.o)
 .note.GNU-stack
                0x0000000000000000        0x0 /usr/local/xenon/xenon/lib/32/libc.a(lib_a-towupper.o)
 .note.GNU-stack
                0x0000000000000000        0x0 /usr/local/xenon/xenon/lib/32/libc.a(lib_a-tzlock.o)
 .note.GNU-stack
                0x0000000000000000        0x0 /usr/local/xenon/xenon/lib/32/libc.a(lib_a-tzvars.o)
 .note.GNU-stack
                0x0000000000000000        0x0 /usr/local/xenon/xenon/lib/32/libc.a(lib_a-vfiprintf.o)
 .note.GNU-stack
                0x0000000000000000        0x0 /usr/local/xenon/xenon/lib/32/libc.a(lib_a-vfprintf.o)
 .note.GNU-stack
                0x0000000000000000        0x0 /usr/local/xenon/xenon/lib/32/libc.a(lib_a-vsprintf.o)
 .note.GNU-stack
                0x0000000000000000        0x0 /usr/local/xenon/xenon/lib/32/libc.a(lib_a-wbuf.o)
 .note.GNU-stack
                0x0000000000000000        0x0 /usr/local/xenon/xenon/lib/32/libc.a(lib_a-wcrtomb.o)
 .note.GNU-stack
                0x0000000000000000        0x0 /usr/local/xenon/xenon/lib/32/libc.a(lib_a-wctob.o)
 .note.GNU-stack
                0x0000000000000000        0x0 /usr/local/xenon/xenon/lib/32/libc.a(lib_a-wctomb_r.o)
 .note.GNU-stack
                0x0000000000000000        0x0 /usr/local/xenon/xenon/lib/32/libc.a(lib_a-writer.o)
 .note.GNU-stack
                0x0000000000000000        0x0 /usr/local/xenon/xenon/lib/32/libc.a(lib_a-wsetup.o)
 .note.GNU-stack
                0x0000000000000000        0x0 /usr/local/xenon/xenon/lib/32/libc.a(lib_a-__call_atexit.o)
 .note.GNU-stack
                0x0000000000000000        0x0 /usr/local/xenon/xenon/lib/32/libc.a(lib_a-closer.o)
 .note.GNU-stack
                0x0000000000000000        0x0 /usr/local/xenon/xenon/lib/32/libc.a(lib_a-div.o)
 .note.GNU-stack
                0x0000000000000000        0x0 /usr/local/xenon/xenon/lib/32/libc.a(lib_a-dtoa.o)
 .note.GNU-stack
                0x0000000000000000        0x0 /usr/local/xenon/xenon/lib/32/libc.a(lib_a-environ.o)
 .note.GNU-stack
                0x0000000000000000        0x0 /usr/local/xenon/xenon/lib/32/libc.a(lib_a-envlock.o)
 .note.GNU-stack
                0x0000000000000000        0x0 /usr/local/xenon/xenon/lib/32/libc.a(lib_a-execr.o)
 .note.GNU-stack
                0x0000000000000000        0x0 /usr/local/xenon/xenon/lib/32/libc.a(lib_a-flags.o)
 .note.GNU-stack
                0x0000000000000000        0x0 /usr/local/xenon/xenon/lib/32/libc.a(lib_a-fputwc.o)
 .note.GNU-stack
                0x0000000000000000        0x0 /usr/local/xenon/xenon/lib/32/libc.a(lib_a-gettimeofdayr.o)
 .note.GNU-stack
                0x0000000000000000        0x0 /usr/local/xenon/xenon/lib/32/libc.a(lib_a-gettzinfo.o)
 .note.GNU-stack
                0x0000000000000000        0x0 /usr/local/xenon/xenon/lib/32/libc.a(lib_a-isattyr.o)
 .note.GNU-stack
                0x0000000000000000        0x0 /usr/local/xenon/xenon/lib/32/libc.a(lib_a-lseekr.o)
 .note.GNU-stack
                0x0000000000000000        0x0 /usr/local/xenon/xenon/lib/32/libc.a(lib_a-mbsnrtowcs.o)
 .note.GNU-stack
                0x0000000000000000        0x0 /usr/local/xenon/xenon/lib/32/libc.a(lib_a-mprec.o)
 .note.GNU-stack
                0x0000000000000000        0x0 /usr/local/xenon/xenon/lib/32/libc.a(lib_a-readr.o)
 .note.GNU-stack
                0x0000000000000000        0x0 /usr/local/xenon/xenon/lib/32/libc.a(lib_a-s_fpclassify.o)
 .note.GNU-stack
                0x0000000000000000        0x0 /usr/local/xenon/xenon/lib/32/libc.a(lib_a-svfiprintf.o)
 .note.GNU-stack
                0x0000000000000000        0x0 /usr/local/xenon/lib/gcc/xenon/4.7.1/32/libgcc.a(_udivdi3.o)
 .note.GNU-stack
                0x0000000000000000        0x0 /usr/local/xenon/lib/gcc/xenon/4.7.1/32/libgcc.a(_umoddi3.o)
 .note.GNU-stack
                0x0000000000000000        0x0 /usr/local/xenon/lib/gcc/xenon/4.7.1/32/crtend.o

.gnu.attributes
                0x0000000000000000       0x12
 .gnu.attributes
                0x0000000000000000       0x10 main.o
 .gnu.attributes
                0x0000000000000010       0x10 tftp.o
 .gnu.attributes
                0x0000000000000020       0x10 kbootconf.o
 .gnu.attributes
                0x0000000000000030       0x10 /usr/local/xenon/usr/lib/libxenon.a(xenon_smc.o)
 .gnu.attributes
                0x0000000000000040       0x10 /usr/local/xenon/usr/lib/libxenon.a(dns.o)
 .gnu.attributes
                0x0000000000000050       0x10 /usr/local/xenon/usr/lib/libext2fs.a(gekko_io.o)
 .gnu.attributes
                0x0000000000000060       0x10 /usr/local/xenon/usr/lib/libxtaf.a(xtaf_util.o)
 .gnu.attributes
                0x0000000000000070       0x10 /usr/local/xenon/xenon/lib/32/libm.a(lib_a-s_ceil.o)
 .gnu.attributes
                0x0000000000000080       0x10 /usr/local/xenon/xenon/lib/32/libm.a(lib_a-s_floor.o)
 .gnu.attributes
                0x0000000000000090       0x10 /usr/local/xenon/xenon/lib/32/libc.a(lib_a-fiprintf.o)
 .gnu.attributes
                0x00000000000000a0       0x10 /usr/local/xenon/xenon/lib/32/libc.a(lib_a-fprintf.o)
 .gnu.attributes
                0x00000000000000b0       0x10 /usr/local/xenon/xenon/lib/32/libc.a(lib_a-mktime.o)
 .gnu.attributes
                0x00000000000000c0       0x10 /usr/local/xenon/xenon/lib/32/libc.a(lib_a-printf.o)
 .gnu.attributes
                0x00000000000000d0       0x10 /usr/local/xenon/xenon/lib/32/libc.a(lib_a-snprintf.o)
 .gnu.attributes
                0x00000000000000e0       0x10 /usr/local/xenon/xenon/lib/32/libc.a(lib_a-sprintf.o)
 .gnu.attributes
                0x00000000000000f0       0x10 /usr/local/xenon/xenon/lib/32/libc.a(lib_a-svfprintf.o)
 .gnu.attributes
                0x0000000000000100       0x10 /usr/local/xenon/xenon/lib/32/libc.a(lib_a-vfprintf.o)
 .gnu.attributes
                0x0000000000000110       0x10 /usr/local/xenon/xenon/lib/32/libc.a(lib_a-div.o)
 .gnu.attributes
                0x0000000000000120       0x10 /usr/local/xenon/xenon/lib/32/libc.a(lib_a-dtoa.o)
 .gnu.attributes
                0x0000000000000130       0x10 /usr/local/xenon/xenon/lib/32/libc.a(lib_a-mprec.o)
 .gnu.attributes
                0x0000000000000140       0x10 /usr/local/xenon/xenon/lib/32/libc.a(lib_a-s_fpclassify.o)

.debug_frame    0x0000000000000000     0xb4d0
 .debug_frame   0x0000000000000000       0x5c /usr/local/xenon/lib/gcc/xenon/4.7.1/../../../../xenon/lib/../lib/crt1.o
 .debug_frame   0x000000000000005c       0xf0 file.o
 .debug_frame   0x000000000000014c       0x88 log.o
 .debug_frame   0x00000000000001d4       0xb0 main.o
 .debug_frame   0x0000000000000284       0xe4 mount.o
 .debug_frame   0x0000000000000368      0x150 tftp.o
 .debug_frame   0x00000000000004b8      0x400 httpd.o
 .debug_frame   0x00000000000008b8       0xb8 httpd_flash.o
 .debug_frame   0x0000000000000970       0xd8 httpd_fuse.o
 .debug_frame   0x0000000000000a48       0xcc httpd_index.o
 .debug_frame   0x0000000000000b14       0xc8 httpd_keyvault.o
 .debug_frame   0x0000000000000bdc      0x180 kbootconf.o
 .debug_frame   0x0000000000000d5c       0xfc puff.o
 .debug_frame   0x0000000000000e58       0x20 /usr/local/xenon/usr/lib/libxenon.a(argv.o)
 .debug_frame   0x0000000000000e78      0x164 /usr/local/xenon/usr/lib/libxenon.a(console.o)
 .debug_frame   0x0000000000000fdc      0x2e0 /usr/local/xenon/usr/lib/libxenon.a(ata.o)
 .debug_frame   0x00000000000012bc      0x318 /usr/local/xenon/usr/lib/libxenon.a(iso9660.o)
 .debug_frame   0x00000000000015d4       0x68 /usr/local/xenon/usr/lib/libxenon.a(input.o)
 .debug_frame   0x000000000000163c      0x8e8 /usr/local/xenon/usr/lib/libxenon.a(newlib.o)
 .debug_frame   0x0000000000001f24      0x10c /usr/local/xenon/usr/lib/libxenon.a(xenon_syscalls.o)
 .debug_frame   0x0000000000002030       0x64 /usr/local/xenon/usr/lib/libxenon.a(c_except.o)
 .debug_frame   0x0000000000002094       0xb0 /usr/local/xenon/usr/lib/libxenon.a(vm.o)
 .debug_frame   0x0000000000002144       0x50 /usr/local/xenon/usr/lib/libxenon.a(time.o)
 .debug_frame   0x0000000000002194      0x168 /usr/local/xenon/usr/lib/libxenon.a(usbctrl.o)
 .debug_frame   0x00000000000022fc      0x3d8 /usr/local/xenon/usr/lib/libxenon.a(usbd.o)
 .debug_frame   0x00000000000026d4       0x40 /usr/local/xenon/usr/lib/libxenon.a(usbdevs.o)
 .debug_frame   0x0000000000002714       0x90 /usr/local/xenon/usr/lib/libxenon.a(usbhid.o)
 .debug_frame   0x00000000000027a4      0x1a4 /usr/local/xenon/usr/lib/libxenon.a(usbhub.o)
 .debug_frame   0x0000000000002948       0xb4 /usr/local/xenon/usr/lib/libxenon.a(usbmain.o)
 .debug_frame   0x00000000000029fc      0x96c /usr/local/xenon/usr/lib/libxenon.a(tinyehci.o)
 .debug_frame   0x0000000000003368       0x90 /usr/local/xenon/usr/lib/libxenon.a(debug.o)
 .debug_frame   0x00000000000033f8      0x270 /usr/local/xenon/usr/lib/libxenon.a(xenon_smc.o)
 .debug_frame   0x0000000000003668      0x150 /usr/local/xenon/usr/lib/libxenon.a(xenon_power.o)
 .debug_frame   0x00000000000037b8       0x20 /usr/local/xenon/usr/lib/libxenon.a(xenon_secotp.o)
 .debug_frame   0x00000000000037d8       0xb0 /usr/local/xenon/usr/lib/libxenon.a(sound.o)
 .debug_frame   0x0000000000003888       0x84 /usr/local/xenon/usr/lib/libxenon.a(xenon_uart.o)
 .debug_frame   0x000000000000390c      0x2fc /usr/local/xenon/usr/lib/libxenon.a(xenon_sfcx.o)
 .debug_frame   0x0000000000003c08       0x98 /usr/local/xenon/usr/lib/libxenon.a(xenon_config.o)
 .debug_frame   0x0000000000003ca0      0x21c /usr/local/xenon/usr/lib/libxenon.a(xenos.o)
 .debug_frame   0x0000000000003ebc       0xa0 /usr/local/xenon/usr/lib/libxenon.a(xenos_edid.o)
 .debug_frame   0x0000000000003f5c       0xa4 /usr/local/xenon/usr/lib/libxenon.a(mem.o)
 .debug_frame   0x0000000000004000      0x188 /usr/local/xenon/usr/lib/libxenon.a(netif.o)
 .debug_frame   0x0000000000004188      0x2b4 /usr/local/xenon/usr/lib/libxenon.a(pbuf.o)
 .debug_frame   0x000000000000443c       0x20 /usr/local/xenon/usr/lib/libxenon.a(stats.o)
 .debug_frame   0x000000000000445c      0x3ec /usr/local/xenon/usr/lib/libxenon.a(tcp.o)
 .debug_frame   0x0000000000004848       0xa0 /usr/local/xenon/usr/lib/libxenon.a(ip_addr.o)
 .debug_frame   0x00000000000048e8       0xb4 /usr/local/xenon/usr/lib/libxenon.a(ip.o)
 .debug_frame   0x000000000000499c      0x160 /usr/local/xenon/usr/lib/libxenon.a(ip_frag.o)
 .debug_frame   0x0000000000004afc      0x29c /usr/local/xenon/usr/lib/libxenon.a(tcp_out.o)
 .debug_frame   0x0000000000004d98      0x160 /usr/local/xenon/usr/lib/libxenon.a(udp.o)
 .debug_frame   0x0000000000004ef8      0x1fc /usr/local/xenon/usr/lib/libxenon.a(etharp.o)
 .debug_frame   0x00000000000050f4      0x3f4 /usr/local/xenon/usr/lib/libxenon.a(dhcp.o)
 .debug_frame   0x00000000000054e8       0xe4 /usr/local/xenon/usr/lib/libxenon.a(raw.o)
 .debug_frame   0x00000000000055cc       0x20 /usr/local/xenon/usr/lib/libxenon.a(timers.o)
 .debug_frame   0x00000000000055ec      0x110 /usr/local/xenon/usr/lib/libxenon.a(enet.o)
 .debug_frame   0x00000000000056fc       0xb0 /usr/local/xenon/usr/lib/libxenon.a(network.o)
 .debug_frame   0x00000000000057ac      0x204 /usr/local/xenon/usr/lib/libxenon.a(elf.o)
 .debug_frame   0x00000000000059b0      0x49c /usr/local/xenon/usr/lib/libxenon.a(fdt_ro.o)
 .debug_frame   0x0000000000005e4c      0x314 /usr/local/xenon/usr/lib/libxenon.a(fdt_rw.o)
 .debug_frame   0x0000000000006160      0x270 /usr/local/xenon/usr/lib/libxenon.a(xb360.o)
 .debug_frame   0x00000000000063d0       0xb4 /usr/local/xenon/usr/lib/libxenon.a(lib_malloc.o)
 .debug_frame   0x0000000000006484       0x50 /usr/local/xenon/usr/lib/libxenon.a(io.o)
 .debug_frame   0x00000000000064d4       0x30 /usr/local/xenon/usr/lib/libxenon.a(dummy.o)
 .debug_frame   0x0000000000006504      0x218 /usr/local/xenon/usr/lib/libxenon.a(ohci.o)
 .debug_frame   0x000000000000671c      0x100 /usr/local/xenon/usr/lib/libxenon.a(usbdebug.o)
 .debug_frame   0x000000000000681c      0x120 /usr/local/xenon/usr/lib/libxenon.a(usb_os.o)
 .debug_frame   0x000000000000693c       0x8c /usr/local/xenon/usr/lib/libxenon.a(xenon_gpio.o)
 .debug_frame   0x00000000000069c8       0x2c /usr/local/xenon/usr/lib/libxenon.a(init.o)
 .debug_frame   0x00000000000069f4       0xe0 /usr/local/xenon/usr/lib/libxenon.a(tcp_in.o)
 .debug_frame   0x0000000000006ad4       0xdc /usr/local/xenon/usr/lib/libxenon.a(inet_chksum.o)
 .debug_frame   0x0000000000006bb0      0x150 /usr/local/xenon/usr/lib/libxenon.a(dns.o)
 .debug_frame   0x0000000000006d00       0x5c /usr/local/xenon/usr/lib/libxenon.a(memp.o)
 .debug_frame   0x0000000000006d5c       0xa4 /usr/local/xenon/usr/lib/libxenon.a(icmp.o)
 .debug_frame   0x0000000000006e00      0x16c /usr/local/xenon/usr/lib/libxenon.a(fdt.o)
 .debug_frame   0x0000000000006f6c      0x130 /usr/local/xenon/usr/lib/libxenon.a(hmac_sha1.o)
 .debug_frame   0x000000000000709c       0x30 /usr/local/xenon/usr/lib/libxenon.a(rc4.o)
 .debug_frame   0x00000000000070cc       0xbc /usr/local/xenon/usr/lib/libxenon.a(sha1.o)
 .debug_frame   0x0000000000007188       0x90 /usr/local/xenon/usr/lib/libxenon.a(lib_queue.o)
 .debug_frame   0x0000000000007218       0xf4 /usr/local/xenon/usr/lib/libfat.a(libfat.o)
 .debug_frame   0x000000000000730c      0x1f4 /usr/local/xenon/usr/lib/libfat.a(partition.o)
 .debug_frame   0x0000000000007500      0x228 /usr/local/xenon/usr/lib/libfat.a(cache.o)
 .debug_frame   0x0000000000007728      0x310 /usr/local/xenon/usr/lib/libfat.a(directory.o)
 .debug_frame   0x0000000000007a38       0x50 /usr/local/xenon/usr/lib/libfat.a(disc.o)
 .debug_frame   0x0000000000007a88      0x1d8 /usr/local/xenon/usr/lib/libfat.a(fatdir.o)
 .debug_frame   0x0000000000007c60      0x2e8 /usr/local/xenon/usr/lib/libfat.a(fatfile.o)
 .debug_frame   0x0000000000007f48      0x174 /usr/local/xenon/usr/lib/libfat.a(file_allocation_table.o)
 .debug_frame   0x00000000000080bc       0x64 /usr/local/xenon/usr/lib/libfat.a(filetime.o)
 .debug_frame   0x0000000000008120       0x50 /usr/local/xenon/usr/lib/libfat.a(lock.o)
 .debug_frame   0x0000000000008170      0x1cc /usr/local/xenon/usr/lib/libxtaf.a(xtaf.o)
 .debug_frame   0x000000000000833c      0x100 /usr/local/xenon/usr/lib/libxtaf.a(xtaf_partition.o)
 .debug_frame   0x000000000000843c       0x60 /usr/local/xenon/usr/lib/libxtaf.a(xtaf_util.o)
 .debug_frame   0x000000000000849c      0x2b4 /usr/local/xenon/usr/lib/libxtaf.a(cache.o)
 .debug_frame   0x0000000000008750       0x9c /usr/local/xenon/usr/lib/libxtaf.a(xtaf_dir.o)
 .debug_frame   0x00000000000087ec      0x18c /usr/local/xenon/usr/lib/libxtaf.a(xtaf_file.o)
 .debug_frame   0x0000000000008978       0x38 /usr/local/xenon/xenon/lib/32/libm.a(lib_a-s_ceil.o)
 .debug_frame   0x00000000000089b0       0x38 /usr/local/xenon/xenon/lib/32/libm.a(lib_a-s_floor.o)
 .debug_frame   0x00000000000089e8       0x48 /usr/local/xenon/xenon/lib/32/libc.a(lib_a-assert.o)
 .debug_frame   0x0000000000008a30       0x30 /usr/local/xenon/xenon/lib/32/libc.a(lib_a-atoi.o)
 .debug_frame   0x0000000000008a60       0x34 /usr/local/xenon/xenon/lib/32/libc.a(lib_a-calloc.o)
 .debug_frame   0x0000000000008a94       0x38 /usr/local/xenon/xenon/lib/32/libc.a(lib_a-callocr.o)
 .debug_frame   0x0000000000008acc       0x34 /usr/local/xenon/xenon/lib/32/libc.a(lib_a-errno.o)
 .debug_frame   0x0000000000008b00       0x30 /usr/local/xenon/xenon/lib/32/libc.a(lib_a-exit.o)
 .debug_frame   0x0000000000008b30       0x70 /usr/local/xenon/xenon/lib/32/libc.a(lib_a-fclose.o)
 .debug_frame   0x0000000000008ba0       0xb8 /usr/local/xenon/xenon/lib/32/libc.a(lib_a-fflush.o)
 .debug_frame   0x0000000000008c58      0x1b4 /usr/local/xenon/xenon/lib/32/libc.a(lib_a-findfp.o)
 .debug_frame   0x0000000000008e0c       0x50 /usr/local/xenon/xenon/lib/32/libc.a(lib_a-fiprintf.o)
 .debug_frame   0x0000000000008e5c       0x80 /usr/local/xenon/xenon/lib/32/libc.a(lib_a-fopen.o)
 .debug_frame   0x0000000000008edc       0x50 /usr/local/xenon/xenon/lib/32/libc.a(lib_a-fprintf.o)
 .debug_frame   0x0000000000008f2c       0x64 /usr/local/xenon/xenon/lib/32/libc.a(lib_a-fputs.o)
 .debug_frame   0x0000000000008f90       0x80 /usr/local/xenon/xenon/lib/32/libc.a(lib_a-fread.o)
 .debug_frame   0x0000000000009010       0x98 /usr/local/xenon/xenon/lib/32/libc.a(lib_a-freer.o)
 .debug_frame   0x00000000000090a8       0x88 /usr/local/xenon/xenon/lib/32/libc.a(lib_a-fseek.o)
 .debug_frame   0x0000000000009130       0x48 /usr/local/xenon/xenon/lib/32/libc.a(lib_a-fstatr.o)
 .debug_frame   0x0000000000009178       0x6c /usr/local/xenon/xenon/lib/32/libc.a(lib_a-ftell.o)
 .debug_frame   0x00000000000091e4       0x6c /usr/local/xenon/xenon/lib/32/libc.a(lib_a-fvwrite.o)
 .debug_frame   0x0000000000009250       0x94 /usr/local/xenon/xenon/lib/32/libc.a(lib_a-fwalk.o)
 .debug_frame   0x00000000000092e4       0x58 /usr/local/xenon/xenon/lib/32/libc.a(lib_a-getenv.o)
 .debug_frame   0x000000000000933c       0x7c /usr/local/xenon/xenon/lib/32/libc.a(lib_a-getenv_r.o)
 .debug_frame   0x00000000000093b8       0x20 /usr/local/xenon/xenon/lib/32/libc.a(lib_a-lcltime_r.o)
 .debug_frame   0x00000000000093d8      0x130 /usr/local/xenon/xenon/lib/32/libc.a(lib_a-locale.o)
 .debug_frame   0x0000000000009508       0x50 /usr/local/xenon/xenon/lib/32/libc.a(lib_a-makebuf.o)
 .debug_frame   0x0000000000009558       0x34 /usr/local/xenon/xenon/lib/32/libc.a(lib_a-malign.o)
 .debug_frame   0x000000000000958c       0x68 /usr/local/xenon/xenon/lib/32/libc.a(lib_a-malignr.o)
 .debug_frame   0x00000000000095f4       0x58 /usr/local/xenon/xenon/lib/32/libc.a(lib_a-malloc.o)
 .debug_frame   0x000000000000964c       0xa8 /usr/local/xenon/xenon/lib/32/libc.a(lib_a-mallocr.o)
 .debug_frame   0x00000000000096f4       0x84 /usr/local/xenon/xenon/lib/32/libc.a(lib_a-mbrtowc.o)
 .debug_frame   0x0000000000009778       0x44 /usr/local/xenon/xenon/lib/32/libc.a(lib_a-mbsrtowcs.o)
 .debug_frame   0x00000000000097bc       0x60 /usr/local/xenon/xenon/lib/32/libc.a(lib_a-mbtowc_r.o)
 .debug_frame   0x000000000000981c       0x34 /usr/local/xenon/xenon/lib/32/libc.a(lib_a-memchr.o)
 .debug_frame   0x0000000000009850       0x3c /usr/local/xenon/xenon/lib/32/libc.a(lib_a-memcmp.o)
 .debug_frame   0x000000000000988c       0x38 /usr/local/xenon/xenon/lib/32/libc.a(lib_a-memcpy.o)
 .debug_frame   0x00000000000098c4       0x40 /usr/local/xenon/xenon/lib/32/libc.a(lib_a-memmove.o)
 .debug_frame   0x0000000000009904       0x34 /usr/local/xenon/xenon/lib/32/libc.a(lib_a-memset.o)
 .debug_frame   0x0000000000009938       0x78 /usr/local/xenon/xenon/lib/32/libc.a(lib_a-mktime.o)
 .debug_frame   0x00000000000099b0       0xac /usr/local/xenon/xenon/lib/32/libc.a(lib_a-mktm_r.o)
 .debug_frame   0x0000000000009a5c       0x48 /usr/local/xenon/xenon/lib/32/libc.a(lib_a-openr.o)
 .debug_frame   0x0000000000009aa4       0x50 /usr/local/xenon/xenon/lib/32/libc.a(lib_a-printf.o)
 .debug_frame   0x0000000000009af4       0x44 /usr/local/xenon/xenon/lib/32/libc.a(lib_a-putchar.o)
 .debug_frame   0x0000000000009b38       0x94 /usr/local/xenon/xenon/lib/32/libc.a(lib_a-putc.o)
 .debug_frame   0x0000000000009bcc       0x64 /usr/local/xenon/xenon/lib/32/libc.a(lib_a-puts.o)
 .debug_frame   0x0000000000009c30       0x58 /usr/local/xenon/xenon/lib/32/libc.a(lib_a-rand.o)
 .debug_frame   0x0000000000009c88       0x34 /usr/local/xenon/xenon/lib/32/libc.a(lib_a-realloc.o)
 .debug_frame   0x0000000000009cbc       0x94 /usr/local/xenon/xenon/lib/32/libc.a(lib_a-reallocr.o)
 .debug_frame   0x0000000000009d50       0xb8 /usr/local/xenon/xenon/lib/32/libc.a(lib_a-reent.o)
 .debug_frame   0x0000000000009e08       0x7c /usr/local/xenon/xenon/lib/32/libc.a(lib_a-refill.o)
 .debug_frame   0x0000000000009e84       0x48 /usr/local/xenon/xenon/lib/32/libc.a(lib_a-sbrkr.o)
 .debug_frame   0x0000000000009ecc       0x20 /usr/local/xenon/xenon/lib/32/libc.a(lib_a-setbuf.o)
 .debug_frame   0x0000000000009eec       0x64 /usr/local/xenon/xenon/lib/32/libc.a(lib_a-setvbuf.o)
 .debug_frame   0x0000000000009f50       0x74 /usr/local/xenon/xenon/lib/32/libc.a(lib_a-snprintf.o)
 .debug_frame   0x0000000000009fc4       0x58 /usr/local/xenon/xenon/lib/32/libc.a(lib_a-sprintf.o)
 .debug_frame   0x000000000000a01c       0xb0 /usr/local/xenon/xenon/lib/32/libc.a(lib_a-stdio.o)
 .debug_frame   0x000000000000a0cc       0x34 /usr/local/xenon/xenon/lib/32/libc.a(lib_a-strcat.o)
 .debug_frame   0x000000000000a100       0x3c /usr/local/xenon/xenon/lib/32/libc.a(lib_a-strchr.o)
 .debug_frame   0x000000000000a13c       0x38 /usr/local/xenon/xenon/lib/32/libc.a(lib_a-strcmp.o)
 .debug_frame   0x000000000000a174       0x34 /usr/local/xenon/xenon/lib/32/libc.a(lib_a-strcpy.o)
 .debug_frame   0x000000000000a1a8       0x34 /usr/local/xenon/xenon/lib/32/libc.a(lib_a-strdup.o)
 .debug_frame   0x000000000000a1dc       0x40 /usr/local/xenon/xenon/lib/32/libc.a(lib_a-strdup_r.o)
 .debug_frame   0x000000000000a21c       0x44 /usr/local/xenon/xenon/lib/32/libc.a(lib_a-strlcat.o)
 .debug_frame   0x000000000000a260       0x38 /usr/local/xenon/xenon/lib/32/libc.a(lib_a-strlcpy.o)
 .debug_frame   0x000000000000a298       0x34 /usr/local/xenon/xenon/lib/32/libc.a(lib_a-strlen.o)
 .debug_frame   0x000000000000a2cc       0x38 /usr/local/xenon/xenon/lib/32/libc.a(lib_a-strncasecmp.o)
 .debug_frame   0x000000000000a304       0x40 /usr/local/xenon/xenon/lib/32/libc.a(lib_a-strncmp.o)
 .debug_frame   0x000000000000a344       0x34 /usr/local/xenon/xenon/lib/32/libc.a(lib_a-strncpy.o)
 .debug_frame   0x000000000000a378       0x38 /usr/local/xenon/xenon/lib/32/libc.a(lib_a-strnlen.o)
 .debug_frame   0x000000000000a3b0       0x34 /usr/local/xenon/xenon/lib/32/libc.a(lib_a-strpbrk.o)
 .debug_frame   0x000000000000a3e4       0x48 /usr/local/xenon/xenon/lib/32/libc.a(lib_a-strrchr.o)
 .debug_frame   0x000000000000a42c       0x34 /usr/local/xenon/xenon/lib/32/libc.a(lib_a-strtok.o)
 .debug_frame   0x000000000000a460       0x50 /usr/local/xenon/xenon/lib/32/libc.a(lib_a-strtok_r.o)
 .debug_frame   0x000000000000a4b0       0x74 /usr/local/xenon/xenon/lib/32/libc.a(lib_a-strtol.o)
 .debug_frame   0x000000000000a524       0x34 /usr/local/xenon/xenon/lib/32/libc.a(lib_a-strtoull.o)
 .debug_frame   0x000000000000a558       0x68 /usr/local/xenon/xenon/lib/32/libc.a(lib_a-strtoull_r.o)
 .debug_frame   0x000000000000a5c0       0x7c /usr/local/xenon/xenon/lib/32/libc.a(lib_a-svfprintf.o)
 .debug_frame   0x000000000000a63c       0x68 /usr/local/xenon/xenon/lib/32/libc.a(lib_a-system.o)
 .debug_frame   0x000000000000a6a4       0x3c /usr/local/xenon/xenon/lib/32/libc.a(lib_a-time.o)
 .debug_frame   0x000000000000a6e0       0x3c /usr/local/xenon/xenon/lib/32/libc.a(lib_a-towlower.o)
 .debug_frame   0x000000000000a71c       0x3c /usr/local/xenon/xenon/lib/32/libc.a(lib_a-towupper.o)
 .debug_frame   0x000000000000a758       0x30 /usr/local/xenon/xenon/lib/32/libc.a(lib_a-tzlock.o)
 .debug_frame   0x000000000000a788       0xe4 /usr/local/xenon/xenon/lib/32/libc.a(lib_a-vfiprintf.o)
 .debug_frame   0x000000000000a86c       0xa0 /usr/local/xenon/xenon/lib/32/libc.a(lib_a-vfprintf.o)
 .debug_frame   0x000000000000a90c       0x54 /usr/local/xenon/xenon/lib/32/libc.a(lib_a-vsprintf.o)
 .debug_frame   0x000000000000a960       0x68 /usr/local/xenon/xenon/lib/32/libc.a(lib_a-wbuf.o)
 .debug_frame   0x000000000000a9c8       0x80 /usr/local/xenon/xenon/lib/32/libc.a(lib_a-wcrtomb.o)
 .debug_frame   0x000000000000aa48       0x4c /usr/local/xenon/xenon/lib/32/libc.a(lib_a-wctob.o)
 .debug_frame   0x000000000000aa94       0x50 /usr/local/xenon/xenon/lib/32/libc.a(lib_a-wctomb_r.o)
 .debug_frame   0x000000000000aae4       0x48 /usr/local/xenon/xenon/lib/32/libc.a(lib_a-writer.o)
 .debug_frame   0x000000000000ab2c       0x40 /usr/local/xenon/xenon/lib/32/libc.a(lib_a-wsetup.o)
 .debug_frame   0x000000000000ab6c       0x68 /usr/local/xenon/xenon/lib/32/libc.a(lib_a-__call_atexit.o)
 .debug_frame   0x000000000000abd4       0x48 /usr/local/xenon/xenon/lib/32/libc.a(lib_a-closer.o)
 .debug_frame   0x000000000000ac1c       0x20 /usr/local/xenon/xenon/lib/32/libc.a(lib_a-div.o)
 .debug_frame   0x000000000000ac3c       0xb4 /usr/local/xenon/xenon/lib/32/libc.a(lib_a-dtoa.o)
 .debug_frame   0x000000000000acf0       0x30 /usr/local/xenon/xenon/lib/32/libc.a(lib_a-envlock.o)
 .debug_frame   0x000000000000ad20       0xb8 /usr/local/xenon/xenon/lib/32/libc.a(lib_a-execr.o)
 .debug_frame   0x000000000000add8       0x20 /usr/local/xenon/xenon/lib/32/libc.a(lib_a-flags.o)
 .debug_frame   0x000000000000adf8       0x90 /usr/local/xenon/xenon/lib/32/libc.a(lib_a-fputwc.o)
 .debug_frame   0x000000000000ae88       0x48 /usr/local/xenon/xenon/lib/32/libc.a(lib_a-gettimeofdayr.o)
 .debug_frame   0x000000000000aed0       0x34 /usr/local/xenon/xenon/lib/32/libc.a(lib_a-gettzinfo.o)
 .debug_frame   0x000000000000af04       0x48 /usr/local/xenon/xenon/lib/32/libc.a(lib_a-isattyr.o)
 .debug_frame   0x000000000000af4c       0x48 /usr/local/xenon/xenon/lib/32/libc.a(lib_a-lseekr.o)
 .debug_frame   0x000000000000af94       0x9c /usr/local/xenon/xenon/lib/32/libc.a(lib_a-mbsnrtowcs.o)
 .debug_frame   0x000000000000b030      0x34c /usr/local/xenon/xenon/lib/32/libc.a(lib_a-mprec.o)
 .debug_frame   0x000000000000b37c       0x48 /usr/local/xenon/xenon/lib/32/libc.a(lib_a-readr.o)
 .debug_frame   0x000000000000b3c4       0x2c /usr/local/xenon/xenon/lib/32/libc.a(lib_a-s_fpclassify.o)
 .debug_frame   0x000000000000b3f0       0xe0 /usr/local/xenon/xenon/lib/32/libc.a(lib_a-svfiprintf.o)
